 leveldown

 Timestamp is 59b7f4d9 (Tue Sep 12 21:53:13 2017)

 Preferred load address is 0000000180000000

 Start         Length     Name                   Class
 0001:00000000 00000081H .text$di                CODE
 0001:00000090 00047afbH .text$mn                CODE
 0001:00047b90 00006410H .text$x                 CODE
 0001:0004dfa0 0000006eH .text$yd                CODE
 0002:00000000 000002c8H .idata$5                DATA
 0002:000002c8 00000008H .CRT$XCA                DATA
 0002:000002d0 00000028H .CRT$XCU                DATA
 0002:000002f8 00000008H .CRT$XCZ                DATA
 0002:00000300 00000008H .CRT$XIA                DATA
 0002:00000308 00000020H .CRT$XIC                DATA
 0002:00000328 00000008H .CRT$XIZ                DATA
 0002:00000330 00000008H .CRT$XPA                DATA
 0002:00000338 00000010H .CRT$XPX                DATA
 0002:00000348 00000008H .CRT$XPXA               DATA
 0002:00000350 00000008H .CRT$XPZ                DATA
 0002:00000358 00000008H .CRT$XTA                DATA
 0002:00000360 00000008H .CRT$XTZ                DATA
 0002:00000370 00011e90H .rdata                  DATA
 0002:00012200 00000088H .rdata$debug            DATA
 0002:00012288 0000037cH .rdata$r                DATA
 0002:00012608 00000008H .rtc$IAA                DATA
 0002:00012610 00000008H .rtc$IZZ                DATA
 0002:00012618 00000008H .rtc$TAA                DATA
 0002:00012620 00000008H .rtc$TZZ                DATA
 0002:00012628 0000bfc0H .xdata                  DATA
 0002:0001e5e8 000001dcH .xdata$x                DATA
 0002:0001e7c4 00000020H .didat$2                DATA
 0002:0001e7e4 00000020H .didat$3                DATA
 0002:0001e808 000002a0H .didat$4                DATA
 0002:0001eaa8 000011ecH .didat$6                DATA
 0002:0001fc98 000002a0H .didat$7                DATA
 0002:0001ff40 00000056H .edata                  DATA
 0002:0001ff98 00000014H .idata$2                DATA
 0002:0001ffac 00000014H .idata$3                DATA
 0002:0001ffc0 000002c8H .idata$4                DATA
 0002:00020288 00000650H .idata$6                DATA
 0003:00000000 00001998H .data                   DATA
 0003:00001998 00000110H .data$r                 DATA
 0003:00001aa8 000002a0H .didat$5                DATA
 0003:00001d60 00002588H .bss                    DATA
 0004:00000000 00003fa8H .pdata                  DATA
 0005:00000000 00000058H .rsrc$01                DATA
 0005:00000060 00000180H .rsrc$02                DATA

  Address         Publics by Value              Rva+Base               Lib:Object

 0000:00000000       ___safe_se_handler_count   0000000000000000     <absolute>
 0000:00000000       __guard_fids_count         0000000000000000     <absolute>
 0000:00000000       ___safe_se_handler_table   0000000000000000     <absolute>
 0000:00000000       __guard_fids_table         0000000000000000     <absolute>
 0000:00000000       __guard_flags              0000000000000000     <absolute>
 0000:00000000       __ImageBase                0000000180000000     <linker-defined>
 0001:00000090       ??3@YAXPEAX0@Z             0000000180001090 f i batch.obj
 0001:00000090       ??1?$Persistent@VObject@v8@@V?$NonCopyablePersistentTraits@VObject@v8@@@2@@v8@@QEAA@XZ 0000000180001090 f i batch.obj
 0001:00000090       ?SeekToLast@EmptyIterator@?A0xa6d30bd7@leveldb@@UEAAXXZ 0000000180001090 f i leveldb:iterator.obj
 0001:00000090       ?SeekToFirst@EmptyIterator@?A0xa6d30bd7@leveldb@@UEAAXXZ 0000000180001090 f i leveldb:iterator.obj
 0001:00000090       ?Seek@EmptyIterator@?A0xa6d30bd7@leveldb@@UEAAXAEBVSlice@3@@Z 0000000180001090 f i leveldb:iterator.obj
 0001:00000090       ?EmptyMethod@leveldown@@YAXAEBV?$FunctionCallbackInfo@VValue@v8@@@Nan@@@Z 0000000180001090 f i database.obj
 0001:00000090       ??1?$Persistent@VFunctionTemplate@v8@@V?$NonCopyablePersistentTraits@VFunctionTemplate@v8@@@2@@v8@@QEAA@XZ 0000000180001090 f i batch.obj
 0001:00000170       ?New@?$Factory@VFunctionTemplate@v8@@@imp@Nan@@SA?AV?$Local@VFunctionTemplate@v8@@@v8@@P6AXAEBV?$FunctionCallbackInfo@VValue@v8@@@3@@ZV?$Local@VValue@v8@@@5@V?$Local@VSignature@v8@@@5@@Z 0000000180001170 f i batch.obj
 0001:00000310       ??1EscapableHandleScope@Nan@@QEAA@XZ 0000000180001310 f i batch.obj
 0001:00000340       ??1HandleScope@Nan@@QEAA@XZ 0000000180001340 f i batch.obj
 0001:00000360       ??0Callback@Nan@@QEAA@AEBV?$Local@VFunction@v8@@@v8@@@Z 0000000180001360 f i batch.obj
 0001:00000410       ?SetFunction@Callback@Nan@@QEAAXAEBV?$Local@VFunction@v8@@@v8@@@Z 0000000180001410 f i batch.obj
 0001:000004b0       ??1?$Persistent@VObject@v8@@V?$NonCopyablePersistentTraits@VObject@v8@@@2@@Nan@@QEAA@XZ 00000001800014b0 f i batch.obj
 0001:000004d0       ?SaveToPersistent@AsyncWorker@Nan@@QEAAXPEBDAEBV?$Local@VValue@v8@@@v8@@@Z 00000001800014d0 f i batch.obj
 0001:00000590       ?AsyncExecute@Nan@@YAXPEAUuv_work_s@@@Z 0000000180001590 f i batch.obj
 0001:000005a0       ?AsyncExecuteComplete@Nan@@YAXPEAUuv_work_s@@@Z 00000001800015a0 f i batch.obj
 0001:000005d0       ?SetPrototypeMethod@Nan@@YAXV?$Local@VFunctionTemplate@v8@@@v8@@PEBDP6AXAEBV?$FunctionCallbackInfo@VValue@v8@@@1@@Z@Z 00000001800015d0 f i batch.obj
 0001:000006d0       ??1ObjectWrap@Nan@@UEAA@XZ 00000001800016d0 f i batch.obj
 0001:00000750       ?Wrap@ObjectWrap@Nan@@IEAAXV?$Local@VObject@v8@@@v8@@@Z 0000000180001750 f i batch.obj
 0001:00000830       ?Ref@ObjectWrap@Nan@@MEAAXXZ 0000000180001830 f i batch.obj
 0001:00000870       ?Unref@ObjectWrap@Nan@@MEAAXXZ 0000000180001870 f i batch.obj
 0001:00000920       ?WeakCallback@ObjectWrap@Nan@@CAXAEBV?$WeakCallbackInfo@VObjectWrap@Nan@@@v8@@@Z 0000000180001920 f i batch.obj
 0001:000009b0       ??_EObjectWrap@Nan@@UEAAPEAXI@Z 00000001800019b0 f i * CIL library *:* CIL module *
 0001:000009b0       ??_GObjectWrap@Nan@@UEAAPEAXI@Z 00000001800019b0 f i batch.obj
 0001:000009e0       ??1Status@leveldb@@QEAA@XZ 00000001800019e0 f i batch.obj
 0001:000009f0       ?BooleanOptionValue@leveldown@@YA_NV?$Local@VObject@v8@@@v8@@PEBD_N@Z 00000001800019f0 f i batch.obj
 0001:00000ab0       ??0Batch@leveldown@@QEAA@PEAVDatabase@1@_N@Z 0000000180001ab0 f   batch.obj
 0001:00000b60       ??_EBatch@leveldown@@UEAAPEAXI@Z 0000000180001b60 f i * CIL library *:* CIL module *
 0001:00000b60       ??_GBatch@leveldown@@UEAAPEAXI@Z 0000000180001b60 f i batch.obj
 0001:00000b90       ??1Batch@leveldown@@UEAA@XZ 0000000180001b90 f   batch.obj
 0001:00000c10       ?Write@Batch@leveldown@@QEAA?AVStatus@leveldb@@XZ 0000000180001c10 f   batch.obj
 0001:00000c60       ?Init@Batch@leveldown@@SAXXZ 0000000180001c60 f   batch.obj
 0001:00000d90       ?New@Batch@leveldown@@CAXAEBV?$FunctionCallbackInfo@VValue@v8@@@Nan@@@Z 0000000180001d90 f   batch.obj
 0001:00000ea0       ?NewInstance@Batch@leveldown@@SA?AV?$Local@VValue@v8@@@v8@@V?$Local@VObject@v8@@@4@0@Z 0000000180001ea0 f   batch.obj
 0001:00000fa0       ?Put@Batch@leveldown@@CAXAEBV?$FunctionCallbackInfo@VValue@v8@@@Nan@@@Z 0000000180001fa0 f   batch.obj
 0001:00001340       ?Del@Batch@leveldown@@CAXAEBV?$FunctionCallbackInfo@VValue@v8@@@Nan@@@Z 0000000180002340 f   batch.obj
 0001:00001550       ?Clear@Batch@leveldown@@CAXAEBV?$FunctionCallbackInfo@VValue@v8@@@Nan@@@Z 0000000180002550 f   batch.obj
 0001:000015f0       ?Write@Batch@leveldown@@CAXAEBV?$FunctionCallbackInfo@VValue@v8@@@Nan@@@Z 00000001800025f0 f   batch.obj
 0001:00001810       ??1?$basic_string@DU?$char_traits@D@std@@V?$allocator@D@2@@std@@QEAA@XZ 0000000180002810 f i batch.obj
 0001:00001850       ?assign@?$basic_string@DU?$char_traits@D@std@@V?$allocator@D@2@@std@@QEAAAEAV12@AEBV12@_K1@Z 0000000180002850 f i batch.obj
 0001:00001980       ?assign@?$basic_string@DU?$char_traits@D@std@@V?$allocator@D@2@@std@@QEAAAEAV12@PEBD_K@Z 0000000180002980 f i batch.obj
 0001:00001ac0       ?erase@?$basic_string@DU?$char_traits@D@std@@V?$allocator@D@2@@std@@QEAAAEAV12@_K0@Z 0000000180002ac0 f i batch.obj
 0001:00001b90       ?_Grow@?$basic_string@DU?$char_traits@D@std@@V?$allocator@D@2@@std@@QEAA_N_K_N@Z 0000000180002b90 f i batch.obj
 0001:00001c60       ?_Copy@?$basic_string@DU?$char_traits@D@std@@V?$allocator@D@2@@std@@QEAAX_K0@Z 0000000180002c60 f i batch.obj
 0001:00001d60       ??$Unwrap@VIterator@leveldown@@@ObjectWrap@Nan@@SAPEAVIterator@leveldown@@V?$Local@VObject@v8@@@v8@@@Z 0000000180002d60 f i database.obj
 0001:00001d60       ??$Unwrap@VBatch@leveldown@@@ObjectWrap@Nan@@SAPEAVBatch@leveldown@@V?$Local@VObject@v8@@@v8@@@Z 0000000180002d60 f i batch.obj
 0001:00001d60       ??$Unwrap@VDatabase@leveldown@@@ObjectWrap@Nan@@SAPEAVDatabase@leveldown@@V?$Local@VObject@v8@@@v8@@@Z 0000000180002d60 f i batch.obj
 0001:00001de0       ??4Status@leveldb@@QEAAXAEBV01@@Z 0000000180002de0 f i batch_async.obj
 0001:00001e50       ?Call_@Callback@Nan@@AEBA?AV?$Local@VValue@v8@@@v8@@PEAVIsolate@4@V?$Local@VObject@v8@@@4@HQEAV34@@Z 0000000180002e50 f i batch_async.obj
 0001:00001f20       ??0AsyncWorker@Nan@@QEAA@PEAVCallback@1@@Z 0000000180002f20 f i batch_async.obj
 0001:00001fe0       ??1AsyncWorker@Nan@@UEAA@XZ 0000000180002fe0 f i batch_async.obj
 0001:000020b0       ?WorkComplete@AsyncWorker@Nan@@UEAAXXZ 00000001800030b0 f i batch_async.obj
 0001:00002150       ?Destroy@AsyncWorker@Nan@@UEAAXXZ 0000000180003150 f i batch_async.obj
 0001:00002170       ?HandleOKCallback@AsyncWorker@Nan@@MEAAXXZ 0000000180003170 f i batch_async.obj
 0001:000021d0       ?HandleErrorCallback@AsyncWorker@Nan@@MEAAXXZ 00000001800031d0 f i batch_async.obj
 0001:000022b0       ??_GAsyncWorker@Nan@@UEAAPEAXI@Z 00000001800032b0 f i batch_async.obj
 0001:000022b0       ??_EAsyncWorker@Nan@@UEAAPEAXI@Z 00000001800032b0 f i * CIL library *:* CIL module *
 0001:000022e0       ?SetStatus@AsyncWorker@leveldown@@IEAAXVStatus@leveldb@@@Z 00000001800032e0 f i batch_async.obj
 0001:00002410       ??_GAsyncWorker@leveldown@@UEAAPEAXI@Z 0000000180003410 f i batch_async.obj
 0001:00002410       ??_EAsyncWorker@leveldown@@UEAAPEAXI@Z 0000000180003410 f i * CIL library *:* CIL module *
 0001:00002460       ??1AsyncWorker@leveldown@@UEAA@XZ 0000000180003460 f i batch_async.obj
 0001:00002490       ??_GBatchWriteWorker@leveldown@@UEAAPEAXI@Z 0000000180003490 f i batch_async.obj
 0001:00002490       ??_EBatchWriteWorker@leveldown@@UEAAPEAXI@Z 0000000180003490 f i * CIL library *:* CIL module *
 0001:000024f0       ?Execute@BatchWriteWorker@leveldown@@UEAAXXZ 00000001800034f0 f   batch_async.obj
 0001:00002530       ?ThrowError@Nan@@YAXPEBD@Z 0000000180003530 f i database.obj
 0001:000025d0       ??0Utf8String@Nan@@QEAA@V?$Local@VValue@v8@@@v8@@@Z 00000001800035d0 f i database.obj
 0001:000026c0       ??1Utf8String@Nan@@QEAA@XZ 00000001800036c0 f i database.obj
 0001:000026e0       ?UInt32OptionValue@leveldown@@YAIV?$Local@VObject@v8@@@v8@@PEBDI@Z 00000001800036e0 f i database.obj
 0001:000027d0       ??_EDatabase@leveldown@@UEAAPEAXI@Z 00000001800037d0 f i * CIL library *:* CIL module *
 0001:000027d0       ??_GDatabase@leveldown@@UEAAPEAXI@Z 00000001800037d0 f i database.obj
 0001:00002800       ??1?$map@IPEAVIterator@leveldown@@U?$less@I@std@@V?$allocator@U?$pair@$$CBIPEAVIterator@leveldown@@@std@@@4@@std@@QEAA@XZ 0000000180003800 f i database.obj
 0001:00002800       ??1?$set@_KU?$less@_K@std@@V?$allocator@_K@2@@std@@QEAA@XZ 0000000180003800 f i leveldb:db_impl.obj
 0001:00002840       ??1Database@leveldown@@UEAA@XZ 0000000180003840 f   database.obj
 0001:000028e0       ?OpenDatabase@Database@leveldown@@QEAA?AVStatus@leveldb@@PEAUOptions@4@@Z 00000001800038e0 f   database.obj
 0001:000029c0       ?PutToDatabase@Database@leveldown@@QEAA?AVStatus@leveldb@@PEAUWriteOptions@4@VSlice@4@1@Z 00000001800039c0 f   database.obj
 0001:00002a10       ?GetFromDatabase@Database@leveldown@@QEAA?AVStatus@leveldb@@PEAUReadOptions@4@VSlice@4@AEAV?$basic_string@DU?$char_traits@D@std@@V?$allocator@D@2@@std@@@Z 0000000180003a10 f   database.obj
 0001:00002a60       ?DeleteFromDatabase@Database@leveldown@@QEAA?AVStatus@leveldb@@PEAUWriteOptions@4@VSlice@4@@Z 0000000180003a60 f   database.obj
 0001:00002aa0       ?WriteBatchToDatabase@Database@leveldown@@QEAA?AVStatus@leveldb@@PEAUWriteOptions@4@PEAVWriteBatch@4@@Z 0000000180003aa0 f   database.obj
 0001:00002ae0       ?LevelDOWN@leveldown@@YAXAEBV?$FunctionCallbackInfo@VValue@v8@@@Nan@@@Z 0000000180003ae0 f   database.obj
 0001:00002b40       ?Init@Database@leveldown@@SAXXZ 0000000180003b40 f   database.obj
 0001:00002ce0       ?New@Database@leveldown@@CAXAEBV?$FunctionCallbackInfo@VValue@v8@@@Nan@@@Z 0000000180003ce0 f   database.obj
 0001:00002df0       ?NewInstance@Database@leveldown@@SA?AV?$Local@VValue@v8@@@v8@@AEAV?$Local@VString@v8@@@4@@Z 0000000180003df0 f   database.obj
 0001:00002eb0       ?Open@Database@leveldown@@CAXAEBV?$FunctionCallbackInfo@VValue@v8@@@Nan@@@Z 0000000180003eb0 f   database.obj
 0001:00003250       ?Close@Database@leveldown@@CAXAEBV?$FunctionCallbackInfo@VValue@v8@@@Nan@@@Z 0000000180004250 f   database.obj
 0001:000035b0       ?Put@Database@leveldown@@CAXAEBV?$FunctionCallbackInfo@VValue@v8@@@Nan@@@Z 00000001800045b0 f   database.obj
 0001:00003b10       ?Get@Database@leveldown@@CAXAEBV?$FunctionCallbackInfo@VValue@v8@@@Nan@@@Z 0000000180004b10 f   database.obj
 0001:00003eb0       ?Delete@Database@leveldown@@CAXAEBV?$FunctionCallbackInfo@VValue@v8@@@Nan@@@Z 0000000180004eb0 f   database.obj
 0001:00004230       ?Batch@Database@leveldown@@CAXAEBV?$FunctionCallbackInfo@VValue@v8@@@Nan@@@Z 0000000180005230 f   database.obj
 0001:00004cb0       ?ApproximateSize@Database@leveldown@@CAXAEBV?$FunctionCallbackInfo@VValue@v8@@@Nan@@@Z 0000000180005cb0 f   database.obj
 0001:000050c0       ?GetProperty@Database@leveldown@@CAXAEBV?$FunctionCallbackInfo@VValue@v8@@@Nan@@@Z 00000001800060c0 f   database.obj
 0001:00005300       ?Iterator@Database@leveldown@@CAXAEBV?$FunctionCallbackInfo@VValue@v8@@@Nan@@@Z 0000000180006300 f   database.obj
 0001:000054d0       ??0?$basic_string@DU?$char_traits@D@std@@V?$allocator@D@2@@std@@QEAA@XZ 00000001800064d0 f i database.obj
 0001:000054f0       ??0?$map@IPEAVIterator@leveldown@@U?$less@I@std@@V?$allocator@U?$pair@$$CBIPEAVIterator@leveldown@@@std@@@4@@std@@QEAA@XZ 00000001800064f0 f i database.obj
 0001:00005570       ??1?$_Tree@V?$_Tset_traits@PEAUFileMetaData@leveldb@@UBySmallestKey@Builder@VersionSet@2@V?$allocator@PEAUFileMetaData@leveldb@@@std@@$0A@@std@@@std@@QEAA@XZ 0000000180006570 f i leveldb:version_set.obj
 0001:00005570       ??1?$_Tree@V?$_Tset_traits@_KU?$less@_K@std@@V?$allocator@_K@2@$0A@@std@@@std@@QEAA@XZ 0000000180006570 f i leveldb:db_impl.obj
 0001:00005570       ??1?$_Tree@V?$_Tmap_traits@IPEAVIterator@leveldown@@U?$less@I@std@@V?$allocator@U?$pair@$$CBIPEAVIterator@leveldown@@@std@@@4@$0A@@std@@@std@@QEAA@XZ 0000000180006570 f i database.obj
 0001:000055b0       ?erase@?$_Tree@V?$_Tmap_traits@IPEAVIterator@leveldown@@U?$less@I@std@@V?$allocator@U?$pair@$$CBIPEAVIterator@leveldown@@@std@@@4@$0A@@std@@@std@@QEAA_KAEBI@Z 00000001800065b0 f i database.obj
 0001:000056c0       ??1?$_Tree_comp@$00V?$_Tset_traits@PEAUFileMetaData@leveldb@@UBySmallestKey@Builder@VersionSet@2@V?$allocator@PEAUFileMetaData@leveldb@@@std@@$0A@@std@@@std@@QEAA@XZ 00000001800066c0 f i leveldb:version_set.obj
 0001:000056c0       ??1?$_Tree_comp@$0A@V?$_Tmap_traits@IPEAVIterator@leveldown@@U?$less@I@std@@V?$allocator@U?$pair@$$CBIPEAVIterator@leveldown@@@std@@@4@$0A@@std@@@std@@QEAA@XZ 00000001800066c0 f i database.obj
 0001:000056c0       ??1?$_Tree_comp@$0A@V?$_Tset_traits@U?$pair@H_K@std@@U?$less@U?$pair@H_K@std@@@2@V?$allocator@U?$pair@H_K@std@@@2@$0A@@std@@@std@@QEAA@XZ 00000001800066c0 f i leveldb:db_impl.obj
 0001:000056c0       ??1?$_Tree_comp@$0A@V?$_Tset_traits@_KU?$less@_K@std@@V?$allocator@_K@2@$0A@@std@@@std@@QEAA@XZ 00000001800066c0 f i leveldb:db_impl.obj
 0001:000056e0       ??1?$_Tree_buy@U?$pair@$$CBIPEAVIterator@leveldown@@@std@@V?$allocator@U?$pair@$$CBIPEAVIterator@leveldown@@@std@@@2@@std@@QEAA@XZ 00000001800066e0 f i database.obj
 0001:000056e0       ??1?$_Tree_buy@PEAUFileMetaData@leveldb@@V?$allocator@PEAUFileMetaData@leveldb@@@std@@@std@@QEAA@XZ 00000001800066e0 f i leveldb:version_set.obj
 0001:000056e0       ??1?$_Tree_buy@_KV?$allocator@_K@std@@@std@@QEAA@XZ 00000001800066e0 f i leveldb:db_impl.obj
 0001:000056e0       ??1?$_Tree_buy@U?$pair@H_K@std@@V?$allocator@U?$pair@H_K@std@@@2@@std@@QEAA@XZ 00000001800066e0 f i leveldb:db_impl.obj
 0001:00005700       ?erase@?$_Tree@V?$_Tset_traits@PEAUFileMetaData@leveldb@@UBySmallestKey@Builder@VersionSet@2@V?$allocator@PEAUFileMetaData@leveldb@@@std@@$0A@@std@@@std@@QEAA?AV?$_Tree_const_iterator@V?$_Tree_val@U?$_Tree_simple_types@PEAUFileMetaData@leveldb@@@std@@@std@@@2@V32@0@Z 0000000180006700 f i leveldb:version_set.obj
 0001:00005700       ?erase@?$_Tree@V?$_Tmap_traits@IPEAVIterator@leveldown@@U?$less@I@std@@V?$allocator@U?$pair@$$CBIPEAVIterator@leveldown@@@std@@@4@$0A@@std@@@std@@QEAA?AV?$_Tree_iterator@V?$_Tree_val@U?$_Tree_simple_types@U?$pair@$$CBIPEAVIterator@leveldown@@@std@@@std@@@std@@@2@V?$_Tree_const_iterator@V?$_Tree_val@U?$_Tree_simple_types@U?$pair@$$CBIPEAVIterator@leveldown@@@std@@@std@@@std@@@2@0@Z 0000000180006700 f i database.obj
 0001:00005700       ?erase@?$_Tree@V?$_Tset_traits@_KU?$less@_K@std@@V?$allocator@_K@2@$0A@@std@@@std@@QEAA?AV?$_Tree_const_iterator@V?$_Tree_val@U?$_Tree_simple_types@_K@std@@@std@@@2@V32@0@Z 0000000180006700 f i leveldb:db_impl.obj
 0001:00005830       ??1?$_Tree_alloc@$0A@U?$_Tree_base_types@PEAUFileMetaData@leveldb@@V?$allocator@PEAUFileMetaData@leveldb@@@std@@@std@@@std@@QEAA@XZ 0000000180006830 f i leveldb:version_set.obj
 0001:00005830       ??1?$_Tree_alloc@$0A@U?$_Tree_base_types@_KV?$allocator@_K@std@@@std@@@std@@QEAA@XZ 0000000180006830 f i leveldb:db_impl.obj
 0001:00005830       ??1?$_Tree_alloc@$0A@U?$_Tree_base_types@U?$pair@H_K@std@@V?$allocator@U?$pair@H_K@std@@@2@@std@@@std@@QEAA@XZ 0000000180006830 f i leveldb:db_impl.obj
 0001:00005830       ??1?$_Tree_alloc@$0A@U?$_Tree_base_types@U?$pair@$$CBIPEAVIterator@leveldown@@@std@@V?$allocator@U?$pair@$$CBIPEAVIterator@leveldown@@@std@@@2@@std@@@std@@QEAA@XZ 0000000180006830 f i database.obj
 0001:00005840       ?erase@?$_Tree@V?$_Tset_traits@_KU?$less@_K@std@@V?$allocator@_K@2@$0A@@std@@@std@@QEAA?AV?$_Tree_const_iterator@V?$_Tree_val@U?$_Tree_simple_types@_K@std@@@std@@@2@V32@@Z 0000000180006840 f i leveldb:db_impl.obj
 0001:00005840       ?erase@?$_Tree@V?$_Tset_traits@PEAUFileMetaData@leveldb@@UBySmallestKey@Builder@VersionSet@2@V?$allocator@PEAUFileMetaData@leveldb@@@std@@$0A@@std@@@std@@QEAA?AV?$_Tree_const_iterator@V?$_Tree_val@U?$_Tree_simple_types@PEAUFileMetaData@leveldb@@@std@@@std@@@2@V32@@Z 0000000180006840 f i leveldb:version_set.obj
 0001:00005840       ?erase@?$_Tree@V?$_Tmap_traits@IPEAVIterator@leveldown@@U?$less@I@std@@V?$allocator@U?$pair@$$CBIPEAVIterator@leveldown@@@std@@@4@$0A@@std@@@std@@QEAA?AV?$_Tree_iterator@V?$_Tree_val@U?$_Tree_simple_types@U?$pair@$$CBIPEAVIterator@leveldown@@@std@@@std@@@std@@@2@V?$_Tree_const_iterator@V?$_Tree_val@U?$_Tree_simple_types@U?$pair@$$CBIPEAVIterator@leveldown@@@std@@@std@@@std@@@2@@Z 0000000180006840 f i database.obj
 0001:00005840       ?erase@?$_Tree@V?$_Tset_traits@U?$pair@H_K@std@@U?$less@U?$pair@H_K@std@@@2@V?$allocator@U?$pair@H_K@std@@@2@$0A@@std@@@std@@QEAA?AV?$_Tree_const_iterator@V?$_Tree_val@U?$_Tree_simple_types@U?$pair@H_K@std@@@std@@@std@@@2@V32@@Z 0000000180006840 f i leveldb:db_impl.obj
 0001:00005c60       ?_Erase@?$_Tree@V?$_Tset_traits@U?$pair@H_K@std@@U?$less@U?$pair@H_K@std@@@2@V?$allocator@U?$pair@H_K@std@@@2@$0A@@std@@@std@@IEAAXPEAU?$_Tree_node@U?$pair@H_K@std@@PEAX@2@@Z 0000000180006c60 f i leveldb:db_impl.obj
 0001:00005c60       ?_Erase@?$_Tree@V?$_Tset_traits@_KU?$less@_K@std@@V?$allocator@_K@2@$0A@@std@@@std@@IEAAXPEAU?$_Tree_node@_KPEAX@2@@Z 0000000180006c60 f i leveldb:db_impl.obj
 0001:00005c60       ?_Erase@?$_Tree@V?$_Tset_traits@PEAUFileMetaData@leveldb@@UBySmallestKey@Builder@VersionSet@2@V?$allocator@PEAUFileMetaData@leveldb@@@std@@$0A@@std@@@std@@IEAAXPEAU?$_Tree_node@PEAUFileMetaData@leveldb@@PEAX@2@@Z 0000000180006c60 f i leveldb:version_set.obj
 0001:00005c60       ?_Erase@?$_Tree@V?$_Tmap_traits@IPEAVIterator@leveldown@@U?$less@I@std@@V?$allocator@U?$pair@$$CBIPEAVIterator@leveldown@@@std@@@4@$0A@@std@@@std@@IEAAXPEAU?$_Tree_node@U?$pair@$$CBIPEAVIterator@leveldown@@@std@@PEAX@2@@Z 0000000180006c60 f i database.obj
 0001:00005cb0       ?_Lrotate@?$_Tree@V?$_Tmap_traits@IPEAVIterator@leveldown@@U?$less@I@std@@V?$allocator@U?$pair@$$CBIPEAVIterator@leveldown@@@std@@@4@$0A@@std@@@std@@IEAAXPEAU?$_Tree_node@U?$pair@$$CBIPEAVIterator@leveldown@@@std@@PEAX@2@@Z 0000000180006cb0 f i database.obj
 0001:00005cb0       ?_Lrotate@?$_Tree@V?$_Tset_traits@_KU?$less@_K@std@@V?$allocator@_K@2@$0A@@std@@@std@@IEAAXPEAU?$_Tree_node@_KPEAX@2@@Z 0000000180006cb0 f i leveldb:db_impl.obj
 0001:00005cb0       ?_Lrotate@?$_Tree@V?$_Tset_traits@U?$pair@H_K@std@@U?$less@U?$pair@H_K@std@@@2@V?$allocator@U?$pair@H_K@std@@@2@$0A@@std@@@std@@IEAAXPEAU?$_Tree_node@U?$pair@H_K@std@@PEAX@2@@Z 0000000180006cb0 f i leveldb:db_impl.obj
 0001:00005cb0       ?_Lrotate@?$_Tree@V?$_Tset_traits@PEAUFileMetaData@leveldb@@UBySmallestKey@Builder@VersionSet@2@V?$allocator@PEAUFileMetaData@leveldb@@@std@@$0A@@std@@@std@@IEAAXPEAU?$_Tree_node@PEAUFileMetaData@leveldb@@PEAX@2@@Z 0000000180006cb0 f i leveldb:version_set.obj
 0001:00005d10       ?_Rrotate@?$_Tree@V?$_Tset_traits@PEAUFileMetaData@leveldb@@UBySmallestKey@Builder@VersionSet@2@V?$allocator@PEAUFileMetaData@leveldb@@@std@@$0A@@std@@@std@@IEAAXPEAU?$_Tree_node@PEAUFileMetaData@leveldb@@PEAX@2@@Z 0000000180006d10 f i leveldb:version_set.obj
 0001:00005d10       ?_Rrotate@?$_Tree@V?$_Tset_traits@_KU?$less@_K@std@@V?$allocator@_K@2@$0A@@std@@@std@@IEAAXPEAU?$_Tree_node@_KPEAX@2@@Z 0000000180006d10 f i leveldb:db_impl.obj
 0001:00005d10       ?_Rrotate@?$_Tree@V?$_Tset_traits@U?$pair@H_K@std@@U?$less@U?$pair@H_K@std@@@2@V?$allocator@U?$pair@H_K@std@@@2@$0A@@std@@@std@@IEAAXPEAU?$_Tree_node@U?$pair@H_K@std@@PEAX@2@@Z 0000000180006d10 f i leveldb:db_impl.obj
 0001:00005d10       ?_Rrotate@?$_Tree@V?$_Tmap_traits@IPEAVIterator@leveldown@@U?$less@I@std@@V?$allocator@U?$pair@$$CBIPEAVIterator@leveldown@@@std@@@4@$0A@@std@@@std@@IEAAXPEAU?$_Tree_node@U?$pair@$$CBIPEAVIterator@leveldown@@@std@@PEAX@2@@Z 0000000180006d10 f i database.obj
 0001:00005d70       ??$_Insert_hint@AEAU?$pair@$$CBIPEAVIterator@leveldown@@@std@@PEAU?$_Tree_node@U?$pair@$$CBIPEAVIterator@leveldown@@@std@@PEAX@2@@?$_Tree@V?$_Tmap_traits@IPEAVIterator@leveldown@@U?$less@I@std@@V?$allocator@U?$pair@$$CBIPEAVIterator@leveldown@@@std@@@4@$0A@@std@@@std@@IEAA?AV?$_Tree_iterator@V?$_Tree_val@U?$_Tree_simple_types@U?$pair@$$CBIPEAVIterator@leveldown@@@std@@@std@@@std@@@1@V?$_Tree_const_iterator@V?$_Tree_val@U?$_Tree_simple_types@U?$pair@$$CBIPEAVIterator@leveldown@@@std@@@std@@@std@@@1@AEAU?$pair@$$CBIPEAVIterator@leveldown@@@1@PEAU?$_Tree_node@U?$pair@$$CBIPEAVIterator@leveldown@@@std@@PEAX@1@@Z 0000000180006d70 f i database.obj
 0001:00005fc0       ?_Buynode0@?$_Tree_buy@U?$pair@$$CBIPEAVIterator@leveldown@@@std@@V?$allocator@U?$pair@$$CBIPEAVIterator@leveldown@@@std@@@2@@std@@QEAAPEAU?$_Tree_node@U?$pair@$$CBIPEAVIterator@leveldown@@@std@@PEAX@2@XZ 0000000180006fc0 f i database.obj
 0001:00005fc0       ?_Buynode0@?$_Tree_buy@U?$pair@H_K@std@@V?$allocator@U?$pair@H_K@std@@@2@@std@@QEAAPEAU?$_Tree_node@U?$pair@H_K@std@@PEAX@2@XZ 0000000180006fc0 f i leveldb:db_impl.obj
 0001:00006040       ??$_Insert_at@AEAU?$pair@$$CBIPEAVIterator@leveldown@@@std@@PEAU?$_Tree_node@U?$pair@$$CBIPEAVIterator@leveldown@@@std@@PEAX@2@@?$_Tree@V?$_Tmap_traits@IPEAVIterator@leveldown@@U?$less@I@std@@V?$allocator@U?$pair@$$CBIPEAVIterator@leveldown@@@std@@@4@$0A@@std@@@std@@IEAA?AV?$_Tree_iterator@V?$_Tree_val@U?$_Tree_simple_types@U?$pair@$$CBIPEAVIterator@leveldown@@@std@@@std@@@std@@@1@_NPEAU?$_Tree_node@U?$pair@$$CBIPEAVIterator@leveldown@@@std@@PEAX@1@AEAU?$pair@$$CBIPEAVIterator@leveldown@@@1@1@Z 0000000180007040 f i database.obj
 0001:000062e0       ??$_Insert_nohint@AEAU?$pair@$$CBIPEAVIterator@leveldown@@@std@@PEAU?$_Tree_node@U?$pair@$$CBIPEAVIterator@leveldown@@@std@@PEAX@2@@?$_Tree@V?$_Tmap_traits@IPEAVIterator@leveldown@@U?$less@I@std@@V?$allocator@U?$pair@$$CBIPEAVIterator@leveldown@@@std@@@4@$0A@@std@@@std@@IEAA?AU?$pair@V?$_Tree_iterator@V?$_Tree_val@U?$_Tree_simple_types@U?$pair@$$CBIPEAVIterator@leveldown@@@std@@@std@@@std@@@std@@_N@1@_NAEAU?$pair@$$CBIPEAVIterator@leveldown@@@1@PEAU?$_Tree_node@U?$pair@$$CBIPEAVIterator@leveldown@@@std@@PEAX@1@@Z 00000001800072e0 f i database.obj
 0001:00006400       ?GetFromPersistent@AsyncWorker@Nan@@QEBA?AV?$Local@VValue@v8@@@v8@@PEBD@Z 0000000180007400 f i database_async.obj
 0001:000064e0       ??0OpenWorker@leveldown@@QEAA@PEAVDatabase@1@PEAVCallback@Nan@@PEAVCache@leveldb@@PEBVFilterPolicy@6@_N44IIII@Z 00000001800074e0 f   database_async.obj
 0001:00006600       ??_EOpenWorker@leveldown@@UEAAPEAXI@Z 0000000180007600 f i * CIL library *:* CIL module *
 0001:00006600       ??_GOpenWorker@leveldown@@UEAAPEAXI@Z 0000000180007600 f i database_async.obj
 0001:00006670       ?Execute@OpenWorker@leveldown@@UEAAXXZ 0000000180007670 f   database_async.obj
 0001:000066c0       ??_GCloseWorker@leveldown@@UEAAPEAXI@Z 00000001800076c0 f i database_async.obj
 0001:000066c0       ??_ECloseWorker@leveldown@@UEAAPEAXI@Z 00000001800076c0 f i * CIL library *:* CIL module *
 0001:00006720       ?Execute@CloseWorker@leveldown@@UEAAXXZ 0000000180007720 f   database_async.obj
 0001:00006790       ?WorkComplete@CloseWorker@leveldown@@UEAAXXZ 0000000180007790 f   database_async.obj
 0001:00006820       ??0IOWorker@leveldown@@QEAA@PEAVDatabase@1@PEAVCallback@Nan@@VSlice@leveldb@@AEAV?$Local@VObject@v8@@@v8@@@Z 0000000180007820 f   database_async.obj
 0001:00006960       ??_GIOWorker@leveldown@@UEAAPEAXI@Z 0000000180007960 f i database_async.obj
 0001:00006960       ??_EIOWorker@leveldown@@UEAAPEAXI@Z 0000000180007960 f i * CIL library *:* CIL module *
 0001:000069c0       ??1IOWorker@leveldown@@UEAA@XZ 00000001800079c0 f   database_async.obj
 0001:00006a00       ?WorkComplete@IOWorker@leveldown@@UEAAXXZ 0000000180007a00 f   database_async.obj
 0001:00006aa0       ??0ReadWorker@leveldown@@QEAA@PEAVDatabase@1@PEAVCallback@Nan@@VSlice@leveldb@@_N3AEAV?$Local@VObject@v8@@@v8@@@Z 0000000180007aa0 f   database_async.obj
 0001:00006c30       ??_EReadWorker@leveldown@@UEAAPEAXI@Z 0000000180007c30 f i * CIL library *:* CIL module *
 0001:00006c30       ??_GReadWorker@leveldown@@UEAAPEAXI@Z 0000000180007c30 f i database_async.obj
 0001:00006c60       ??1ReadWorker@leveldown@@UEAA@XZ 0000000180007c60 f   database_async.obj
 0001:00006cf0       ?Execute@ReadWorker@leveldown@@UEAAXXZ 0000000180007cf0 f   database_async.obj
 0001:00006d60       ?HandleOKCallback@ReadWorker@leveldown@@UEAAXXZ 0000000180007d60 f   database_async.obj
 0001:00006ed0       ??0DeleteWorker@leveldown@@QEAA@PEAVDatabase@1@PEAVCallback@Nan@@VSlice@leveldb@@_NAEAV?$Local@VObject@v8@@@v8@@@Z 0000000180007ed0 f   database_async.obj
 0001:00007030       ??_GDeleteWorker@leveldown@@UEAAPEAXI@Z 0000000180008030 f i database_async.obj
 0001:00007030       ??_EDeleteWorker@leveldown@@UEAAPEAXI@Z 0000000180008030 f i * CIL library *:* CIL module *
 0001:000070a0       ??1DeleteWorker@leveldown@@UEAA@XZ 00000001800080a0 f   database_async.obj
 0001:00007100       ?Execute@DeleteWorker@leveldown@@UEAAXXZ 0000000180008100 f   database_async.obj
 0001:00007160       ??_GWriteWorker@leveldown@@UEAAPEAXI@Z 0000000180008160 f i database_async.obj
 0001:00007160       ??_EWriteWorker@leveldown@@UEAAPEAXI@Z 0000000180008160 f i * CIL library *:* CIL module *
 0001:000071e0       ?Execute@WriteWorker@leveldown@@UEAAXXZ 00000001800081e0 f   database_async.obj
 0001:00007250       ?WorkComplete@WriteWorker@leveldown@@UEAAXXZ 0000000180008250 f   database_async.obj
 0001:000072f0       ??0BatchWorker@leveldown@@QEAA@PEAVDatabase@1@PEAVCallback@Nan@@PEAVWriteBatch@leveldb@@_N@Z 00000001800082f0 f   database_async.obj
 0001:00007390       ??_GBatchWorker@leveldown@@UEAAPEAXI@Z 0000000180008390 f i database_async.obj
 0001:00007390       ??_EBatchWorker@leveldown@@UEAAPEAXI@Z 0000000180008390 f i * CIL library *:* CIL module *
 0001:000073c0       ??1BatchWorker@leveldown@@UEAA@XZ 00000001800083c0 f   database_async.obj
 0001:00007450       ?Execute@BatchWorker@leveldown@@UEAAXXZ 0000000180008450 f   database_async.obj
 0001:000074a0       ??0ApproximateSizeWorker@leveldown@@QEAA@PEAVDatabase@1@PEAVCallback@Nan@@VSlice@leveldb@@2AEAV?$Local@VObject@v8@@@v8@@3@Z 00000001800084a0 f   database_async.obj
 0001:000076a0       ??_EApproximateSizeWorker@leveldown@@UEAAPEAXI@Z 00000001800086a0 f i * CIL library *:* CIL module *
 0001:000076a0       ??_GApproximateSizeWorker@leveldown@@UEAAPEAXI@Z 00000001800086a0 f i database_async.obj
 0001:00007700       ?Execute@ApproximateSizeWorker@leveldown@@UEAAXXZ 0000000180008700 f   database_async.obj
 0001:00007740       ?WorkComplete@ApproximateSizeWorker@leveldown@@UEAAXXZ 0000000180008740 f   database_async.obj
 0001:00007830       ?HandleOKCallback@ApproximateSizeWorker@leveldown@@UEAAXXZ 0000000180008830 f   database_async.obj
 0001:00007930       ?ToString@Slice@leveldb@@QEBA?AV?$basic_string@DU?$char_traits@D@std@@V?$allocator@D@2@@std@@XZ 0000000180008930 f i iterator.obj
 0001:00007a30       ??0Iterator@leveldown@@QEAA@PEAVDatabase@1@IPEAVSlice@leveldb@@PEAV?$basic_string@DU?$char_traits@D@std@@V?$allocator@D@2@@std@@_N33H2222333_K@Z 0000000180008a30 f   iterator.obj
 0001:00007ba0       ??_EIterator@leveldown@@UEAAPEAXI@Z 0000000180008ba0 f i * CIL library *:* CIL module *
 0001:00007ba0       ??_GIterator@leveldown@@UEAAPEAXI@Z 0000000180008ba0 f i iterator.obj
 0001:00007bd0       ??1Iterator@leveldown@@UEAA@XZ 0000000180008bd0 f   iterator.obj
 0001:00007d60       ?GetIterator@Iterator@leveldown@@AEAA_NXZ 0000000180008d60 f   iterator.obj
 0001:00007ff0       ?Read@Iterator@leveldown@@AEAA_NAEAV?$basic_string@DU?$char_traits@D@std@@V?$allocator@D@2@@std@@0@Z 0000000180008ff0 f   iterator.obj
 0001:000082b0       ?IteratorNext@Iterator@leveldown@@QEAA_NAEAV?$vector@U?$pair@V?$basic_string@DU?$char_traits@D@std@@V?$allocator@D@2@@std@@V12@@std@@V?$allocator@U?$pair@V?$basic_string@DU?$char_traits@D@std@@V?$allocator@D@2@@std@@V12@@std@@@2@@std@@@Z 00000001800092b0 f   iterator.obj
 0001:00008460       ??1?$pair@V?$basic_string@DU?$char_traits@D@std@@V?$allocator@D@2@@std@@V12@@std@@QEAA@XZ 0000000180009460 f i iterator.obj
 0001:000084d0       ?IteratorStatus@Iterator@leveldown@@QEAA?AVStatus@leveldb@@XZ 00000001800094d0 f   iterator.obj
 0001:00008510       ?checkEndCallback@leveldown@@YAXPEAVIterator@1@@Z 0000000180009510 f   iterator.obj
 0001:00008570       ?Seek@Iterator@leveldown@@CAXAEBV?$FunctionCallbackInfo@VValue@v8@@@Nan@@@Z 0000000180009570 f   iterator.obj
 0001:000087b0       ?Next@Iterator@leveldown@@CAXAEBV?$FunctionCallbackInfo@VValue@v8@@@Nan@@@Z 00000001800097b0 f   iterator.obj
 0001:00008990       ?End@Iterator@leveldown@@CAXAEBV?$FunctionCallbackInfo@VValue@v8@@@Nan@@@Z 0000000180009990 f   iterator.obj
 0001:00008b10       ?Init@Iterator@leveldown@@SAXXZ 0000000180009b10 f   iterator.obj
 0001:00008c20       ?NewInstance@Iterator@leveldown@@SA?AV?$Local@VObject@v8@@@v8@@V34@V?$Local@VNumber@v8@@@4@0@Z 0000000180009c20 f   iterator.obj
 0001:00008d40       ?New@Iterator@leveldown@@CAXAEBV?$FunctionCallbackInfo@VValue@v8@@@Nan@@@Z 0000000180009d40 f   iterator.obj
 0001:0000a0d0       ?compare@?$basic_string@DU?$char_traits@D@std@@V?$allocator@D@2@@std@@QEBAHAEBV12@@Z 000000018000b0d0 f i iterator.obj
 0001:0000a150       ?push_back@?$vector@U?$pair@V?$basic_string@DU?$char_traits@D@std@@V?$allocator@D@2@@std@@V12@@std@@V?$allocator@U?$pair@V?$basic_string@DU?$char_traits@D@std@@V?$allocator@D@2@@std@@V12@@std@@@2@@std@@QEAAX$$QEAU?$pair@V?$basic_string@DU?$char_traits@D@std@@V?$allocator@D@2@@std@@V12@@2@@Z 000000018000b150 f i iterator.obj
 0001:0000a270       ?_Assign_rv@?$basic_string@DU?$char_traits@D@std@@V?$allocator@D@2@@std@@QEAAX$$QEAV12@@Z 000000018000b270 f i iterator.obj
 0001:0000a2f0       ?_Reserve@?$vector@U?$pair@V?$basic_string@DU?$char_traits@D@std@@V?$allocator@D@2@@std@@V12@@std@@V?$allocator@U?$pair@V?$basic_string@DU?$char_traits@D@std@@V?$allocator@D@2@@std@@V12@@std@@@2@@std@@IEAAX_K@Z 000000018000b2f0 f i iterator.obj
 0001:0000a380       ?_Reallocate@?$vector@U?$pair@V?$basic_string@DU?$char_traits@D@std@@V?$allocator@D@2@@std@@V12@@std@@V?$allocator@U?$pair@V?$basic_string@DU?$char_traits@D@std@@V?$allocator@D@2@@std@@V12@@std@@@2@@std@@IEAAX_K@Z 000000018000b380 f i iterator.obj
 0001:0000a430       ?_Destroy@?$vector@U?$pair@V?$basic_string@DU?$char_traits@D@std@@V?$allocator@D@2@@std@@V12@@std@@V?$allocator@U?$pair@V?$basic_string@DU?$char_traits@D@std@@V?$allocator@D@2@@std@@V12@@std@@@2@@std@@IEAAXPEAU?$pair@V?$basic_string@DU?$char_traits@D@std@@V?$allocator@D@2@@std@@V12@@2@0@Z 000000018000b430 f i iterator.obj
 0001:0000a4c0       ??$make_pair@AEAV?$basic_string@DU?$char_traits@D@std@@V?$allocator@D@2@@std@@AEAV12@@std@@YA?AU?$pair@V?$basic_string@DU?$char_traits@D@std@@V?$allocator@D@2@@std@@V12@@0@AEAV?$basic_string@DU?$char_traits@D@std@@V?$allocator@D@2@@0@0@Z 000000018000b4c0 f i iterator.obj
 0001:0000a550       ??$_Uninit_move@PEAU?$pair@V?$basic_string@DU?$char_traits@D@std@@V?$allocator@D@2@@std@@V12@@std@@PEAU12@V?$allocator@U?$pair@V?$basic_string@DU?$char_traits@D@std@@V?$allocator@D@2@@std@@V12@@std@@@2@U12@@std@@YAPEAU?$pair@V?$basic_string@DU?$char_traits@D@std@@V?$allocator@D@2@@std@@V12@@0@PEAU10@00AEAU?$_Wrap_alloc@V?$allocator@U?$pair@V?$basic_string@DU?$char_traits@D@std@@V?$allocator@D@2@@std@@V12@@std@@@std@@@0@0U_Nonscalar_ptr_iterator_tag@0@@Z 000000018000b550 f i iterator.obj
 0001:0000a690       ??0NextWorker@leveldown@@QEAA@PEAVIterator@1@PEAVCallback@Nan@@P6AX0@Z@Z 000000018000b690 f   iterator_async.obj
 0001:0000a720       ??_ENextWorker@leveldown@@UEAAPEAXI@Z 000000018000b720 f i * CIL library *:* CIL module *
 0001:0000a720       ??_GNextWorker@leveldown@@UEAAPEAXI@Z 000000018000b720 f i iterator_async.obj
 0001:0000a750       ??1NextWorker@leveldown@@UEAA@XZ 000000018000b750 f   iterator_async.obj
 0001:0000a7d0       ?Execute@NextWorker@leveldown@@UEAAXXZ 000000018000b7d0 f   iterator_async.obj
 0001:0000a830       ?HandleOKCallback@NextWorker@leveldown@@UEAAXXZ 000000018000b830 f   iterator_async.obj
 0001:0000ae80       ??_GEndWorker@leveldown@@UEAAPEAXI@Z 000000018000be80 f i iterator_async.obj
 0001:0000ae80       ??_EEndWorker@leveldown@@UEAAPEAXI@Z 000000018000be80 f i * CIL library *:* CIL module *
 0001:0000aee0       ?Execute@EndWorker@leveldown@@UEAAXXZ 000000018000bee0 f   iterator_async.obj
 0001:0000af30       ?HandleOKCallback@EndWorker@leveldown@@UEAAXXZ 000000018000bf30 f   iterator_async.obj
 0001:0000aff0       ??1?$vector@U?$pair@V?$basic_string@DU?$char_traits@D@std@@V?$allocator@D@2@@std@@V12@@std@@V?$allocator@U?$pair@V?$basic_string@DU?$char_traits@D@std@@V?$allocator@D@2@@std@@V12@@std@@@2@@std@@QEAA@XZ 000000018000bff0 f i iterator_async.obj
 0001:0000b030       ?DestroyDB@leveldown@@YAXAEBV?$FunctionCallbackInfo@VValue@v8@@@Nan@@@Z 000000018000c030 f   leveldown.obj
 0001:0000b280       ?RepairDB@leveldown@@YAXAEBV?$FunctionCallbackInfo@VValue@v8@@@Nan@@@Z 000000018000c280 f   leveldown.obj
 0001:0000b4d0       ?Init@leveldown@@YAXV?$Local@VObject@v8@@@v8@@@Z 000000018000c4d0 f   leveldown.obj
 0001:0000b660       ??_GDestroyWorker@leveldown@@UEAAPEAXI@Z 000000018000c660 f i leveldown_async.obj
 0001:0000b660       ??_EDestroyWorker@leveldown@@UEAAPEAXI@Z 000000018000c660 f i * CIL library *:* CIL module *
 0001:0000b690       ??1DestroyWorker@leveldown@@UEAA@XZ 000000018000c690 f   leveldown_async.obj
 0001:0000b700       ?Execute@DestroyWorker@leveldown@@UEAAXXZ 000000018000c700 f   leveldown_async.obj
 0001:0000b820       ??_GRepairWorker@leveldown@@UEAAPEAXI@Z 000000018000c820 f i leveldown_async.obj
 0001:0000b820       ??_ERepairWorker@leveldown@@UEAAPEAXI@Z 000000018000c820 f i * CIL library *:* CIL module *
 0001:0000b850       ??1RepairWorker@leveldown@@UEAA@XZ 000000018000c850 f   leveldown_async.obj
 0001:0000b8c0       ?Execute@RepairWorker@leveldown@@UEAAXXZ 000000018000c8c0 f   leveldown_async.obj
 0001:0000ba30       ?OK@Status@leveldb@@SA?AV12@XZ 000000018000ca30 f i leveldb:write_batch.obj
 0001:0000ba60       ?Corruption@Status@leveldb@@SA?AV12@AEBVSlice@2@0@Z 000000018000ca60 f i leveldb:write_batch.obj
 0001:0000bab0       ?GetVarint32Ptr@leveldb@@YAPEBDPEBD0PEAI@Z 000000018000cab0 f i leveldb:write_batch.obj
 0001:0000bb00       ??0WriteBatch@leveldb@@QEAA@XZ 000000018000cb00 f   leveldb:write_batch.obj
 0001:0000bb80       ??1InternalKey@leveldb@@QEAA@XZ 000000018000cb80 f   leveldb:db_impl.obj
 0001:0000bb80       ??1WriteBatch@leveldb@@QEAA@XZ 000000018000cb80 f   leveldb:write_batch.obj
 0001:0000bbc0       ??1SequentialFile@leveldb@@UEAA@XZ 000000018000cbc0 f   leveldb:env.obj
 0001:0000bbc0       ??1Handler@WriteBatch@leveldb@@UEAA@XZ 000000018000cbc0 f   leveldb:write_batch.obj
 0001:0000bbd0       ??_ESequentialFile@leveldb@@UEAAPEAXI@Z 000000018000cbd0 f i * CIL library *:* CIL module *
 0001:0000bbd0       ??_EHandler@WriteBatch@leveldb@@UEAAPEAXI@Z 000000018000cbd0 f i * CIL library *:* CIL module *
 0001:0000bbd0       ??_GHandler@WriteBatch@leveldb@@UEAAPEAXI@Z 000000018000cbd0 f i leveldb:write_batch.obj
 0001:0000bbd0       ??_GSequentialFile@leveldb@@UEAAPEAXI@Z 000000018000cbd0 f i leveldb:env.obj
 0001:0000bc00       ?Clear@WriteBatch@leveldb@@QEAAXXZ 000000018000cc00 f   leveldb:write_batch.obj
 0001:0000bc50       ?Iterate@WriteBatch@leveldb@@QEBA?AVStatus@2@PEAVHandler@12@@Z 000000018000cc50 f   leveldb:write_batch.obj
 0001:0000c0d0       ?Put@WriteBatch@leveldb@@QEAAXAEBVSlice@2@0@Z 000000018000d0d0 f   leveldb:write_batch.obj
 0001:0000c190       ?Put@MemTableInserter@?A0xfa83a6e3@leveldb@@UEAAXAEBVSlice@3@0@Z 000000018000d190 f i leveldb:write_batch.obj
 0001:0000c1c0       ?Delete@MemTableInserter@?A0xfa83a6e3@leveldb@@UEAAXAEBVSlice@3@@Z 000000018000d1c0 f i leveldb:write_batch.obj
 0001:0000c210       ?InsertInto@WriteBatchInternal@leveldb@@SA?AVStatus@2@PEBVWriteBatch@2@PEAVMemTable@2@@Z 000000018000d210 f   leveldb:write_batch.obj
 0001:0000c2a0       ??1MemTableInserter@?A0xfa83a6e3@leveldb@@UEAA@XZ 000000018000d2a0 f i leveldb:write_batch.obj
 0001:0000c2c0       ??_GMemTableInserter@?A0xfa83a6e3@leveldb@@UEAAPEAXI@Z 000000018000d2c0 f i leveldb:write_batch.obj
 0001:0000c2c0       ??_EMemTableInserter@?A0xfa83a6e3@leveldb@@UEAAPEAXI@Z 000000018000d2c0 f i * CIL library *:* CIL module *
 0001:0000c300       ?append@?$basic_string@DU?$char_traits@D@std@@V?$allocator@D@2@@std@@QEAAAEAV12@PEBD_K@Z 000000018000d300 f i leveldb:write_batch.obj
 0001:0000c450       ?append@?$basic_string@DU?$char_traits@D@std@@V?$allocator@D@2@@std@@QEAAAEAV12@AEBV12@_K1@Z 000000018000d450 f i leveldb:write_batch.obj
 0001:0000c580       ?append@?$basic_string@DU?$char_traits@D@std@@V?$allocator@D@2@@std@@QEAAAEAV12@_KD@Z 000000018000d580 f i leveldb:write_batch.obj
 0001:0000c6a0       ?insert@?$basic_string@DU?$char_traits@D@std@@V?$allocator@D@2@@std@@QEAAAEAV12@_K0D@Z 000000018000d6a0 f i leveldb:write_batch.obj
 0001:0000c7d0       ??0Status@leveldb@@AEAA@W4Code@01@AEBVSlice@1@1@Z 000000018000d7d0 f   leveldb:status.obj
 0001:0000c8a0       ?ToString@Status@leveldb@@QEBA?AV?$basic_string@DU?$char_traits@D@std@@V?$allocator@D@2@@std@@XZ 000000018000d8a0 f   leveldb:status.obj
 0001:0000caa0       ??_GCache@leveldb@@UEAAPEAXI@Z 000000018000daa0 f i leveldb:cache.obj
 0001:0000caa0       ??_ECache@leveldb@@UEAAPEAXI@Z 000000018000daa0 f i * CIL library *:* CIL module *
 0001:0000cad0       ??1MutexLock@leveldb@@QEAA@XZ 000000018000dad0 f i leveldb:cache.obj
 0001:0000cae0       ??1Cache@leveldb@@UEAA@XZ  000000018000dae0 f   leveldb:cache.obj
 0001:0000caf0       ??1HandleTable@?A0x90ee7a33@leveldb@@QEAA@XZ 000000018000daf0 f i leveldb:cache.obj
 0001:0000cb00       ?Insert@HandleTable@?A0x90ee7a33@leveldb@@QEAAPEAULRUHandle@23@PEAU423@@Z 000000018000db00 f i leveldb:cache.obj
 0001:0000cb90       ?FindPointer@HandleTable@?A0x90ee7a33@leveldb@@AEAAPEAPEAULRUHandle@23@AEBVSlice@3@I@Z 000000018000db90 f i leveldb:cache.obj
 0001:0000cc30       ?Resize@HandleTable@?A0x90ee7a33@leveldb@@AEAAXXZ 000000018000dc30 f i leveldb:cache.obj
 0001:0000cd30       ??0LRUCache@?A0x90ee7a33@leveldb@@QEAA@XZ 000000018000dd30 f   leveldb:cache.obj
 0001:0000cd80       ??1LRUCache@?A0x90ee7a33@leveldb@@QEAA@XZ 000000018000dd80 f   leveldb:cache.obj
 0001:0000ce80       ?Unref@LRUCache@?A0x90ee7a33@leveldb@@AEAAXPEAULRUHandle@23@@Z 000000018000de80 f   leveldb:cache.obj
 0001:0000cf00       ?Lookup@LRUCache@?A0x90ee7a33@leveldb@@QEAAPEAUHandle@Cache@3@AEBVSlice@3@I@Z 000000018000df00 f   leveldb:cache.obj
 0001:0000cfb0       ?Insert@LRUCache@?A0x90ee7a33@leveldb@@QEAAPEAUHandle@Cache@3@AEBVSlice@3@IPEAX_KP6AX01@Z@Z 000000018000dfb0 f   leveldb:cache.obj
 0001:0000d220       ?Erase@LRUCache@?A0x90ee7a33@leveldb@@QEAAXAEBVSlice@3@I@Z 000000018000e220 f   leveldb:cache.obj
 0001:0000d2c0       ??0ShardedLRUCache@?A0x90ee7a33@leveldb@@QEAA@_K@Z 000000018000e2c0 f i leveldb:cache.obj
 0001:0000d380       ?Insert@ShardedLRUCache@?A0x90ee7a33@leveldb@@UEAAPEAUHandle@Cache@3@AEBVSlice@3@PEAX_KP6AX01@Z@Z 000000018000e380 f i leveldb:cache.obj
 0001:0000d3f0       ?Lookup@ShardedLRUCache@?A0x90ee7a33@leveldb@@UEAAPEAUHandle@Cache@3@AEBVSlice@3@@Z 000000018000e3f0 f i leveldb:cache.obj
 0001:0000d440       ?Release@ShardedLRUCache@?A0x90ee7a33@leveldb@@UEAAXPEAUHandle@Cache@3@@Z 000000018000e440 f i leveldb:cache.obj
 0001:0000d4b0       ?Erase@ShardedLRUCache@?A0x90ee7a33@leveldb@@UEAAXAEBVSlice@3@@Z 000000018000e4b0 f i leveldb:cache.obj
 0001:0000d500       ?Value@ShardedLRUCache@?A0x90ee7a33@leveldb@@UEAAPEAXPEAUHandle@Cache@3@@Z 000000018000e500 f i leveldb:cache.obj
 0001:0000d510       ?NewId@ShardedLRUCache@?A0x90ee7a33@leveldb@@UEAA_KXZ 000000018000e510 f i leveldb:cache.obj
 0001:0000d570       ??_GShardedLRUCache@?A0x90ee7a33@leveldb@@UEAAPEAXI@Z 000000018000e570 f i leveldb:cache.obj
 0001:0000d570       ??_EShardedLRUCache@?A0x90ee7a33@leveldb@@UEAAPEAXI@Z 000000018000e570 f i * CIL library *:* CIL module *
 0001:0000d5f0       ?Name@BloomFilterPolicy@?A0xf6456aac@leveldb@@UEBAPEBDXZ 000000018000e5f0 f i leveldb:bloom.obj
 0001:0000d600       ?CreateFilter@BloomFilterPolicy@?A0xf6456aac@leveldb@@UEBAXPEBVSlice@3@HPEAV?$basic_string@DU?$char_traits@D@std@@V?$allocator@D@2@@std@@@Z 000000018000e600 f i leveldb:bloom.obj
 0001:0000d7d0       ?KeyMayMatch@BloomFilterPolicy@?A0xf6456aac@leveldb@@UEBA_NAEBVSlice@3@0@Z 000000018000e7d0 f i leveldb:bloom.obj
 0001:0000d890       ??_EBloomFilterPolicy@?A0xf6456aac@leveldb@@UEAAPEAXI@Z 000000018000e890 f i * CIL library *:* CIL module *
 0001:0000d890       ??_GInternalFilterPolicy@leveldb@@UEAAPEAXI@Z 000000018000e890 f i leveldb:db_impl.obj
 0001:0000d890       ??_EInternalFilterPolicy@leveldb@@UEAAPEAXI@Z 000000018000e890 f i * CIL library *:* CIL module *
 0001:0000d890       ??_GBloomFilterPolicy@?A0xf6456aac@leveldb@@UEAAPEAXI@Z 000000018000e890 f i leveldb:bloom.obj
 0001:0000d8d0       ??_GFilterPolicy@leveldb@@UEAAPEAXI@Z 000000018000e8d0 f i leveldb:bloom.obj
 0001:0000d8d0       ??_ESource@snappy@@UEAAPEAXI@Z 000000018000e8d0 f i * CIL library *:* CIL module *
 0001:0000d8d0       ??_GSource@snappy@@UEAAPEAXI@Z 000000018000e8d0 f i snappy:snappy.obj
 0001:0000d8d0       ??_EFilterPolicy@leveldb@@UEAAPEAXI@Z 000000018000e8d0 f i * CIL library *:* CIL module *
 0001:0000d900       ?NewBloomFilterPolicy@leveldb@@YAPEBVFilterPolicy@1@H@Z 000000018000e900 f   leveldb:bloom.obj
 0001:0000d9a0       ?InvalidArgument@Status@leveldb@@SA?AV12@AEBVSlice@2@0@Z 000000018000e9a0 f i leveldb:db_impl.obj
 0001:0000d9f0       ?IOError@Status@leveldb@@SA?AV12@AEBVSlice@2@0@Z 000000018000e9f0 f i leveldb:db_impl.obj
 0001:0000da40       ??0Status@leveldb@@QEAA@AEBV01@@Z 000000018000ea40 f i leveldb:db_impl.obj
 0001:0000dab0       ??_EDB@leveldb@@UEAAPEAXI@Z 000000018000eab0 f i * CIL library *:* CIL module *
 0001:0000dab0       ??_GDB@leveldb@@UEAAPEAXI@Z 000000018000eab0 f i leveldb:db_impl.obj
 0001:0000dae0       ??_GInternalKeyComparator@leveldb@@UEAAPEAXI@Z 000000018000eae0 f i leveldb:db_impl.obj
 0001:0000dae0       ??_GBytewiseComparatorImpl@?A0x7411232b@leveldb@@UEAAPEAXI@Z 000000018000eae0 f i leveldb:comparator.obj
 0001:0000dae0       ??_EBytewiseComparatorImpl@?A0x7411232b@leveldb@@UEAAPEAXI@Z 000000018000eae0 f i * CIL library *:* CIL module *
 0001:0000dae0       ??_EInternalKeyComparator@leveldb@@UEAAPEAXI@Z 000000018000eae0 f i * CIL library *:* CIL module *
 0001:0000db20       ??1InternalKeyComparator@leveldb@@UEAA@XZ 000000018000eb20 f i leveldb:db_impl.obj
 0001:0000db40       ??_EComparator@leveldb@@UEAAPEAXI@Z 000000018000eb40 f i * CIL library *:* CIL module *
 0001:0000db40       ??_GWritableFile@leveldb@@UEAAPEAXI@Z 000000018000eb40 f i leveldb:env.obj
 0001:0000db40       ??_EWritableFile@leveldb@@UEAAPEAXI@Z 000000018000eb40 f i * CIL library *:* CIL module *
 0001:0000db40       ??_GComparator@leveldb@@UEAAPEAXI@Z 000000018000eb40 f i leveldb:db_impl.obj
 0001:0000db70       ??1InternalFilterPolicy@leveldb@@UEAA@XZ 000000018000eb70 f i leveldb:db_impl.obj
 0001:0000db90       ??1LookupKey@leveldb@@QEAA@XZ 000000018000eb90 f i leveldb:db_impl.obj
 0001:0000dbb0       ??1SnapshotImpl@leveldb@@UEAA@XZ 000000018000ebb0 f i leveldb:db_impl.obj
 0001:0000dbd0       ??_ESnapshotImpl@leveldb@@UEAAPEAXI@Z 000000018000ebd0 f i * CIL library *:* CIL module *
 0001:0000dbd0       ??_GSnapshotImpl@leveldb@@UEAAPEAXI@Z 000000018000ebd0 f i leveldb:db_impl.obj
 0001:0000dc10       ??_GSnapshot@leveldb@@MEAAPEAXI@Z 000000018000ec10 f i leveldb:db_impl.obj
 0001:0000dc10       ??_EFileLock@leveldb@@UEAAPEAXI@Z 000000018000ec10 f i * CIL library *:* CIL module *
 0001:0000dc10       ??_GFileLock@leveldb@@UEAAPEAXI@Z 000000018000ec10 f i leveldb:env.obj
 0001:0000dc10       ??_ESnapshot@leveldb@@MEAAPEAXI@Z 000000018000ec10 f i * CIL library *:* CIL module *
 0001:0000dc40       ??0VersionEdit@leveldb@@QEAA@XZ 000000018000ec40 f i leveldb:db_impl.obj
 0001:0000dd00       ??1VersionEdit@leveldb@@QEAA@XZ 000000018000ed00 f i leveldb:db_impl.obj
 0001:0000ddc0       ?AddFile@VersionEdit@leveldb@@QEAAXH_K0AEBVInternalKey@2@1@Z 000000018000edc0 f i leveldb:db_impl.obj
 0001:0000df40       ??1?$set@U?$pair@H_K@std@@U?$less@U?$pair@H_K@std@@@2@V?$allocator@U?$pair@H_K@std@@@2@@std@@QEAA@XZ 000000018000ef40 f i leveldb:db_impl.obj
 0001:0000df80       ??1?$pair@HVInternalKey@leveldb@@@std@@QEAA@XZ 000000018000ef80 f i leveldb:db_impl.obj
 0001:0000dfd0       ??1FileMetaData@leveldb@@QEAA@XZ 000000018000efd0 f i leveldb:db_impl.obj
 0001:0000e050       ??1?$pair@HUFileMetaData@leveldb@@@std@@QEAA@XZ 000000018000f050 f i leveldb:db_impl.obj
 0001:0000e070       ?SetLastSequence@VersionSet@leveldb@@QEAAX_K@Z 000000018000f070 f i leveldb:db_impl.obj
 0001:0000e0c0       ?SanitizeOptions@leveldb@@YA?AUOptions@1@AEBV?$basic_string@DU?$char_traits@D@std@@V?$allocator@D@2@@std@@PEBVInternalKeyComparator@1@PEBVInternalFilterPolicy@1@AEBU21@@Z 000000018000f0c0 f   leveldb:db_impl.obj
 0001:0000e2f0       ??0DBImpl@leveldb@@QEAA@AEBUOptions@1@AEBV?$basic_string@DU?$char_traits@D@std@@V?$allocator@D@2@@std@@@Z 000000018000f2f0 f   leveldb:db_impl.obj
 0001:0000e660       ??_GDBImpl@leveldb@@UEAAPEAXI@Z 000000018000f660 f i leveldb:db_impl.obj
 0001:0000e660       ??_EDBImpl@leveldb@@UEAAPEAXI@Z 000000018000f660 f i * CIL library *:* CIL module *
 0001:0000e690       ??1SnapshotList@leveldb@@QEAA@XZ 000000018000f690 f i leveldb:db_impl.obj
 0001:0000e6c0       ??1DBImpl@leveldb@@UEAA@XZ 000000018000f6c0 f   leveldb:db_impl.obj
 0001:0000e9e0       ?NewDB@DBImpl@leveldb@@AEAA?AVStatus@2@XZ 000000018000f9e0 f   leveldb:db_impl.obj
 0001:0000edf0       ?DeleteObsoleteFiles@DBImpl@leveldb@@AEAAXXZ 000000018000fdf0 f   leveldb:db_impl.obj
 0001:0000f190       ?Recover@DBImpl@leveldb@@AEAA?AVStatus@2@PEAVVersionEdit@2@@Z 0000000180010190 f   leveldb:db_impl.obj
 0001:0000fbb0       ?RecoverLogFile@DBImpl@leveldb@@AEAA?AVStatus@2@_KPEAVVersionEdit@2@PEA_K@Z 0000000180010bb0 f   leveldb:db_impl.obj
 0001:00010510       ??1LogReporter@?1??ConvertLogToTable@Repairer@?A0xa008de00@leveldb@@AEAA?AVStatus@4@_K@Z@UEAA@XZ 0000000180011510 f i leveldb:repair.obj
 0001:00010510       ??1LogReporter@?1??Recover@VersionSet@leveldb@@QEAA?AVStatus@3@XZ@UEAA@XZ 0000000180011510 f i leveldb:version_set.obj
 0001:00010510       ??1LogReporter@?1??RecoverLogFile@DBImpl@leveldb@@AEAA?AVStatus@3@_KPEAVVersionEdit@3@PEA_K@Z@UEAA@XZ 0000000180011510 f i leveldb:db_impl.obj
 0001:00010530       ??_ELogReporter@?1??RecoverLogFile@DBImpl@leveldb@@AEAA?AVStatus@3@_KPEAVVersionEdit@3@PEA_K@Z@UEAAPEAXI@Z 0000000180011530 f i * CIL library *:* CIL module *
 0001:00010530       ??_GLogReporter@?1??Recover@VersionSet@leveldb@@QEAA?AVStatus@3@XZ@UEAAPEAXI@Z 0000000180011530 f i leveldb:version_set.obj
 0001:00010530       ??_ELogReporter@?1??ConvertLogToTable@Repairer@?A0xa008de00@leveldb@@AEAA?AVStatus@4@_K@Z@UEAAPEAXI@Z 0000000180011530 f i * CIL library *:* CIL module *
 0001:00010530       ??_GLogReporter@?1??RecoverLogFile@DBImpl@leveldb@@AEAA?AVStatus@3@_KPEAVVersionEdit@3@PEA_K@Z@UEAAPEAXI@Z 0000000180011530 f i leveldb:db_impl.obj
 0001:00010530       ??_GLogReporter@?1??ConvertLogToTable@Repairer@?A0xa008de00@leveldb@@AEAA?AVStatus@4@_K@Z@UEAAPEAXI@Z 0000000180011530 f i leveldb:repair.obj
 0001:00010530       ??_ELogReporter@?1??Recover@VersionSet@leveldb@@QEAA?AVStatus@3@XZ@UEAAPEAXI@Z 0000000180011530 f i * CIL library *:* CIL module *
 0001:00010570       ??_GLogger@leveldb@@UEAAPEAXI@Z 0000000180011570 f i leveldb:env.obj
 0001:00010570       ??_ERandomAccessFile@leveldb@@UEAAPEAXI@Z 0000000180011570 f i * CIL library *:* CIL module *
 0001:00010570       ??_GRandomAccessFile@leveldb@@UEAAPEAXI@Z 0000000180011570 f i leveldb:env.obj
 0001:00010570       ??_EReporter@Reader@log@leveldb@@UEAAPEAXI@Z 0000000180011570 f i * CIL library *:* CIL module *
 0001:00010570       ??_GReporter@Reader@log@leveldb@@UEAAPEAXI@Z 0000000180011570 f i leveldb:db_impl.obj
 0001:00010570       ??_ELogger@leveldb@@UEAAPEAXI@Z 0000000180011570 f i * CIL library *:* CIL module *
 0001:000105a0       ?WriteLevel0Table@DBImpl@leveldb@@AEAA?AVStatus@2@PEAVMemTable@2@PEAVVersionEdit@2@PEAVVersion@2@@Z 00000001800115a0 f   leveldb:db_impl.obj
 0001:00010950       ?CompactMemTable@DBImpl@leveldb@@AEAAXXZ 0000000180011950 f   leveldb:db_impl.obj
 0001:00010c20       ?CompactRange@DBImpl@leveldb@@UEAAXPEBVSlice@2@0@Z 0000000180011c20 f   leveldb:db_impl.obj
 0001:00010d20       ?TEST_CompactRange@DBImpl@leveldb@@QEAAXHPEBVSlice@2@0@Z 0000000180011d20 f   leveldb:db_impl.obj
 0001:000110d0       ??1ManualCompaction@DBImpl@leveldb@@QEAA@XZ 00000001800120d0 f i leveldb:db_impl.obj
 0001:00011120       ?TEST_CompactMemTable@DBImpl@leveldb@@QEAA?AVStatus@2@XZ 0000000180012120 f   leveldb:db_impl.obj
 0001:000111f0       ?MaybeScheduleCompaction@DBImpl@leveldb@@AEAAXXZ 00000001800121f0 f   leveldb:db_impl.obj
 0001:00011280       ?BGWork@DBImpl@leveldb@@CAXPEAX@Z 0000000180012280 f   leveldb:db_impl.obj
 0001:00011290       ?BackgroundCall@DBImpl@leveldb@@AEAAXXZ 0000000180012290 f   leveldb:db_impl.obj
 0001:00011330       ?BackgroundCompaction@DBImpl@leveldb@@AEAAXXZ 0000000180012330 f   leveldb:db_impl.obj
 0001:000119a0       ?CleanupCompaction@DBImpl@leveldb@@AEAAXPEAUCompactionState@12@@Z 00000001800129a0 f   leveldb:db_impl.obj
 0001:00011b00       ?OpenCompactionOutputFile@DBImpl@leveldb@@AEAA?AVStatus@2@PEAUCompactionState@12@@Z 0000000180012b00 f   leveldb:db_impl.obj
 0001:00011d50       ??1Output@CompactionState@DBImpl@leveldb@@QEAA@XZ 0000000180012d50 f i leveldb:db_impl.obj
 0001:00011dd0       ?FinishCompactionOutputFile@DBImpl@leveldb@@AEAA?AVStatus@2@PEAUCompactionState@12@PEAVIterator@2@@Z 0000000180012dd0 f   leveldb:db_impl.obj
 0001:000120d0       ?InstallCompactionResults@DBImpl@leveldb@@AEAA?AVStatus@2@PEAUCompactionState@12@@Z 00000001800130d0 f   leveldb:db_impl.obj
 0001:00012230       ?DoCompactionWork@DBImpl@leveldb@@AEAA?AVStatus@2@PEAUCompactionState@12@@Z 0000000180013230 f   leveldb:db_impl.obj
 0001:00012d90       ?NewInternalIterator@DBImpl@leveldb@@AEAAPEAVIterator@2@AEBUReadOptions@2@PEA_KPEAI@Z 0000000180013d90 f   leveldb:db_impl.obj
 0001:000131a0       ?Get@DBImpl@leveldb@@UEAA?AVStatus@2@AEBUReadOptions@2@AEBVSlice@2@PEAV?$basic_string@DU?$char_traits@D@std@@V?$allocator@D@2@@std@@@Z 00000001800141a0 f   leveldb:db_impl.obj
 0001:00013400       ?NewIterator@DBImpl@leveldb@@UEAAPEAVIterator@2@AEBUReadOptions@2@@Z 0000000180014400 f   leveldb:db_impl.obj
 0001:00013490       ?RecordReadSample@DBImpl@leveldb@@QEAAXVSlice@2@@Z 0000000180014490 f   leveldb:db_impl.obj
 0001:000135b0       ?GetSnapshot@DBImpl@leveldb@@UEAAPEBVSnapshot@2@XZ 00000001800145b0 f   leveldb:db_impl.obj
 0001:00013660       ?ReleaseSnapshot@DBImpl@leveldb@@UEAAXPEBVSnapshot@2@@Z 0000000180014660 f   leveldb:db_impl.obj
 0001:00013700       ?Put@DBImpl@leveldb@@UEAA?AVStatus@2@AEBUWriteOptions@2@AEBVSlice@2@1@Z 0000000180014700 f   leveldb:db_impl.obj
 0001:00013740       ?Delete@DBImpl@leveldb@@UEAA?AVStatus@2@AEBUWriteOptions@2@AEBVSlice@2@@Z 0000000180014740 f   leveldb:db_impl.obj
 0001:00013780       ?Write@DBImpl@leveldb@@UEAA?AVStatus@2@AEBUWriteOptions@2@PEAVWriteBatch@2@@Z 0000000180014780 f   leveldb:db_impl.obj
 0001:00013d20       ??1Writer@DBImpl@leveldb@@QEAA@XZ 0000000180014d20 f i leveldb:db_impl.obj
 0001:00013d50       ?BuildBatchGroup@DBImpl@leveldb@@AEAAPEAVWriteBatch@2@PEAPEAUWriter@12@@Z 0000000180014d50 f   leveldb:db_impl.obj
 0001:00014050       ?MakeRoomForWrite@DBImpl@leveldb@@AEAA?AVStatus@2@_N@Z 0000000180015050 f   leveldb:db_impl.obj
 0001:00014460       ?GetProperty@DBImpl@leveldb@@UEAA_NAEBVSlice@2@PEAV?$basic_string@DU?$char_traits@D@std@@V?$allocator@D@2@@std@@@Z 0000000180015460 f   leveldb:db_impl.obj
 0001:00014890       ?GetApproximateSizes@DBImpl@leveldb@@UEAAXPEBURange@2@HPEA_K@Z 0000000180015890 f   leveldb:db_impl.obj
 0001:00014b10       ?Put@DB@leveldb@@UEAA?AVStatus@2@AEBUWriteOptions@2@AEBVSlice@2@1@Z 0000000180015b10 f   leveldb:db_impl.obj
 0001:00014c20       ?Delete@DB@leveldb@@UEAA?AVStatus@2@AEBUWriteOptions@2@AEBVSlice@2@@Z 0000000180015c20 f   leveldb:db_impl.obj
 0001:00014d90       ??1DB@leveldb@@UEAA@XZ     0000000180015d90 f   leveldb:db_impl.obj
 0001:00014da0       ?Open@DB@leveldb@@SA?AVStatus@2@AEBUOptions@2@AEBV?$basic_string@DU?$char_traits@D@std@@V?$allocator@D@2@@std@@PEAPEAV12@@Z 0000000180015da0 f   leveldb:db_impl.obj
 0001:00015040       ??1Snapshot@leveldb@@MEAA@XZ 0000000180016040 f   leveldb:db_impl.obj
 0001:00015040       ??1FileLock@leveldb@@UEAA@XZ 0000000180016040 f   leveldb:env.obj
 0001:00015050       ?DestroyDB@leveldb@@YA?AVStatus@1@AEBV?$basic_string@DU?$char_traits@D@std@@V?$allocator@D@2@@std@@AEBUOptions@1@@Z 0000000180016050 f   leveldb:db_impl.obj
 0001:000153e0       ??4?$basic_string@DU?$char_traits@D@std@@V?$allocator@D@2@@std@@QEAAAEAV01@$$QEAV01@@Z 00000001800163e0 f i leveldb:db_impl.obj
 0001:00015430       ?push_back@?$deque@PEAUWriter@DBImpl@leveldb@@V?$allocator@PEAUWriter@DBImpl@leveldb@@@std@@@std@@QEAAX$$QEAPEAUWriter@DBImpl@leveldb@@@Z 0000000180016430 f i leveldb:db_impl.obj
 0001:00015500       ??1?$deque@PEAUWriter@DBImpl@leveldb@@V?$allocator@PEAUWriter@DBImpl@leveldb@@@std@@@std@@QEAA@XZ 0000000180016500 f i leveldb:db_impl.obj
 0001:00015500       ??1?$deque@UBGItem@WinEnv@?A0x02d65cfe@leveldb@@V?$allocator@UBGItem@WinEnv@?A0x02d65cfe@leveldb@@@std@@@std@@QEAA@XZ 0000000180016500 f i leveldb:env_win.obj
 0001:00015540       ?begin@?$deque@PEAUWriter@DBImpl@leveldb@@V?$allocator@PEAUWriter@DBImpl@leveldb@@@std@@@std@@QEAA?AV?$_Deque_iterator@V?$_Deque_val@U?$_Deque_simple_types@PEAUWriter@DBImpl@leveldb@@@std@@@std@@@2@XZ 0000000180016540 f i leveldb:db_impl.obj
 0001:00015540       ?begin@?$deque@UBGItem@WinEnv@?A0x02d65cfe@leveldb@@V?$allocator@UBGItem@WinEnv@?A0x02d65cfe@leveldb@@@std@@@std@@QEAA?AV?$_Deque_iterator@V?$_Deque_val@U?$_Deque_simple_types@UBGItem@WinEnv@?A0x02d65cfe@leveldb@@@std@@@std@@@2@XZ 0000000180016540 f i leveldb:env_win.obj
 0001:00015560       ?end@?$deque@UBGItem@WinEnv@?A0x02d65cfe@leveldb@@V?$allocator@UBGItem@WinEnv@?A0x02d65cfe@leveldb@@@std@@@std@@QEAA?AV?$_Deque_iterator@V?$_Deque_val@U?$_Deque_simple_types@UBGItem@WinEnv@?A0x02d65cfe@leveldb@@@std@@@std@@@2@XZ 0000000180016560 f i leveldb:env_win.obj
 0001:00015560       ?end@?$deque@PEAUWriter@DBImpl@leveldb@@V?$allocator@PEAUWriter@DBImpl@leveldb@@@std@@@std@@QEAA?AV?$_Deque_iterator@V?$_Deque_val@U?$_Deque_simple_types@PEAUWriter@DBImpl@leveldb@@@std@@@std@@@2@XZ 0000000180016560 f i leveldb:db_impl.obj
 0001:00015580       ??0?$set@_KU?$less@_K@std@@V?$allocator@_K@2@@std@@QEAA@XZ 0000000180016580 f i leveldb:db_impl.obj
 0001:00015600       ??0?$set@_KU?$less@_K@std@@V?$allocator@_K@2@@std@@QEAA@AEBV01@@Z 0000000180016600 f i leveldb:db_impl.obj
 0001:00015700       ?erase@?$_Tree@V?$_Tset_traits@_KU?$less@_K@std@@V?$allocator@_K@2@$0A@@std@@@std@@QEAA_KAEB_K@Z 0000000180016700 f i leveldb:db_impl.obj
 0001:00015810       ??1?$vector@U?$pair@HVInternalKey@leveldb@@@std@@V?$allocator@U?$pair@HVInternalKey@leveldb@@@std@@@2@@std@@QEAA@XZ 0000000180016810 f i leveldb:db_impl.obj
 0001:00015850       ??0?$set@U?$pair@H_K@std@@U?$less@U?$pair@H_K@std@@@2@V?$allocator@U?$pair@H_K@std@@@2@@std@@QEAA@XZ 0000000180016850 f i leveldb:db_impl.obj
 0001:000158d0       ??1?$_Tree@V?$_Tset_traits@U?$pair@H_K@std@@U?$less@U?$pair@H_K@std@@@2@V?$allocator@U?$pair@H_K@std@@@2@$0A@@std@@@std@@QEAA@XZ 00000001800168d0 f i leveldb:db_impl.obj
 0001:00015910       ?push_back@?$vector@U?$pair@HUFileMetaData@leveldb@@@std@@V?$allocator@U?$pair@HUFileMetaData@leveldb@@@std@@@2@@std@@QEAAX$$QEAU?$pair@HUFileMetaData@leveldb@@@2@@Z 0000000180016910 f i leveldb:db_impl.obj
 0001:000159e0       ??1?$vector@U?$pair@HUFileMetaData@leveldb@@@std@@V?$allocator@U?$pair@HUFileMetaData@leveldb@@@std@@@2@@std@@QEAA@XZ 00000001800169e0 f i leveldb:db_impl.obj
 0001:00015a20       ??1?$vector@UOutput@CompactionState@DBImpl@leveldb@@V?$allocator@UOutput@CompactionState@DBImpl@leveldb@@@std@@@std@@QEAA@XZ 0000000180016a20 f i leveldb:db_impl.obj
 0001:00015a60       ?push_back@?$vector@UOutput@CompactionState@DBImpl@leveldb@@V?$allocator@UOutput@CompactionState@DBImpl@leveldb@@@std@@@std@@QEAAXAEBUOutput@CompactionState@DBImpl@leveldb@@@Z 0000000180016a60 f i leveldb:db_impl.obj
 0001:00015b20       ??1?$vector@V?$basic_string@DU?$char_traits@D@std@@V?$allocator@D@2@@std@@V?$allocator@V?$basic_string@DU?$char_traits@D@std@@V?$allocator@D@2@@std@@@2@@std@@QEAA@XZ 0000000180016b20 f i leveldb:db_impl.obj
 0001:00015b30       ??1?$vector@_KV?$allocator@_K@std@@@std@@QEAA@XZ 0000000180016b30 f i leveldb:db_impl.obj
 0001:00015b30       ??1?$vector@VSlice@leveldb@@V?$allocator@VSlice@leveldb@@@std@@@std@@QEAA@XZ 0000000180016b30 f i leveldb:table_builder.obj
 0001:00015b30       ??1?$vector@IV?$allocator@I@std@@@std@@QEAA@XZ 0000000180016b30 f i leveldb:table_builder.obj
 0001:00015b30       ??1?$vector@PEAUFileMetaData@leveldb@@V?$allocator@PEAUFileMetaData@leveldb@@@std@@@std@@QEAA@XZ 0000000180016b30 f i leveldb:version_set.obj
 0001:00015b30       ??1?$vector@PEADV?$allocator@PEAD@std@@@std@@QEAA@XZ 0000000180016b30 f i leveldb:arena.obj
 0001:00015b30       ??1?$vector@PEAVIterator@leveldb@@V?$allocator@PEAVIterator@leveldb@@@std@@@std@@QEAA@XZ 0000000180016b30 f i leveldb:db_impl.obj
 0001:00015b60       ?push_back@?$vector@_KV?$allocator@_K@std@@@std@@QEAAXAEB_K@Z 0000000180016b60 f i leveldb:db_impl.obj
 0001:00015bf0       ?_Growmap@?$deque@PEAUWriter@DBImpl@leveldb@@V?$allocator@PEAUWriter@DBImpl@leveldb@@@std@@@std@@IEAAX_K@Z 0000000180016bf0 f i leveldb:db_impl.obj
 0001:00015db0       ?_Tidy@?$deque@UBGItem@WinEnv@?A0x02d65cfe@leveldb@@V?$allocator@UBGItem@WinEnv@?A0x02d65cfe@leveldb@@@std@@@std@@IEAAXXZ 0000000180016db0 f i leveldb:env_win.obj
 0001:00015db0       ?_Tidy@?$deque@PEAUWriter@DBImpl@leveldb@@V?$allocator@PEAUWriter@DBImpl@leveldb@@@std@@@std@@IEAAXXZ 0000000180016db0 f i leveldb:db_impl.obj
 0001:00015e30       ??1?$_Deque_alloc@$0A@U?$_Deque_base_types@UBGItem@WinEnv@?A0x02d65cfe@leveldb@@V?$allocator@UBGItem@WinEnv@?A0x02d65cfe@leveldb@@@std@@@std@@@std@@QEAA@XZ 0000000180016e30 f i leveldb:env_win.obj
 0001:00015e30       ??1?$_Deque_alloc@$0A@U?$_Deque_base_types@PEAUWriter@DBImpl@leveldb@@V?$allocator@PEAUWriter@DBImpl@leveldb@@@std@@@std@@@std@@QEAA@XZ 0000000180016e30 f i leveldb:db_impl.obj
 0001:00015e50       ?_Reserve@?$vector@U?$pair@HUFileMetaData@leveldb@@@std@@V?$allocator@U?$pair@HUFileMetaData@leveldb@@@std@@@2@@std@@IEAAX_K@Z 0000000180016e50 f i leveldb:db_impl.obj
 0001:00015f20       ?_Reserve@?$vector@UOutput@CompactionState@DBImpl@leveldb@@V?$allocator@UOutput@CompactionState@DBImpl@leveldb@@@std@@@std@@IEAAX_K@Z 0000000180016f20 f i leveldb:db_impl.obj
 0001:00015ff0       ?_Tidy@?$vector@V?$basic_string@DU?$char_traits@D@std@@V?$allocator@D@2@@std@@V?$allocator@V?$basic_string@DU?$char_traits@D@std@@V?$allocator@D@2@@std@@@2@@std@@IEAAXXZ 0000000180016ff0 f i leveldb:db_impl.obj
 0001:00016070       ?_Reserve@?$vector@PEAVIterator@leveldb@@V?$allocator@PEAVIterator@leveldb@@@std@@@std@@IEAAX_K@Z 0000000180017070 f i leveldb:db_impl.obj
 0001:00016070       ?_Reserve@?$vector@_KV?$allocator@_K@std@@@std@@IEAAX_K@Z 0000000180017070 f i leveldb:db_impl.obj
 0001:00016070       ?_Reserve@?$vector@PEADV?$allocator@PEAD@std@@@std@@IEAAX_K@Z 0000000180017070 f i leveldb:arena.obj
 0001:00016100       ?_Destroy@?$vector@U?$pair@HVInternalKey@leveldb@@@std@@V?$allocator@U?$pair@HVInternalKey@leveldb@@@std@@@2@@std@@IEAAXPEAU?$pair@HVInternalKey@leveldb@@@2@0@Z 0000000180017100 f i leveldb:db_impl.obj
 0001:00016190       ?erase@?$_Tree@V?$_Tset_traits@U?$pair@H_K@std@@U?$less@U?$pair@H_K@std@@@2@V?$allocator@U?$pair@H_K@std@@@2@$0A@@std@@@std@@QEAA?AV?$_Tree_const_iterator@V?$_Tree_val@U?$_Tree_simple_types@U?$pair@H_K@std@@@std@@@std@@@2@V32@0@Z 0000000180017190 f i leveldb:db_impl.obj
 0001:00016270       ?_Destroy@?$vector@U?$pair@HUFileMetaData@leveldb@@@std@@V?$allocator@U?$pair@HUFileMetaData@leveldb@@@std@@@2@@std@@IEAAXPEAU?$pair@HUFileMetaData@leveldb@@@2@0@Z 0000000180017270 f i leveldb:db_impl.obj
 0001:00016330       ?_Reallocate@?$vector@U?$pair@HUFileMetaData@leveldb@@@std@@V?$allocator@U?$pair@HUFileMetaData@leveldb@@@std@@@2@@std@@IEAAX_K@Z 0000000180017330 f i leveldb:db_impl.obj
 0001:00016440       ?_Destroy@?$vector@UOutput@CompactionState@DBImpl@leveldb@@V?$allocator@UOutput@CompactionState@DBImpl@leveldb@@@std@@@std@@IEAAXPEAUOutput@CompactionState@DBImpl@leveldb@@0@Z 0000000180017440 f i leveldb:db_impl.obj
 0001:000164e0       ?_Reallocate@?$vector@UOutput@CompactionState@DBImpl@leveldb@@V?$allocator@UOutput@CompactionState@DBImpl@leveldb@@@std@@@std@@IEAAX_K@Z 00000001800174e0 f i leveldb:db_impl.obj
 0001:000165e0       ?_Reallocate@?$vector@PEAVIterator@leveldb@@V?$allocator@PEAVIterator@leveldb@@@std@@@std@@IEAAX_K@Z 00000001800175e0 f i leveldb:db_impl.obj
 0001:000165e0       ?_Reallocate@?$vector@_KV?$allocator@_K@std@@@std@@IEAAX_K@Z 00000001800175e0 f i leveldb:db_impl.obj
 0001:000165e0       ?_Reallocate@?$vector@PEAUFileMetaData@leveldb@@V?$allocator@PEAUFileMetaData@leveldb@@@std@@@std@@IEAAX_K@Z 00000001800175e0 f i leveldb:version_set.obj
 0001:000165e0       ?_Reallocate@?$vector@PEADV?$allocator@PEAD@std@@@std@@IEAAX_K@Z 00000001800175e0 f i leveldb:arena.obj
 0001:00016690       ?clear@?$_Tree@V?$_Tset_traits@U?$pair@H_K@std@@U?$less@U?$pair@H_K@std@@@2@V?$allocator@U?$pair@H_K@std@@@2@$0A@@std@@@std@@QEAAXXZ 0000000180017690 f i leveldb:db_impl.obj
 0001:00016700       ??$make_pair@AEAHAEAUFileMetaData@leveldb@@@std@@YA?AU?$pair@HUFileMetaData@leveldb@@@0@AEAHAEAUFileMetaData@leveldb@@@Z 0000000180017700 f i leveldb:db_impl.obj
 0001:00016750       ??$?HDU?$char_traits@D@std@@V?$allocator@D@1@@std@@YA?AV?$basic_string@DU?$char_traits@D@std@@V?$allocator@D@2@@0@AEBV10@PEBD@Z 0000000180017750 f i leveldb:db_impl.obj
 0001:00016840       ??$?HDU?$char_traits@D@std@@V?$allocator@D@1@@std@@YA?AV?$basic_string@DU?$char_traits@D@std@@V?$allocator@D@2@@0@$$QEAV10@AEBV10@@Z 0000000180017840 f i leveldb:db_impl.obj
 0001:000168b0       ??$_Insert_nohint@AEB_KU_Nil@std@@@?$_Tree@V?$_Tset_traits@_KU?$less@_K@std@@V?$allocator@_K@2@$0A@@std@@@std@@IEAA?AU?$pair@V?$_Tree_const_iterator@V?$_Tree_val@U?$_Tree_simple_types@_K@std@@@std@@@std@@_N@1@_NAEB_KU_Nil@1@@Z 00000001800178b0 f i leveldb:db_impl.obj
 0001:00016a00       ??$_Insert_nohint@U?$pair@H_K@std@@U_Nil@2@@?$_Tree@V?$_Tset_traits@U?$pair@H_K@std@@U?$less@U?$pair@H_K@std@@@2@V?$allocator@U?$pair@H_K@std@@@2@$0A@@std@@@std@@IEAA?AU?$pair@V?$_Tree_const_iterator@V?$_Tree_val@U?$_Tree_simple_types@U?$pair@H_K@std@@@std@@@std@@@std@@_N@1@_N$$QEAU?$pair@H_K@1@U_Nil@1@@Z 0000000180017a00 f i leveldb:db_impl.obj
 0001:00016b50       ??$_Copy_nodes@U?$integral_constant@_N$0A@@std@@@?$_Tree@V?$_Tset_traits@_KU?$less@_K@std@@V?$allocator@_K@2@$0A@@std@@@std@@IEAAPEAU?$_Tree_node@_KPEAX@1@PEAU21@0U?$integral_constant@_N$0A@@1@@Z 0000000180017b50 f i leveldb:db_impl.obj
 0001:00016c00       ??$_Insert_at@AEB_KU_Nil@std@@@?$_Tree@V?$_Tset_traits@_KU?$less@_K@std@@V?$allocator@_K@2@$0A@@std@@@std@@IEAA?AV?$_Tree_const_iterator@V?$_Tree_val@U?$_Tree_simple_types@_K@std@@@std@@@1@_NPEAU?$_Tree_node@_KPEAX@1@AEB_KU_Nil@1@@Z 0000000180017c00 f i leveldb:db_impl.obj
 0001:00016c00       ??$_Insert_at@AEBQEAUFileMetaData@leveldb@@U_Nil@std@@@?$_Tree@V?$_Tset_traits@PEAUFileMetaData@leveldb@@UBySmallestKey@Builder@VersionSet@2@V?$allocator@PEAUFileMetaData@leveldb@@@std@@$0A@@std@@@std@@IEAA?AV?$_Tree_const_iterator@V?$_Tree_val@U?$_Tree_simple_types@PEAUFileMetaData@leveldb@@@std@@@std@@@1@_NPEAU?$_Tree_node@PEAUFileMetaData@leveldb@@PEAX@1@AEBQEAUFileMetaData@leveldb@@U_Nil@1@@Z 0000000180017c00 f i leveldb:version_set.obj
 0001:00016ee0       ??$_Insert_at@U?$pair@H_K@std@@U_Nil@2@@?$_Tree@V?$_Tset_traits@U?$pair@H_K@std@@U?$less@U?$pair@H_K@std@@@2@V?$allocator@U?$pair@H_K@std@@@2@$0A@@std@@@std@@IEAA?AV?$_Tree_const_iterator@V?$_Tree_val@U?$_Tree_simple_types@U?$pair@H_K@std@@@std@@@std@@@1@_NPEAU?$_Tree_node@U?$pair@H_K@std@@PEAX@1@$$QEAU?$pair@H_K@1@U_Nil@1@@Z 0000000180017ee0 f i leveldb:db_impl.obj
 0001:000171c0       ??0FileMetaData@leveldb@@QEAA@AEBU01@@Z 00000001800181c0 f i leveldb:db_impl.obj
 0001:00017260       ??0Output@CompactionState@DBImpl@leveldb@@QEAA@AEBU0123@@Z 0000000180018260 f i leveldb:db_impl.obj
 0001:00017300       ??$_Sort@PEA_K_JU?$less@X@std@@@std@@YAXPEA_K0_JU?$less@X@0@@Z 0000000180018300 f i leveldb:db_impl.obj
 0001:00017440       ??$_Unguarded_partition@PEA_KU?$less@X@std@@@std@@YA?AU?$pair@PEA_KPEA_K@0@PEA_K0U?$less@X@0@@Z 0000000180018440 f i leveldb:db_impl.obj
 0001:00017600       ?_Buynode0@?$_Tree_buy@PEAUFileMetaData@leveldb@@V?$allocator@PEAUFileMetaData@leveldb@@@std@@@std@@QEAAPEAU?$_Tree_node@PEAUFileMetaData@leveldb@@PEAX@2@XZ 0000000180018600 f i leveldb:version_set.obj
 0001:00017600       ?_Buynode0@?$_Tree_buy@_KV?$allocator@_K@std@@@std@@QEAAPEAU?$_Tree_node@_KPEAX@2@XZ 0000000180018600 f i leveldb:db_impl.obj
 0001:00017680       ??$_Median@PEA_KU?$less@X@std@@@std@@YAXPEA_K00U?$less@X@0@@Z 0000000180018680 f i leveldb:db_impl.obj
 0001:000177e0       ??$_Make_heap@PEA_K_J_KU?$less@X@std@@@std@@YAXPEA_K0U?$less@X@0@PEA_J0@Z 00000001800187e0 f i leveldb:db_impl.obj
 0001:000178d0       ??$_Sort_heap@PEA_KU?$less@X@std@@@std@@YAXPEA_K0U?$less@X@0@@Z 00000001800188d0 f i leveldb:db_impl.obj
 0001:000179c0       ??$_Insertion_sort1@PEA_KU?$less@X@std@@_K@std@@YAXPEA_K0U?$less@X@0@0@Z 00000001800189c0 f i leveldb:db_impl.obj
 0001:00017a80       ??0Options@leveldb@@QEAA@XZ 0000000180018a80 f   leveldb:options.obj
 0001:00017b60       ??0Repairer@?A0xa008de00@leveldb@@QEAA@AEBV?$basic_string@DU?$char_traits@D@std@@V?$allocator@D@2@@std@@AEBUOptions@2@@Z 0000000180018b60 f i leveldb:repair.obj
 0001:00017ce0       ??1Repairer@?A0xa008de00@leveldb@@QEAA@XZ 0000000180018ce0 f i leveldb:repair.obj
 0001:00017e80       ?Run@Repairer@?A0xa008de00@leveldb@@QEAA?AVStatus@3@XZ 0000000180018e80 f i leveldb:repair.obj
 0001:00018010       ?FindFiles@Repairer@?A0xa008de00@leveldb@@AEAA?AVStatus@3@XZ 0000000180019010 f i leveldb:repair.obj
 0001:00018360       ?ConvertLogFilesToTables@Repairer@?A0xa008de00@leveldb@@AEAAXXZ 0000000180019360 f i leveldb:repair.obj
 0001:000184d0       ?ConvertLogToTable@Repairer@?A0xa008de00@leveldb@@AEAA?AVStatus@3@_K@Z 00000001800194d0 f i leveldb:repair.obj
 0001:00018cb0       ?ScanTable@Repairer@?A0xa008de00@leveldb@@AEAAX_K@Z 0000000180019cb0 f i leveldb:repair.obj
 0001:00019250       ?RepairTable@Repairer@?A0xa008de00@leveldb@@AEAAXAEBV?$basic_string@DU?$char_traits@D@std@@V?$allocator@D@2@@std@@UTableInfo@123@@Z 000000018001a250 f i leveldb:repair.obj
 0001:000196b0       ?WriteDescriptor@Repairer@?A0xa008de00@leveldb@@AEAA?AVStatus@3@XZ 000000018001a6b0 f i leveldb:repair.obj
 0001:00019d00       ?ArchiveFile@Repairer@?A0xa008de00@leveldb@@AEAAXAEBV?$basic_string@DU?$char_traits@D@std@@V?$allocator@D@2@@std@@@Z 000000018001ad00 f i leveldb:repair.obj
 0001:00019ff0       ??1TableInfo@Repairer@?A0xa008de00@leveldb@@QEAA@XZ 000000018001aff0 f i leveldb:repair.obj
 0001:0001a010       ?RepairDB@leveldb@@YA?AVStatus@1@AEBV?$basic_string@DU?$char_traits@D@std@@V?$allocator@D@2@@std@@AEBUOptions@1@@Z 000000018001b010 f   leveldb:repair.obj
 0001:0001a090       ?push_back@?$vector@V?$basic_string@DU?$char_traits@D@std@@V?$allocator@D@2@@std@@V?$allocator@V?$basic_string@DU?$char_traits@D@std@@V?$allocator@D@2@@std@@@2@@std@@QEAAXAEBV?$basic_string@DU?$char_traits@D@std@@V?$allocator@D@2@@2@@Z 000000018001b090 f i leveldb:repair.obj
 0001:0001a160       ??1?$vector@UTableInfo@Repairer@?A0xa008de00@leveldb@@V?$allocator@UTableInfo@Repairer@?A0xa008de00@leveldb@@@std@@@std@@QEAA@XZ 000000018001b160 f i leveldb:repair.obj
 0001:0001a1a0       ?push_back@?$vector@UTableInfo@Repairer@?A0xa008de00@leveldb@@V?$allocator@UTableInfo@Repairer@?A0xa008de00@leveldb@@@std@@@std@@QEAAXAEBUTableInfo@Repairer@?A0xa008de00@leveldb@@@Z 000000018001b1a0 f i leveldb:repair.obj
 0001:0001a280       ?_Reserve@?$vector@V?$basic_string@DU?$char_traits@D@std@@V?$allocator@D@2@@std@@V?$allocator@V?$basic_string@DU?$char_traits@D@std@@V?$allocator@D@2@@std@@@2@@std@@IEAAX_K@Z 000000018001b280 f i leveldb:repair.obj
 0001:0001a310       ?_Reserve@?$vector@UTableInfo@Repairer@?A0xa008de00@leveldb@@V?$allocator@UTableInfo@Repairer@?A0xa008de00@leveldb@@@std@@@std@@IEAAX_K@Z 000000018001b310 f i leveldb:repair.obj
 0001:0001a3e0       ?_Reallocate@?$vector@V?$basic_string@DU?$char_traits@D@std@@V?$allocator@D@2@@std@@V?$allocator@V?$basic_string@DU?$char_traits@D@std@@V?$allocator@D@2@@std@@@2@@std@@IEAAX_K@Z 000000018001b3e0 f i leveldb:repair.obj
 0001:0001a4d0       ?_Destroy@?$vector@UTableInfo@Repairer@?A0xa008de00@leveldb@@V?$allocator@UTableInfo@Repairer@?A0xa008de00@leveldb@@@std@@@std@@IEAAXPEAUTableInfo@Repairer@?A0xa008de00@leveldb@@0@Z 000000018001b4d0 f i leveldb:repair.obj
 0001:0001a570       ?_Reallocate@?$vector@UTableInfo@Repairer@?A0xa008de00@leveldb@@V?$allocator@UTableInfo@Repairer@?A0xa008de00@leveldb@@@std@@@std@@IEAAX_K@Z 000000018001b570 f i leveldb:repair.obj
 0001:0001a680       ??$_Umove@PEAV?$basic_string@DU?$char_traits@D@std@@V?$allocator@D@2@@std@@@?$vector@V?$basic_string@DU?$char_traits@D@std@@V?$allocator@D@2@@std@@V?$allocator@V?$basic_string@DU?$char_traits@D@std@@V?$allocator@D@2@@std@@@2@@std@@IEAAPEAV?$basic_string@DU?$char_traits@D@std@@V?$allocator@D@2@@1@PEAV21@00@Z 000000018001b680 f i leveldb:repair.obj
 0001:0001a740       ?EncodeVarint32@leveldb@@YAPEADPEADI@Z 000000018001b740 f   leveldb:coding.obj
 0001:0001a7f0       ?PutVarint32@leveldb@@YAXPEAV?$basic_string@DU?$char_traits@D@std@@V?$allocator@D@2@@std@@I@Z 000000018001b7f0 f   leveldb:coding.obj
 0001:0001a8c0       ?PutVarint64@leveldb@@YAXPEAV?$basic_string@DU?$char_traits@D@std@@V?$allocator@D@2@@std@@_K@Z 000000018001b8c0 f   leveldb:coding.obj
 0001:0001a940       ?GetVarint64@leveldb@@YA_NPEAVSlice@1@PEA_K@Z 000000018001b940 f   leveldb:coding.obj
 0001:0001a9b0       ?NotFound@Status@leveldb@@SA?AV12@AEBVSlice@2@0@Z 000000018001b9b0 f i leveldb:memtable.obj
 0001:0001aa00       ?Allocate@Arena@leveldb@@QEAAPEAD_K@Z 000000018001ba00 f i leveldb:memtable.obj
 0001:0001aab0       ??0MemTable@leveldb@@QEAA@AEBVInternalKeyComparator@1@@Z 000000018001bab0 f   leveldb:memtable.obj
 0001:0001ab50       ??1KeyComparator@MemTable@leveldb@@QEAA@XZ 000000018001bb50 f i leveldb:memtable.obj
 0001:0001ab80       ??1?$SkipList@PEBDUKeyComparator@MemTable@leveldb@@@leveldb@@QEAA@XZ 000000018001bb80 f i leveldb:memtable.obj
 0001:0001abb0       ??1MemTable@leveldb@@AEAA@XZ 000000018001bbb0 f   leveldb:memtable.obj
 0001:0001ac30       ??RKeyComparator@MemTable@leveldb@@QEBAHPEBD0@Z 000000018001bc30 f   leveldb:memtable.obj
 0001:0001acf0       ?Valid@MemTableIterator@leveldb@@UEBA_NXZ 000000018001bcf0 f i leveldb:memtable.obj
 0001:0001ad00       ?Seek@MemTableIterator@leveldb@@UEAAXAEBVSlice@2@@Z 000000018001bd00 f i leveldb:memtable.obj
 0001:0001adf0       ?SeekToFirst@MemTableIterator@leveldb@@UEAAXXZ 000000018001bdf0 f i leveldb:memtable.obj
 0001:0001ae10       ?SeekToLast@MemTableIterator@leveldb@@UEAAXXZ 000000018001be10 f i leveldb:memtable.obj
 0001:0001ae20       ?Next@MemTableIterator@leveldb@@UEAAXXZ 000000018001be20 f i leveldb:memtable.obj
 0001:0001ae70       ?Prev@MemTableIterator@leveldb@@UEAAXXZ 000000018001be70 f i leveldb:memtable.obj
 0001:0001aed0       ?key@MemTableIterator@leveldb@@UEBA?AVSlice@2@XZ 000000018001bed0 f i leveldb:memtable.obj
 0001:0001af70       ?value@MemTableIterator@leveldb@@UEBA?AVSlice@2@XZ 000000018001bf70 f i leveldb:memtable.obj
 0001:0001b060       ?Flush@WinWritableFile@leveldb@@UEAA?AVStatus@2@XZ 000000018001c060 f i leveldb:env_win.obj
 0001:0001b060       ?status@MemTableIterator@leveldb@@UEBA?AVStatus@2@XZ 000000018001c060 f i leveldb:memtable.obj
 0001:0001b060       ?status@LevelFileNumIterator@Version@leveldb@@UEBA?AVStatus@3@XZ 000000018001c060 f i leveldb:version_set.obj
 0001:0001b0a0       ??_EMemTableIterator@leveldb@@UEAAPEAXI@Z 000000018001c0a0 f i * CIL library *:* CIL module *
 0001:0001b0a0       ??_GMemTableIterator@leveldb@@UEAAPEAXI@Z 000000018001c0a0 f i leveldb:memtable.obj
 0001:0001b0d0       ??1MemTableIterator@leveldb@@UEAA@XZ 000000018001c0d0 f i leveldb:memtable.obj
 0001:0001b160       ?NewIterator@MemTable@leveldb@@QEAAPEAVIterator@2@XZ 000000018001c160 f   leveldb:memtable.obj
 0001:0001b1d0       ?Add@MemTable@leveldb@@QEAAX_KW4ValueType@2@AEBVSlice@2@2@Z 000000018001c1d0 f   leveldb:memtable.obj
 0001:0001b330       ?Get@MemTable@leveldb@@QEAA_NAEBVLookupKey@2@PEAV?$basic_string@DU?$char_traits@D@std@@V?$allocator@D@2@@std@@PEAVStatus@2@@Z 000000018001c330 f   leveldb:memtable.obj
 0001:0001b550       ??0?$SkipList@PEBDUKeyComparator@MemTable@leveldb@@@leveldb@@QEAA@UKeyComparator@MemTable@1@PEAVArena@1@@Z 000000018001c550 f i leveldb:memtable.obj
 0001:0001b630       ?Insert@?$SkipList@PEBDUKeyComparator@MemTable@leveldb@@@leveldb@@QEAAXAEBQEBD@Z 000000018001c630 f i leveldb:memtable.obj
 0001:0001b850       ?SeekToLast@Iterator@?$SkipList@PEBDUKeyComparator@MemTable@leveldb@@@leveldb@@QEAAXXZ 000000018001c850 f i leveldb:memtable.obj
 0001:0001b8e0       ?RandomHeight@?$SkipList@PEBDUKeyComparator@MemTable@leveldb@@@leveldb@@AEAAHXZ 000000018001c8e0 f i leveldb:memtable.obj
 0001:0001b970       ?FindLessThan@?$SkipList@PEBDUKeyComparator@MemTable@leveldb@@@leveldb@@AEBAPEAUNode@12@AEBQEBD@Z 000000018001c970 f i leveldb:memtable.obj
 0001:0001ba40       ?Hash@leveldb@@YAIPEBD_KI@Z 000000018001ca40 f   leveldb:hash.obj
 0001:0001bac0       ??1Mutex@port@leveldb@@QEAA@XZ 000000018001cac0 f   leveldb:port_uv.obj
 0001:0001bad0       ??1CondVar@port@leveldb@@QEAA@XZ 000000018001cad0 f   leveldb:port_uv.obj
 0001:0001bae0       ??1Source@snappy@@UEAA@XZ  000000018001cae0 f   snappy:snappy-sinksource.obj
 0001:0001bae0       ??1FilterPolicy@leveldb@@UEAA@XZ 000000018001cae0 f   leveldb:filter_policy.obj
 0001:0001baf0       ?AppendEscapedStringTo@leveldb@@YAXPEAV?$basic_string@DU?$char_traits@D@std@@V?$allocator@D@2@@std@@AEBVSlice@1@@Z 000000018001caf0 f   leveldb:logging.obj
 0001:0001bc10       ?EscapeString@leveldb@@YA?AV?$basic_string@DU?$char_traits@D@std@@V?$allocator@D@2@@std@@AEBVSlice@1@@Z 000000018001cc10 f   leveldb:logging.obj
 0001:0001bc60       ?ConsumeDecimalNumber@leveldb@@YA_NPEAVSlice@1@PEA_K@Z 000000018001cc60 f   leveldb:logging.obj
 0001:0001bdd0       ?LogFileName@leveldb@@YA?AV?$basic_string@DU?$char_traits@D@std@@V?$allocator@D@2@@std@@AEBV23@_K@Z 000000018001cdd0 f   leveldb:filename.obj
 0001:0001be50       ?TableFileName@leveldb@@YA?AV?$basic_string@DU?$char_traits@D@std@@V?$allocator@D@2@@std@@AEBV23@_K@Z 000000018001ce50 f   leveldb:filename.obj
 0001:0001bed0       ?SSTTableFileName@leveldb@@YA?AV?$basic_string@DU?$char_traits@D@std@@V?$allocator@D@2@@std@@AEBV23@_K@Z 000000018001ced0 f   leveldb:filename.obj
 0001:0001bf50       ?DescriptorFileName@leveldb@@YA?AV?$basic_string@DU?$char_traits@D@std@@V?$allocator@D@2@@std@@AEBV23@_K@Z 000000018001cf50 f   leveldb:filename.obj
 0001:0001c000       ?CurrentFileName@leveldb@@YA?AV?$basic_string@DU?$char_traits@D@std@@V?$allocator@D@2@@std@@AEBV23@@Z 000000018001d000 f   leveldb:filename.obj
 0001:0001c040       ?LockFileName@leveldb@@YA?AV?$basic_string@DU?$char_traits@D@std@@V?$allocator@D@2@@std@@AEBV23@@Z 000000018001d040 f   leveldb:filename.obj
 0001:0001c080       ?TempFileName@leveldb@@YA?AV?$basic_string@DU?$char_traits@D@std@@V?$allocator@D@2@@std@@AEBV23@_K@Z 000000018001d080 f   leveldb:filename.obj
 0001:0001c100       ?InfoLogFileName@leveldb@@YA?AV?$basic_string@DU?$char_traits@D@std@@V?$allocator@D@2@@std@@AEBV23@@Z 000000018001d100 f   leveldb:filename.obj
 0001:0001c140       ?OldInfoLogFileName@leveldb@@YA?AV?$basic_string@DU?$char_traits@D@std@@V?$allocator@D@2@@std@@AEBV23@@Z 000000018001d140 f   leveldb:filename.obj
 0001:0001c180       ?ParseFileName@leveldb@@YA_NAEBV?$basic_string@DU?$char_traits@D@std@@V?$allocator@D@2@@std@@PEA_KPEAW4FileType@1@@Z 000000018001d180 f   leveldb:filename.obj
 0001:0001c430       ?SetCurrentFile@leveldb@@YA?AVStatus@1@PEAVEnv@1@AEBV?$basic_string@DU?$char_traits@D@std@@V?$allocator@D@2@@std@@_K@Z 000000018001d430 f   leveldb:filename.obj
 0001:0001c6f0       ??$?HDU?$char_traits@D@std@@V?$allocator@D@1@@std@@YA?AV?$basic_string@DU?$char_traits@D@std@@V?$allocator@D@2@@0@$$QEAV10@PEBD@Z 000000018001d6f0 f i leveldb:filename.obj
 0001:0001c770       ??1Comparator@leveldb@@UEAA@XZ 000000018001d770 f   leveldb:comparator.obj
 0001:0001c770       ??1WritableFile@leveldb@@UEAA@XZ 000000018001d770 f   leveldb:env.obj
 0001:0001c780       ?Name@BytewiseComparatorImpl@?A0x7411232b@leveldb@@UEBAPEBDXZ 000000018001d780 f i leveldb:comparator.obj
 0001:0001c790       ?Compare@BytewiseComparatorImpl@?A0x7411232b@leveldb@@UEBAHAEBVSlice@3@0@Z 000000018001d790 f i leveldb:comparator.obj
 0001:0001c7f0       ?FindShortestSeparator@BytewiseComparatorImpl@?A0x7411232b@leveldb@@UEBAXPEAV?$basic_string@DU?$char_traits@D@std@@V?$allocator@D@2@@std@@AEBVSlice@3@@Z 000000018001d7f0 f i leveldb:comparator.obj
 0001:0001c990       ?FindShortSuccessor@BytewiseComparatorImpl@?A0x7411232b@leveldb@@UEBAXPEAV?$basic_string@DU?$char_traits@D@std@@V?$allocator@D@2@@std@@@Z 000000018001d990 f i leveldb:comparator.obj
 0001:0001ca60       ?Compare@InternalKeyComparator@leveldb@@QEBAHAEBVInternalKey@2@0@Z 000000018001da60 f i leveldb:version_set.obj
 0001:0001cb20       ??0Version@leveldb@@AEAA@PEAVVersionSet@1@@Z 000000018001db20 f i leveldb:version_set.obj
 0001:0001cc30       ??1Version@leveldb@@AEAA@XZ 000000018001dc30 f   leveldb:version_set.obj
 0001:0001cda0       ?FindFile@leveldb@@YAHAEBVInternalKeyComparator@1@AEBV?$vector@PEAUFileMetaData@leveldb@@V?$allocator@PEAUFileMetaData@leveldb@@@std@@@std@@AEBVSlice@1@@Z 000000018001dda0 f   leveldb:version_set.obj
 0001:0001cfb0       ?SomeFileOverlapsRange@leveldb@@YA_NAEBVInternalKeyComparator@1@_NAEBV?$vector@PEAUFileMetaData@leveldb@@V?$allocator@PEAUFileMetaData@leveldb@@@std@@@std@@PEBVSlice@1@3@Z 000000018001dfb0 f   leveldb:version_set.obj
 0001:0001d170       ?Valid@LevelFileNumIterator@Version@leveldb@@UEBA_NXZ 000000018001e170 f i leveldb:version_set.obj
 0001:0001d190       ?Seek@LevelFileNumIterator@Version@leveldb@@UEAAXAEBVSlice@3@@Z 000000018001e190 f i leveldb:version_set.obj
 0001:0001d1c0       ?SeekToFirst@LevelFileNumIterator@Version@leveldb@@UEAAXXZ 000000018001e1c0 f i leveldb:version_set.obj
 0001:0001d1d0       ?SeekToLast@LevelFileNumIterator@Version@leveldb@@UEAAXXZ 000000018001e1d0 f i leveldb:version_set.obj
 0001:0001d200       ?Next@LevelFileNumIterator@Version@leveldb@@UEAAXXZ 000000018001e200 f i leveldb:version_set.obj
 0001:0001d240       ?Prev@LevelFileNumIterator@Version@leveldb@@UEAAXXZ 000000018001e240 f i leveldb:version_set.obj
 0001:0001d2a0       ?key@LevelFileNumIterator@Version@leveldb@@UEBA?AVSlice@3@XZ 000000018001e2a0 f i leveldb:version_set.obj
 0001:0001d340       ?value@LevelFileNumIterator@Version@leveldb@@UEBA?AVSlice@3@XZ 000000018001e340 f i leveldb:version_set.obj
 0001:0001d3c0       ??_ELevelFileNumIterator@Version@leveldb@@UEAAPEAXI@Z 000000018001e3c0 f i * CIL library *:* CIL module *
 0001:0001d3c0       ??_GLevelFileNumIterator@Version@leveldb@@UEAAPEAXI@Z 000000018001e3c0 f i leveldb:version_set.obj
 0001:0001d3f0       ??1LevelFileNumIterator@Version@leveldb@@UEAA@XZ 000000018001e3f0 f i leveldb:version_set.obj
 0001:0001d520       ?NewConcatenatingIterator@Version@leveldb@@AEBAPEAVIterator@2@AEBUReadOptions@2@H@Z 000000018001e520 f   leveldb:version_set.obj
 0001:0001d610       ?AddIterators@Version@leveldb@@QEAAXAEBUReadOptions@2@PEAV?$vector@PEAVIterator@leveldb@@V?$allocator@PEAVIterator@leveldb@@@std@@@std@@@Z 000000018001e610 f   leveldb:version_set.obj
 0001:0001d8d0       ?ForEachOverlapping@Version@leveldb@@AEAAXVSlice@2@0PEAXP6A_N1HPEAUFileMetaData@2@@Z@Z 000000018001e8d0 f   leveldb:version_set.obj
 0001:0001dd90       ?Get@Version@leveldb@@QEAA?AVStatus@2@AEBUReadOptions@2@AEBVLookupKey@2@PEAV?$basic_string@DU?$char_traits@D@std@@V?$allocator@D@2@@std@@PEAUGetStats@12@@Z 000000018001ed90 f   leveldb:version_set.obj
 0001:0001e780       ?Unref@Version@leveldb@@QEAAXXZ 000000018001f780 f   leveldb:version_set.obj
 0001:0001e7f0       ?PickLevelForMemTableOutput@Version@leveldb@@QEAAHAEBVSlice@2@0@Z 000000018001f7f0 f   leveldb:version_set.obj
 0001:0001ea10       ?GetOverlappingInputs@Version@leveldb@@QEAAXHPEBVInternalKey@2@0PEAV?$vector@PEAUFileMetaData@leveldb@@V?$allocator@PEAUFileMetaData@leveldb@@@std@@@std@@@Z 000000018001fa10 f   leveldb:version_set.obj
 0001:0001ed40       ?DebugString@Version@leveldb@@QEBA?AV?$basic_string@DU?$char_traits@D@std@@V?$allocator@D@2@@std@@XZ 000000018001fd40 f   leveldb:version_set.obj
 0001:0001f070       ??0Builder@VersionSet@leveldb@@QEAA@PEAV12@PEAVVersion@2@@Z 0000000180020070 f i leveldb:version_set.obj
 0001:0001f190       ??1Builder@VersionSet@leveldb@@QEAA@XZ 0000000180020190 f i leveldb:version_set.obj
 0001:0001f640       ?Apply@Builder@VersionSet@leveldb@@QEAAXPEAVVersionEdit@3@@Z 0000000180020640 f i leveldb:version_set.obj
 0001:0001f9d0       ?SaveTo@Builder@VersionSet@leveldb@@QEAAXPEAVVersion@3@@Z 00000001800209d0 f i leveldb:version_set.obj
 0001:0001fd60       ?MaybeAddFile@Builder@VersionSet@leveldb@@QEAAXPEAVVersion@3@HPEAUFileMetaData@3@@Z 0000000180020d60 f i leveldb:version_set.obj
 0001:0001fe20       ??0LevelState@Builder@VersionSet@leveldb@@QEAA@XZ 0000000180020e20 f i leveldb:version_set.obj
 0001:0001fe50       ??1LevelState@Builder@VersionSet@leveldb@@QEAA@XZ 0000000180020e50 f i leveldb:version_set.obj
 0001:0001fe90       ??0VersionSet@leveldb@@QEAA@AEBV?$basic_string@DU?$char_traits@D@std@@V?$allocator@D@2@@std@@PEBUOptions@1@PEAVTableCache@1@PEBVInternalKeyComparator@1@@Z 0000000180020e90 f   leveldb:version_set.obj
 0001:0001ffb0       ??1VersionSet@leveldb@@QEAA@XZ 0000000180020fb0 f   leveldb:version_set.obj
 0001:00020090       ?AppendVersion@VersionSet@leveldb@@AEAAXPEAVVersion@2@@Z 0000000180021090 f   leveldb:version_set.obj
 0001:00020130       ?LogAndApply@VersionSet@leveldb@@QEAA?AVStatus@2@PEAVVersionEdit@2@PEAVMutex@port@2@@Z 0000000180021130 f   leveldb:version_set.obj
 0001:00020600       ?Recover@VersionSet@leveldb@@QEAA?AVStatus@2@XZ 0000000180021600 f   leveldb:version_set.obj
 0001:00020fc0       ?Finalize@VersionSet@leveldb@@AEAAXPEAVVersion@2@@Z 0000000180021fc0 f   leveldb:version_set.obj
 0001:00021170       ?WriteSnapshot@VersionSet@leveldb@@AEAA?AVStatus@2@PEAVWriter@log@2@@Z 0000000180022170 f   leveldb:version_set.obj
 0001:000215e0       ?NumLevelFiles@VersionSet@leveldb@@QEBAHH@Z 00000001800225e0 f   leveldb:version_set.obj
 0001:00021660       ?LevelSummary@VersionSet@leveldb@@QEBAPEBDPEAULevelSummaryStorage@12@@Z 0000000180022660 f   leveldb:version_set.obj
 0001:00021720       ?ApproximateOffsetOf@VersionSet@leveldb@@QEAA_KPEAVVersion@2@AEBVInternalKey@2@@Z 0000000180022720 f   leveldb:version_set.obj
 0001:00021960       ?AddLiveFiles@VersionSet@leveldb@@QEAAXPEAV?$set@_KU?$less@_K@std@@V?$allocator@_K@2@@std@@@Z 0000000180022960 f   leveldb:version_set.obj
 0001:00021a40       ?GetRange@VersionSet@leveldb@@AEAAXAEBV?$vector@PEAUFileMetaData@leveldb@@V?$allocator@PEAUFileMetaData@leveldb@@@std@@@std@@PEAVInternalKey@2@1@Z 0000000180022a40 f   leveldb:version_set.obj
 0001:00021b90       ?GetRange2@VersionSet@leveldb@@AEAAXAEBV?$vector@PEAUFileMetaData@leveldb@@V?$allocator@PEAUFileMetaData@leveldb@@@std@@@std@@0PEAVInternalKey@2@1@Z 0000000180022b90 f   leveldb:version_set.obj
 0001:00021cd0       ?MakeInputIterator@VersionSet@leveldb@@QEAAPEAVIterator@2@PEAVCompaction@2@@Z 0000000180022cd0 f   leveldb:version_set.obj
 0001:00022060       ?PickCompaction@VersionSet@leveldb@@QEAAPEAVCompaction@2@XZ 0000000180023060 f   leveldb:version_set.obj
 0001:00022480       ?SetupOtherInputs@VersionSet@leveldb@@AEAAXPEAVCompaction@2@@Z 0000000180023480 f   leveldb:version_set.obj
 0001:000229f0       ?CompactRange@VersionSet@leveldb@@QEAAPEAVCompaction@2@HPEBVInternalKey@2@0@Z 00000001800239f0 f   leveldb:version_set.obj
 0001:00022b20       ??0Compaction@leveldb@@AEAA@H@Z 0000000180023b20 f   leveldb:version_set.obj
 0001:00022bf0       ??1Compaction@leveldb@@QEAA@XZ 0000000180023bf0 f   leveldb:version_set.obj
 0001:00022c70       ?IsTrivialMove@Compaction@leveldb@@QEBA_NXZ 0000000180023c70 f   leveldb:version_set.obj
 0001:00022d40       ?AddInputDeletions@Compaction@leveldb@@QEAAXPEAVVersionEdit@2@@Z 0000000180023d40 f   leveldb:version_set.obj
 0001:00022ef0       ?IsBaseLevelForKey@Compaction@leveldb@@QEAA_NAEBVSlice@2@@Z 0000000180023ef0 f   leveldb:version_set.obj
 0001:00023080       ?ShouldStopBefore@Compaction@leveldb@@QEAA_NAEBVSlice@2@@Z 0000000180024080 f   leveldb:version_set.obj
 0001:000231d0       ?push_back@?$vector@U?$pair@HVInternalKey@leveldb@@@std@@V?$allocator@U?$pair@HVInternalKey@leveldb@@@std@@@2@@std@@QEAAX$$QEAU?$pair@HVInternalKey@leveldb@@@2@@Z 00000001800241d0 f i leveldb:version_set.obj
 0001:000232f0       ??0?$vector@PEAUFileMetaData@leveldb@@V?$allocator@PEAUFileMetaData@leveldb@@@std@@@std@@QEAA@XZ 00000001800242f0 f i leveldb:version_set.obj
 0001:00023310       ??4?$vector@PEAUFileMetaData@leveldb@@V?$allocator@PEAUFileMetaData@leveldb@@@std@@@std@@QEAAAEAV01@AEBV01@@Z 0000000180024310 f i leveldb:version_set.obj
 0001:00023440       ?resize@?$vector@PEAUFileMetaData@leveldb@@V?$allocator@PEAUFileMetaData@leveldb@@@std@@@std@@QEAAX_K@Z 0000000180024440 f i leveldb:version_set.obj
 0001:00023540       ?push_back@?$vector@PEAUFileMetaData@leveldb@@V?$allocator@PEAUFileMetaData@leveldb@@@std@@@std@@QEAAXAEBQEAUFileMetaData@leveldb@@@Z 0000000180024540 f i leveldb:version_set.obj
 0001:000235e0       ?count@?$_Tree@V?$_Tset_traits@_KU?$less@_K@std@@V?$allocator@_K@2@$0A@@std@@@std@@QEBA_KAEB_K@Z 00000001800245e0 f i leveldb:version_set.obj
 0001:000236c0       ?_Reserve@?$vector@U?$pair@HVInternalKey@leveldb@@@std@@V?$allocator@U?$pair@HVInternalKey@leveldb@@@std@@@2@@std@@IEAAX_K@Z 00000001800246c0 f i leveldb:version_set.obj
 0001:00023790       ?_Buy@?$vector@PEAUFileMetaData@leveldb@@V?$allocator@PEAUFileMetaData@leveldb@@@std@@@std@@IEAA_N_K@Z 0000000180024790 f i leveldb:version_set.obj
 0001:00023810       ?_Reserve@?$vector@PEAUFileMetaData@leveldb@@V?$allocator@PEAUFileMetaData@leveldb@@@std@@@std@@IEAAX_K@Z 0000000180024810 f i leveldb:version_set.obj
 0001:000238a0       ?_Reallocate@?$vector@U?$pair@HVInternalKey@leveldb@@@std@@V?$allocator@U?$pair@HVInternalKey@leveldb@@@std@@@2@@std@@IEAAX_K@Z 00000001800248a0 f i leveldb:version_set.obj
 0001:00023980       ??$make_pair@AEAHAEAVInternalKey@leveldb@@@std@@YA?AU?$pair@HVInternalKey@leveldb@@@0@AEAHAEAVInternalKey@leveldb@@@Z 0000000180024980 f i leveldb:version_edit.obj
 0001:00023980       ??$make_pair@AEAHAEBVInternalKey@leveldb@@@std@@YA?AU?$pair@HVInternalKey@leveldb@@@0@AEAHAEBVInternalKey@leveldb@@@Z 0000000180024980 f i leveldb:version_set.obj
 0001:000239e0       ??$_Insert_nohint@AEBQEAUFileMetaData@leveldb@@U_Nil@std@@@?$_Tree@V?$_Tset_traits@PEAUFileMetaData@leveldb@@UBySmallestKey@Builder@VersionSet@2@V?$allocator@PEAUFileMetaData@leveldb@@@std@@$0A@@std@@@std@@IEAA?AU?$pair@V?$_Tree_const_iterator@V?$_Tree_val@U?$_Tree_simple_types@PEAUFileMetaData@leveldb@@@std@@@std@@@std@@_N@1@_NAEBQEAUFileMetaData@leveldb@@U_Nil@1@@Z 00000001800249e0 f i leveldb:version_set.obj
 0001:00023b70       ??$_Umove@PEAU?$pair@HVInternalKey@leveldb@@@std@@@?$vector@U?$pair@HVInternalKey@leveldb@@@std@@V?$allocator@U?$pair@HVInternalKey@leveldb@@@std@@@2@@std@@IEAAPEAU?$pair@HVInternalKey@leveldb@@@1@PEAU21@00@Z 0000000180024b70 f i leveldb:version_set.obj
 0001:00023c00       ??$_Sort@PEAPEAUFileMetaData@leveldb@@_JP6A_NPEAU12@0@Z@std@@YAXPEAPEAUFileMetaData@leveldb@@0_JP6A_NPEAU12@2@Z@Z 0000000180024c00 f i leveldb:version_set.obj
 0001:00023d50       ??$_Upper_bound@PEBQEAUFileMetaData@leveldb@@PEAU12@_JUBySmallestKey@Builder@VersionSet@2@@std@@YAPEBQEAUFileMetaData@leveldb@@PEBQEAU12@0AEBQEAU12@UBySmallestKey@Builder@VersionSet@2@PEA_J@Z 0000000180024d50 f i leveldb:version_set.obj
 0001:00023e10       ??$_Insert@V?$_Vector_const_iterator@V?$_Vector_val@U?$_Simple_types@PEAUFileMetaData@leveldb@@@std@@@std@@@std@@@?$vector@PEAUFileMetaData@leveldb@@V?$allocator@PEAUFileMetaData@leveldb@@@std@@@std@@QEAAXV?$_Vector_const_iterator@V?$_Vector_val@U?$_Simple_types@PEAUFileMetaData@leveldb@@@std@@@std@@@1@00Uforward_iterator_tag@1@@Z 0000000180024e10 f i leveldb:version_set.obj
 0001:00023fe0       ??$_Unguarded_partition@PEAPEAUFileMetaData@leveldb@@P6A_NPEAU12@0@Z@std@@YA?AU?$pair@PEAPEAUFileMetaData@leveldb@@PEAPEAU12@@0@PEAPEAUFileMetaData@leveldb@@0P6A_NPEAU23@1@Z@Z 0000000180024fe0 f i leveldb:version_set.obj
 0001:000241d0       ??$_Median@PEAPEAUFileMetaData@leveldb@@P6A_NPEAU12@0@Z@std@@YAXPEAPEAUFileMetaData@leveldb@@00P6A_NPEAU12@1@Z@Z 00000001800251d0 f i leveldb:version_set.obj
 0001:000242b0       ??$_Make_heap@PEAPEAUFileMetaData@leveldb@@_JPEAU12@P6A_NPEAU12@0@Z@std@@YAXPEAPEAUFileMetaData@leveldb@@0P6A_NPEAU12@1@ZPEA_J0@Z 00000001800252b0 f i leveldb:version_set.obj
 0001:000243d0       ??$_Insertion_sort1@PEAPEAUFileMetaData@leveldb@@P6A_NPEAU12@0@ZPEAU12@@std@@YAXPEAPEAUFileMetaData@leveldb@@0P6A_NPEAU12@1@Z0@Z 00000001800253d0 f i leveldb:version_set.obj
 0001:000244b0       ??$_Med3@PEAPEAUFileMetaData@leveldb@@P6A_NPEAU12@0@Z@std@@YAXPEAPEAUFileMetaData@leveldb@@00P6A_NPEAU12@1@Z@Z 00000001800254b0 f i leveldb:version_set.obj
 0001:00024530       ??$_Rotate@PEAPEAUFileMetaData@leveldb@@_JPEAU12@@std@@YAXPEAPEAUFileMetaData@leveldb@@00PEA_J0@Z 0000000180025530 f i leveldb:version_set.obj
 0001:000245f0       ??$_Pop_heap_0@PEAPEAUFileMetaData@leveldb@@PEAU12@P6A_NPEAU12@0@Z@std@@YAXPEAPEAUFileMetaData@leveldb@@0P6A_NPEAU12@1@Z0@Z 00000001800255f0 f i leveldb:version_set.obj
 0001:000246d0       ??0DBIter@?A0xe8051e8b@leveldb@@QEAA@PEAVDBImpl@2@PEBVComparator@2@PEAVIterator@2@_KI@Z 00000001800256d0 f i leveldb:db_iter.obj
 0001:000247d0       ??1DBIter@?A0xe8051e8b@leveldb@@UEAA@XZ 00000001800257d0 f i leveldb:db_iter.obj
 0001:000248b0       ?Valid@DBIter@?A0xe8051e8b@leveldb@@UEBA_NXZ 00000001800258b0 f i leveldb:db_iter.obj
 0001:000248c0       ?key@DBIter@?A0xe8051e8b@leveldb@@UEBA?AVSlice@3@XZ 00000001800258c0 f i leveldb:db_iter.obj
 0001:00024980       ?value@DBIter@?A0xe8051e8b@leveldb@@UEBA?AVSlice@3@XZ 0000000180025980 f i leveldb:db_iter.obj
 0001:00024a10       ?status@DBIter@?A0xe8051e8b@leveldb@@UEBA?AVStatus@3@XZ 0000000180025a10 f i leveldb:db_iter.obj
 0001:00024a70       ?ClearSavedValue@DBIter@?A0xe8051e8b@leveldb@@AEAAXXZ 0000000180025a70 f i leveldb:db_iter.obj
 0001:00024b50       ??_EDBIter@?A0xe8051e8b@leveldb@@UEAAPEAXI@Z 0000000180025b50 f i * CIL library *:* CIL module *
 0001:00024b50       ??_GDBIter@?A0xe8051e8b@leveldb@@UEAAPEAXI@Z 0000000180025b50 f i leveldb:db_iter.obj
 0001:00024b80       ?ParseKey@DBIter@?A0xe8051e8b@leveldb@@AEAA_NPEAUParsedInternalKey@3@@Z 0000000180025b80 f i leveldb:db_iter.obj
 0001:00024cf0       ?Next@DBIter@?A0xe8051e8b@leveldb@@UEAAXXZ 0000000180025cf0 f   leveldb:db_iter.obj
 0001:00024de0       ?FindNextUserEntry@DBIter@?A0xe8051e8b@leveldb@@AEAAX_NPEAV?$basic_string@DU?$char_traits@D@std@@V?$allocator@D@2@@std@@@Z 0000000180025de0 f   leveldb:db_iter.obj
 0001:00024f60       ?Prev@DBIter@?A0xe8051e8b@leveldb@@UEAAXXZ 0000000180025f60 f   leveldb:db_iter.obj
 0001:00025120       ?FindPrevUserEntry@DBIter@?A0xe8051e8b@leveldb@@AEAAXXZ 0000000180026120 f   leveldb:db_iter.obj
 0001:000253a0       ?Seek@DBIter@?A0xe8051e8b@leveldb@@UEAAXAEBVSlice@3@@Z 00000001800263a0 f   leveldb:db_iter.obj
 0001:00025480       ?SeekToFirst@DBIter@?A0xe8051e8b@leveldb@@UEAAXXZ 0000000180026480 f   leveldb:db_iter.obj
 0001:000254d0       ?SeekToLast@DBIter@?A0xe8051e8b@leveldb@@UEAAXXZ 00000001800264d0 f   leveldb:db_iter.obj
 0001:00025500       ?_Swap_bx@?$basic_string@DU?$char_traits@D@std@@V?$allocator@D@2@@std@@QEAAXAEAV12@@Z 0000000180026500 f i leveldb:db_iter.obj
 0001:000255e0       ?AppendInternalKey@leveldb@@YAXPEAV?$basic_string@DU?$char_traits@D@std@@V?$allocator@D@2@@std@@AEBUParsedInternalKey@1@@Z 00000001800265e0 f   leveldb:dbformat.obj
 0001:000256a0       ?DebugString@ParsedInternalKey@leveldb@@QEBA?AV?$basic_string@DU?$char_traits@D@std@@V?$allocator@D@2@@std@@XZ 00000001800266a0 f   leveldb:dbformat.obj
 0001:00025830       ?DebugString@InternalKey@leveldb@@QEBA?AV?$basic_string@DU?$char_traits@D@std@@V?$allocator@D@2@@std@@XZ 0000000180026830 f   leveldb:dbformat.obj
 0001:000259e0       ?Name@InternalKeyComparator@leveldb@@UEBAPEBDXZ 00000001800269e0 f   leveldb:dbformat.obj
 0001:000259f0       ?Compare@InternalKeyComparator@leveldb@@UEBAHAEBVSlice@2@0@Z 00000001800269f0 f   leveldb:dbformat.obj
 0001:00025ae0       ?FindShortestSeparator@InternalKeyComparator@leveldb@@UEBAXPEAV?$basic_string@DU?$char_traits@D@std@@V?$allocator@D@2@@std@@AEBVSlice@2@@Z 0000000180026ae0 f   leveldb:dbformat.obj
 0001:00025f20       ?FindShortSuccessor@InternalKeyComparator@leveldb@@UEBAXPEAV?$basic_string@DU?$char_traits@D@std@@V?$allocator@D@2@@std@@@Z 0000000180026f20 f   leveldb:dbformat.obj
 0001:000262d0       ?Name@InternalFilterPolicy@leveldb@@UEBAPEBDXZ 00000001800272d0 f   leveldb:dbformat.obj
 0001:000262e0       ?CreateFilter@InternalFilterPolicy@leveldb@@UEBAXPEBVSlice@2@HPEAV?$basic_string@DU?$char_traits@D@std@@V?$allocator@D@2@@std@@@Z 00000001800272e0 f   leveldb:dbformat.obj
 0001:00026390       ?KeyMayMatch@InternalFilterPolicy@leveldb@@UEBA_NAEBVSlice@2@0@Z 0000000180027390 f   leveldb:dbformat.obj
 0001:00026400       ??0LookupKey@leveldb@@QEAA@AEBVSlice@1@_K@Z 0000000180027400 f   leveldb:dbformat.obj
 0001:000264e0       ??_EIterator@leveldb@@UEAAPEAXI@Z 00000001800274e0 f i * CIL library *:* CIL module *
 0001:000264e0       ??_GIterator@leveldb@@UEAAPEAXI@Z 00000001800274e0 f i leveldb:iterator.obj
 0001:00026570       ??1Iterator@leveldb@@UEAA@XZ 0000000180027570 f   leveldb:iterator.obj
 0001:000265d0       ??0EmptyIterator@?A0xa6d30bd7@leveldb@@QEAA@AEBVStatus@2@@Z 00000001800275d0 f i leveldb:iterator.obj
 0001:00026660       ?Valid@EmptyIterator@?A0xa6d30bd7@leveldb@@UEBA_NXZ 0000000180027660 f i leveldb:iterator.obj
 0001:00026670       ?Next@EmptyIterator@?A0xa6d30bd7@leveldb@@UEAAXXZ 0000000180027670 f i leveldb:iterator.obj
 0001:00026690       ?Prev@EmptyIterator@?A0xa6d30bd7@leveldb@@UEAAXXZ 0000000180027690 f i leveldb:iterator.obj
 0001:000266b0       ?key@EmptyIterator@?A0xa6d30bd7@leveldb@@UEBA?AVSlice@3@XZ 00000001800276b0 f i leveldb:iterator.obj
 0001:000266f0       ?value@EmptyIterator@?A0xa6d30bd7@leveldb@@UEBA?AVSlice@3@XZ 00000001800276f0 f i leveldb:iterator.obj
 0001:00026730       ?status@EmptyIterator@?A0xa6d30bd7@leveldb@@UEBA?AVStatus@3@XZ 0000000180027730 f i leveldb:iterator.obj
 0001:000267b0       ??_EEmptyIterator@?A0xa6d30bd7@leveldb@@UEAAPEAXI@Z 00000001800277b0 f i * CIL library *:* CIL module *
 0001:000267b0       ??_GEmptyIterator@?A0xa6d30bd7@leveldb@@UEAAPEAXI@Z 00000001800277b0 f i leveldb:iterator.obj
 0001:000267e0       ??1EmptyIterator@?A0xa6d30bd7@leveldb@@UEAA@XZ 00000001800277e0 f i leveldb:iterator.obj
 0001:00026860       ?NewEmptyIterator@leveldb@@YAPEAVIterator@1@XZ 0000000180027860 f   leveldb:iterator.obj
 0001:000268e0       ??0IteratorWrapper@leveldb@@QEAA@XZ 00000001800278e0 f i leveldb:merger.obj
 0001:00026900       ??1IteratorWrapper@leveldb@@QEAA@XZ 0000000180027900 f i leveldb:merger.obj
 0001:00026920       ?status@IteratorWrapper@leveldb@@QEBA?AVStatus@2@XZ 0000000180027920 f i leveldb:merger.obj
 0001:00026990       ?Next@IteratorWrapper@leveldb@@QEAAXXZ 0000000180027990 f i leveldb:merger.obj
 0001:000269f0       ?Seek@IteratorWrapper@leveldb@@QEAAXAEBVSlice@2@@Z 00000001800279f0 f i leveldb:merger.obj
 0001:00026a60       ??0MergingIterator@?A0xa6fe79a5@leveldb@@QEAA@PEBVComparator@2@PEAPEAVIterator@2@H@Z 0000000180027a60 f i leveldb:merger.obj
 0001:00026bb0       ??1MergingIterator@?A0xa6fe79a5@leveldb@@UEAA@XZ 0000000180027bb0 f i leveldb:merger.obj
 0001:00026c50       ?Valid@MergingIterator@?A0xa6fe79a5@leveldb@@UEBA_NXZ 0000000180027c50 f i leveldb:merger.obj
 0001:00026c60       ?SeekToFirst@MergingIterator@?A0xa6fe79a5@leveldb@@UEAAXXZ 0000000180027c60 f i leveldb:merger.obj
 0001:00026d10       ?SeekToLast@MergingIterator@?A0xa6fe79a5@leveldb@@UEAAXXZ 0000000180027d10 f i leveldb:merger.obj
 0001:00026dc0       ?Seek@MergingIterator@?A0xa6fe79a5@leveldb@@UEAAXAEBVSlice@3@@Z 0000000180027dc0 f i leveldb:merger.obj
 0001:00026e80       ?Next@MergingIterator@?A0xa6fe79a5@leveldb@@UEAAXXZ 0000000180027e80 f i leveldb:merger.obj
 0001:00027020       ?Prev@MergingIterator@?A0xa6fe79a5@leveldb@@UEAAXXZ 0000000180028020 f i leveldb:merger.obj
 0001:00027220       ?key@MergingIterator@?A0xa6fe79a5@leveldb@@UEBA?AVSlice@3@XZ 0000000180028220 f i leveldb:merger.obj
 0001:00027290       ?value@MergingIterator@?A0xa6fe79a5@leveldb@@UEBA?AVSlice@3@XZ 0000000180028290 f i leveldb:merger.obj
 0001:00027300       ?status@MergingIterator@?A0xa6fe79a5@leveldb@@UEBA?AVStatus@3@XZ 0000000180028300 f i leveldb:merger.obj
 0001:000273e0       ??_GMergingIterator@?A0xa6fe79a5@leveldb@@UEAAPEAXI@Z 00000001800283e0 f i leveldb:merger.obj
 0001:000273e0       ??_EMergingIterator@?A0xa6fe79a5@leveldb@@UEAAPEAXI@Z 00000001800283e0 f i * CIL library *:* CIL module *
 0001:00027410       ?FindSmallest@MergingIterator@?A0xa6fe79a5@leveldb@@AEAAXXZ 0000000180028410 f   leveldb:merger.obj
 0001:00027510       ?FindLargest@MergingIterator@?A0xa6fe79a5@leveldb@@AEAAXXZ 0000000180028510 f   leveldb:merger.obj
 0001:00027610       ?NewMergingIterator@leveldb@@YAPEAVIterator@1@PEBVComparator@1@PEAPEAV21@H@Z 0000000180028610 f   leveldb:merger.obj
 0001:000276a0       ?BuildTable@leveldb@@YA?AVStatus@1@AEBV?$basic_string@DU?$char_traits@D@std@@V?$allocator@D@2@@std@@PEAVEnv@1@AEBUOptions@1@PEAVTableCache@1@PEAVIterator@1@PEAUFileMetaData@1@@Z 00000001800286a0 f   leveldb:builder.obj
 0001:00027bb0       ??_EEnv@leveldb@@UEAAPEAXI@Z 0000000180028bb0 f i * CIL library *:* CIL module *
 0001:00027bb0       ??_GEnv@leveldb@@UEAAPEAXI@Z 0000000180028bb0 f i leveldb:env.obj
 0001:00027be0       ??1Env@leveldb@@UEAA@XZ    0000000180028be0 f   leveldb:env.obj
 0001:00027bf0       ??1Logger@leveldb@@UEAA@XZ 0000000180028bf0 f   leveldb:env.obj
 0001:00027bf0       ??1RandomAccessFile@leveldb@@UEAA@XZ 0000000180028bf0 f   leveldb:env.obj
 0001:00027bf0       ??1Reporter@Reader@log@leveldb@@UEAA@XZ 0000000180028bf0 f   leveldb:log_reader.obj
 0001:00027c00       ?Log@leveldb@@YAXPEAVLogger@1@PEBDZZ 0000000180028c00 f   leveldb:env.obj
 0001:00027e60       ?WriteStringToFileSync@leveldb@@YA?AVStatus@1@PEAVEnv@1@AEBVSlice@1@AEBV?$basic_string@DU?$char_traits@D@std@@V?$allocator@D@2@@std@@@Z 0000000180028e60 f   leveldb:env.obj
 0001:00027ea0       ?ReadFileToString@leveldb@@YA?AVStatus@1@PEAVEnv@1@AEBV?$basic_string@DU?$char_traits@D@std@@V?$allocator@D@2@@std@@PEAV45@@Z 0000000180028ea0 f   leveldb:env.obj
 0001:00028080       ?Snappy_Compress@port@leveldb@@YA_NPEBD_KPEAV?$basic_string@DU?$char_traits@D@std@@V?$allocator@D@2@@std@@@Z 0000000180029080 f i leveldb:table_builder.obj
 0001:000281b0       ??0Rep@TableBuilder@leveldb@@QEAA@AEBUOptions@2@PEAVWritableFile@2@@Z 00000001800291b0 f i leveldb:table_builder.obj
 0001:00028350       ??1BlockBuilder@leveldb@@QEAA@XZ 0000000180029350 f i leveldb:table_builder.obj
 0001:000283e0       ??0TableBuilder@leveldb@@QEAA@AEBUOptions@1@PEAVWritableFile@1@@Z 00000001800293e0 f   leveldb:table_builder.obj
 0001:00028450       ??1TableBuilder@leveldb@@QEAA@XZ 0000000180029450 f   leveldb:table_builder.obj
 0001:000284d0       ??1FilterBlockBuilder@leveldb@@QEAA@XZ 00000001800294d0 f i leveldb:table_builder.obj
 0001:00028590       ??1Rep@TableBuilder@leveldb@@QEAA@XZ 0000000180029590 f i leveldb:table_builder.obj
 0001:00028640       ?Add@TableBuilder@leveldb@@QEAAXAEBVSlice@2@0@Z 0000000180029640 f   leveldb:table_builder.obj
 0001:00028970       ?Flush@TableBuilder@leveldb@@QEAAXXZ 0000000180029970 f   leveldb:table_builder.obj
 0001:00028aa0       ?WriteBlock@TableBuilder@leveldb@@AEAAXPEAVBlockBuilder@2@PEAVBlockHandle@2@@Z 0000000180029aa0 f   leveldb:table_builder.obj
 0001:00028be0       ?WriteRawBlock@TableBuilder@leveldb@@AEAAXAEBVSlice@2@W4CompressionType@2@PEAVBlockHandle@2@@Z 0000000180029be0 f   leveldb:table_builder.obj
 0001:00028d50       ?status@TableBuilder@leveldb@@QEBA?AVStatus@2@XZ 0000000180029d50 f   leveldb:table_builder.obj
 0001:00028dd0       ?Finish@TableBuilder@leveldb@@QEAA?AVStatus@2@XZ 0000000180029dd0 f   leveldb:table_builder.obj
 0001:00029470       ??0Writer@log@leveldb@@QEAA@PEAVWritableFile@2@@Z 000000018002a470 f   leveldb:log_writer.obj
 0001:000294d0       ?AddRecord@Writer@log@leveldb@@QEAA?AVStatus@3@AEBVSlice@3@@Z 000000018002a4d0 f   leveldb:log_writer.obj
 0001:00029690       ?EmitPhysicalRecord@Writer@log@leveldb@@AEAA?AVStatus@3@W4RecordType@23@PEBD_K@Z 000000018002a690 f   leveldb:log_writer.obj
 0001:00029810       ??1Reader@log@leveldb@@QEAA@XZ 000000018002a810 f   leveldb:log_reader.obj
 0001:00029820       ?SkipToInitialBlock@Reader@log@leveldb@@AEAA_NXZ 000000018002a820 f   leveldb:log_reader.obj
 0001:000298d0       ?ReadRecord@Reader@log@leveldb@@QEAA_NPEAVSlice@3@PEAV?$basic_string@DU?$char_traits@D@std@@V?$allocator@D@2@@std@@@Z 000000018002a8d0 f   leveldb:log_reader.obj
 0001:00029bd0       ?ReportCorruption@Reader@log@leveldb@@AEAAX_KPEBD@Z 000000018002abd0 f   leveldb:log_reader.obj
 0001:00029c70       ?ReadPhysicalRecord@Reader@log@leveldb@@AEAAIPEAVSlice@3@@Z 000000018002ac70 f   leveldb:log_reader.obj
 0001:00029f30       ??0TableCache@leveldb@@QEAA@AEBV?$basic_string@DU?$char_traits@D@std@@V?$allocator@D@2@@std@@PEBUOptions@1@H@Z 000000018002af30 f   leveldb:table_cache.obj
 0001:00029fc0       ?FindTable@TableCache@leveldb@@AEAA?AVStatus@2@_K0PEAPEAUHandle@Cache@2@@Z 000000018002afc0 f   leveldb:table_cache.obj
 0001:0002a210       ?NewIterator@TableCache@leveldb@@QEAAPEAVIterator@2@AEBUReadOptions@2@_K1PEAPEAVTable@2@@Z 000000018002b210 f   leveldb:table_cache.obj
 0001:0002a3d0       ?Get@TableCache@leveldb@@QEAA?AVStatus@2@AEBUReadOptions@2@_K1AEBVSlice@2@PEAXP6AX322@Z@Z 000000018002b3d0 f   leveldb:table_cache.obj
 0001:0002a4a0       ?EncodeTo@VersionEdit@leveldb@@QEBAXPEAV?$basic_string@DU?$char_traits@D@std@@V?$allocator@D@2@@std@@@Z 000000018002b4a0 f   leveldb:version_edit.obj
 0001:0002a970       ?DecodeFrom@VersionEdit@leveldb@@QEAA?AVStatus@2@AEBVSlice@2@@Z 000000018002b970 f   leveldb:version_edit.obj
 0001:0002b550       ??_GWinLogger@leveldb@@UEAAPEAXI@Z 000000018002c550 f i leveldb:env_win.obj
 0001:0002b550       ??_EWinLogger@leveldb@@UEAAPEAXI@Z 000000018002c550 f i * CIL library *:* CIL module *
 0001:0002b760       ?Read@WinSequentialFile@leveldb@@UEAA?AVStatus@2@_KPEAVSlice@2@PEAD@Z 000000018002c760 f i leveldb:env_win.obj
 0001:0002b810       ?Skip@WinSequentialFile@leveldb@@UEAA?AVStatus@2@_K@Z 000000018002c810 f i leveldb:env_win.obj
 0001:0002b880       ??_EWinSequentialFile@leveldb@@UEAAPEAXI@Z 000000018002c880 f i * CIL library *:* CIL module *
 0001:0002b880       ??_GWinSequentialFile@leveldb@@UEAAPEAXI@Z 000000018002c880 f i leveldb:env_win.obj
 0001:0002b900       ?Read@WinRandomAccessFile@leveldb@@UEBA?AVStatus@2@_K0PEAVSlice@2@PEAD@Z 000000018002c900 f i leveldb:env_win.obj
 0001:0002ba60       ??_EWinRandomAccessFile@leveldb@@UEAAPEAXI@Z 000000018002ca60 f i * CIL library *:* CIL module *
 0001:0002ba60       ??_GWinRandomAccessFile@leveldb@@UEAAPEAXI@Z 000000018002ca60 f i leveldb:env_win.obj
 0001:0002bae0       ??0WinWritableFile@leveldb@@QEAA@V?$basic_string@DU?$char_traits@D@std@@V?$allocator@D@2@@std@@PEAX@Z 000000018002cae0 f i leveldb:env_win.obj
 0001:0002bba0       ?Append@WinWritableFile@leveldb@@UEAA?AVStatus@2@AEBVSlice@2@@Z 000000018002cba0 f i leveldb:env_win.obj
 0001:0002bcb0       ?Close@WinWritableFile@leveldb@@UEAA?AVStatus@2@XZ 000000018002ccb0 f i leveldb:env_win.obj
 0001:0002bd60       ?Sync@WinWritableFile@leveldb@@UEAA?AVStatus@2@XZ 000000018002cd60 f i leveldb:env_win.obj
 0001:0002bdc0       ??_GWinWritableFile@leveldb@@UEAAPEAXI@Z 000000018002cdc0 f i leveldb:env_win.obj
 0001:0002bdc0       ??_EWinWritableFile@leveldb@@UEAAPEAXI@Z 000000018002cdc0 f i * CIL library *:* CIL module *
 0001:0002be50       ?ToWcharFromCodePage@?A0x02d65cfe@leveldb@@YAPEA_WPEBDI@Z 000000018002ce50 f   leveldb:env_win.obj
 0001:0002bef0       ?ToUtf8@?A0x02d65cfe@leveldb@@YAPEADPEB_W@Z 000000018002cef0 f   leveldb:env_win.obj
 0001:0002c180       ??1WinFileLock@?A0x02d65cfe@leveldb@@UEAA@XZ 000000018002d180 f i leveldb:env_win.obj
 0001:0002c1f0       ??_GWinFileLock@?A0x02d65cfe@leveldb@@UEAAPEAXI@Z 000000018002d1f0 f i leveldb:env_win.obj
 0001:0002c1f0       ??_EWinFileLock@?A0x02d65cfe@leveldb@@UEAAPEAXI@Z 000000018002d1f0 f i * CIL library *:* CIL module *
 0001:0002c220       ??1WinEnv@?A0x02d65cfe@leveldb@@UEAA@XZ 000000018002d220 f i leveldb:env_win.obj
 0001:0002c2b0       ?NewSequentialFile@WinEnv@?A0x02d65cfe@leveldb@@UEAA?AVStatus@3@AEBV?$basic_string@DU?$char_traits@D@std@@V?$allocator@D@2@@std@@PEAPEAVSequentialFile@3@@Z 000000018002d2b0 f i leveldb:env_win.obj
 0001:0002c440       ?NewRandomAccessFile@WinEnv@?A0x02d65cfe@leveldb@@UEAA?AVStatus@3@AEBV?$basic_string@DU?$char_traits@D@std@@V?$allocator@D@2@@std@@PEAPEAVRandomAccessFile@3@@Z 000000018002d440 f i leveldb:env_win.obj
 0001:0002c5d0       ?NewWritableFile@WinEnv@?A0x02d65cfe@leveldb@@UEAA?AVStatus@3@AEBV?$basic_string@DU?$char_traits@D@std@@V?$allocator@D@2@@std@@PEAPEAVWritableFile@3@@Z 000000018002d5d0 f i leveldb:env_win.obj
 0001:0002c760       ?FileExists@WinEnv@?A0x02d65cfe@leveldb@@UEAA_NAEBV?$basic_string@DU?$char_traits@D@std@@V?$allocator@D@2@@std@@@Z 000000018002d760 f i leveldb:env_win.obj
 0001:0002c810       ?GetChildren@WinEnv@?A0x02d65cfe@leveldb@@UEAA?AVStatus@3@AEBV?$basic_string@DU?$char_traits@D@std@@V?$allocator@D@2@@std@@PEAV?$vector@V?$basic_string@DU?$char_traits@D@std@@V?$allocator@D@2@@std@@V?$allocator@V?$basic_string@DU?$char_traits@D@std@@V?$allocator@D@2@@std@@@2@@6@@Z 000000018002d810 f i leveldb:env_win.obj
 0001:0002ca90       ?DeleteFile@WinEnv@?A0x02d65cfe@leveldb@@UEAA?AVStatus@3@AEBV?$basic_string@DU?$char_traits@D@std@@V?$allocator@D@2@@std@@@Z 000000018002da90 f i leveldb:env_win.obj
 0001:0002cc00       ?GetPathParent@WinEnv@?A0x02d65cfe@leveldb@@QEAAPEA_WPEB_W@Z 000000018002dc00 f i leveldb:env_win.obj
 0001:0002ccb0       ?CreateDirRecursive@WinEnv@?A0x02d65cfe@leveldb@@QEAA_NPEA_W@Z 000000018002dcb0 f i leveldb:env_win.obj
 0001:0002cd60       ?CreateDir@WinEnv@?A0x02d65cfe@leveldb@@UEAA?AVStatus@3@AEBV?$basic_string@DU?$char_traits@D@std@@V?$allocator@D@2@@std@@@Z 000000018002dd60 f i leveldb:env_win.obj
 0001:0002ce70       ?DeleteDir@WinEnv@?A0x02d65cfe@leveldb@@UEAA?AVStatus@3@AEBV?$basic_string@DU?$char_traits@D@std@@V?$allocator@D@2@@std@@@Z 000000018002de70 f i leveldb:env_win.obj
 0001:0002cf70       ?GetFileSize@WinEnv@?A0x02d65cfe@leveldb@@UEAA?AVStatus@3@AEBV?$basic_string@DU?$char_traits@D@std@@V?$allocator@D@2@@std@@PEA_K@Z 000000018002df70 f i leveldb:env_win.obj
 0001:0002d150       ?RenameFile@WinEnv@?A0x02d65cfe@leveldb@@UEAA?AVStatus@3@AEBV?$basic_string@DU?$char_traits@D@std@@V?$allocator@D@2@@std@@0@Z 000000018002e150 f i leveldb:env_win.obj
 0001:0002d390       ?LockFile@WinEnv@?A0x02d65cfe@leveldb@@UEAA?AVStatus@3@AEBV?$basic_string@DU?$char_traits@D@std@@V?$allocator@D@2@@std@@PEAPEAVFileLock@3@@Z 000000018002e390 f i leveldb:env_win.obj
 0001:0002d590       ?UnlockFile@WinEnv@?A0x02d65cfe@leveldb@@UEAA?AVStatus@3@PEAVFileLock@3@@Z 000000018002e590 f i leveldb:env_win.obj
 0001:0002d6b0       ?GetTestDirectory@WinEnv@?A0x02d65cfe@leveldb@@UEAA?AVStatus@3@PEAV?$basic_string@DU?$char_traits@D@std@@V?$allocator@D@2@@std@@@Z 000000018002e6b0 f i leveldb:env_win.obj
 0001:0002d920       ?NewLogger@WinEnv@?A0x02d65cfe@leveldb@@UEAA?AVStatus@3@AEBV?$basic_string@DU?$char_traits@D@std@@V?$allocator@D@2@@std@@PEAPEAVLogger@3@@Z 000000018002e920 f i leveldb:env_win.obj
 0001:0002da30       ?NowMicros@WinEnv@?A0x02d65cfe@leveldb@@UEAA_KXZ 000000018002ea30 f i leveldb:env_win.obj
 0001:0002da60       ?SleepForMicroseconds@WinEnv@?A0x02d65cfe@leveldb@@UEAAXH@Z 000000018002ea60 f i leveldb:env_win.obj
 0001:0002da80       ?BGThreadWrapper@WinEnv@?A0x02d65cfe@leveldb@@CAIPEAX@Z 000000018002ea80 f i leveldb:env_win.obj
 0001:0002da90       ??_GWinEnv@?A0x02d65cfe@leveldb@@UEAAPEAXI@Z 000000018002ea90 f i leveldb:env_win.obj
 0001:0002da90       ??_EWinEnv@?A0x02d65cfe@leveldb@@UEAAPEAXI@Z 000000018002ea90 f i * CIL library *:* CIL module *
 0001:0002dac0       ??0WinEnv@?A0x02d65cfe@leveldb@@QEAA@XZ 000000018002eac0 f   leveldb:env_win.obj
 0001:0002db80       ?Schedule@WinEnv@?A0x02d65cfe@leveldb@@UEAAXP6AXPEAX@Z0@Z 000000018002eb80 f   leveldb:env_win.obj
 0001:0002dd30       ?BGThread@WinEnv@?A0x02d65cfe@leveldb@@AEAAXXZ 000000018002ed30 f   leveldb:env_win.obj
 0001:0002de50       ?StartThread@WinEnv@?A0x02d65cfe@leveldb@@UEAAXP6AXPEAX@Z0@Z 000000018002ee50 f   leveldb:env_win.obj
 0001:0002deb0       ?push_back@?$vector@V?$basic_string@DU?$char_traits@D@std@@V?$allocator@D@2@@std@@V?$allocator@V?$basic_string@DU?$char_traits@D@std@@V?$allocator@D@2@@std@@@2@@std@@QEAAX$$QEAV?$basic_string@DU?$char_traits@D@std@@V?$allocator@D@2@@2@@Z 000000018002eeb0 f i leveldb:env_win.obj
 0001:0002df80       ?clear@?$vector@V?$basic_string@DU?$char_traits@D@std@@V?$allocator@D@2@@std@@V?$allocator@V?$basic_string@DU?$char_traits@D@std@@V?$allocator@D@2@@std@@@2@@std@@QEAAXXZ 000000018002ef80 f i leveldb:env_win.obj
 0001:0002e000       ?_Growmap@?$deque@UBGItem@WinEnv@?A0x02d65cfe@leveldb@@V?$allocator@UBGItem@WinEnv@?A0x02d65cfe@leveldb@@@std@@@std@@IEAAX_K@Z 000000018002f000 f i leveldb:env_win.obj
 0001:0002e1c0       ??G?$_Deque_iterator@V?$_Deque_val@U?$_Deque_simple_types@UBGItem@WinEnv@?A0x02d65cfe@leveldb@@@std@@@std@@@std@@QEBA?AV01@_J@Z 000000018002f1c0 f i leveldb:env_win.obj
 0001:0002e210       ??$?HDU?$char_traits@D@std@@V?$allocator@D@1@@std@@YA?AV?$basic_string@DU?$char_traits@D@std@@V?$allocator@D@2@@0@PEBDAEBV10@@Z 000000018002f210 f i leveldb:env_win.obj
 0001:0002e2f0       ??1Arena@leveldb@@QEAA@XZ  000000018002f2f0 f   leveldb:arena.obj
 0001:0002e380       ?AllocateAligned@Arena@leveldb@@QEAAPEAD_K@Z 000000018002f380 f   leveldb:arena.obj
 0001:0002e440       ?AllocateNewBlock@Arena@leveldb@@AEAAPEAD_K@Z 000000018002f440 f   leveldb:arena.obj
 0001:0002e4f0       ?Open@Table@leveldb@@SA?AVStatus@2@AEBUOptions@2@PEAVRandomAccessFile@2@_KPEAPEAV12@@Z 000000018002f4f0 f   leveldb:table.obj
 0001:0002e910       ?ReadMeta@Table@leveldb@@AEAAXAEBVFooter@2@@Z 000000018002f910 f   leveldb:table.obj
 0001:0002eba0       ?ReadFilter@Table@leveldb@@AEAAXAEBVSlice@2@@Z 000000018002fba0 f   leveldb:table.obj
 0001:0002ed40       ??1Table@leveldb@@QEAA@XZ  000000018002fd40 f   leveldb:table.obj
 0001:0002ee20       ?BlockReader@Table@leveldb@@CAPEAVIterator@2@PEAXAEBUReadOptions@2@AEBVSlice@2@@Z 000000018002fe20 f   leveldb:table.obj
 0001:0002f270       ?InternalGet@Table@leveldb@@AEAA?AVStatus@2@AEBUReadOptions@2@AEBVSlice@2@PEAXP6AX211@Z@Z 0000000180030270 f   leveldb:table.obj
 0001:0002f4c0       ??0IteratorWrapper@leveldb@@QEAA@PEAVIterator@1@@Z 00000001800304c0 f i leveldb:two_level_iterator.obj
 0001:0002f550       ?Valid@TwoLevelIterator@?A0x38b2ba23@leveldb@@UEBA_NXZ 0000000180030550 f i leveldb:two_level_iterator.obj
 0001:0002f560       ?key@TwoLevelIterator@?A0x38b2ba23@leveldb@@UEBA?AVSlice@3@XZ 0000000180030560 f i leveldb:two_level_iterator.obj
 0001:0002f5d0       ?value@TwoLevelIterator@?A0x38b2ba23@leveldb@@UEBA?AVSlice@3@XZ 00000001800305d0 f i leveldb:two_level_iterator.obj
 0001:0002f640       ?status@TwoLevelIterator@?A0x38b2ba23@leveldb@@UEBA?AVStatus@3@XZ 0000000180030640 f i leveldb:two_level_iterator.obj
 0001:0002f730       ??0TwoLevelIterator@?A0x38b2ba23@leveldb@@QEAA@PEAVIterator@2@P6APEAV32@PEAXAEBUReadOptions@2@AEBVSlice@2@@Z12@Z 0000000180030730 f   leveldb:two_level_iterator.obj
 0001:0002f7f0       ??_GTwoLevelIterator@?A0x38b2ba23@leveldb@@UEAAPEAXI@Z 00000001800307f0 f i leveldb:two_level_iterator.obj
 0001:0002f7f0       ??_ETwoLevelIterator@?A0x38b2ba23@leveldb@@UEAAPEAXI@Z 00000001800307f0 f i * CIL library *:* CIL module *
 0001:0002f820       ??1TwoLevelIterator@?A0x38b2ba23@leveldb@@UEAA@XZ 0000000180030820 f   leveldb:two_level_iterator.obj
 0001:0002f900       ?Seek@TwoLevelIterator@?A0x38b2ba23@leveldb@@UEAAXAEBVSlice@3@@Z 0000000180030900 f   leveldb:two_level_iterator.obj
 0001:0002f9a0       ?SeekToFirst@TwoLevelIterator@?A0x38b2ba23@leveldb@@UEAAXXZ 00000001800309a0 f   leveldb:two_level_iterator.obj
 0001:0002fa50       ?SeekToLast@TwoLevelIterator@?A0x38b2ba23@leveldb@@UEAAXXZ 0000000180030a50 f   leveldb:two_level_iterator.obj
 0001:0002fb00       ?Next@TwoLevelIterator@?A0x38b2ba23@leveldb@@UEAAXXZ 0000000180030b00 f   leveldb:two_level_iterator.obj
 0001:0002fb90       ?Prev@TwoLevelIterator@?A0x38b2ba23@leveldb@@UEAAXXZ 0000000180030b90 f   leveldb:two_level_iterator.obj
 0001:0002fc20       ?SkipEmptyDataBlocksForward@TwoLevelIterator@?A0x38b2ba23@leveldb@@AEAAXXZ 0000000180030c20 f   leveldb:two_level_iterator.obj
 0001:0002fd60       ?SkipEmptyDataBlocksBackward@TwoLevelIterator@?A0x38b2ba23@leveldb@@AEAAXXZ 0000000180030d60 f   leveldb:two_level_iterator.obj
 0001:0002fea0       ?SetDataIterator@TwoLevelIterator@?A0x38b2ba23@leveldb@@AEAAXPEAVIterator@3@@Z 0000000180030ea0 f   leveldb:two_level_iterator.obj
 0001:0002ff60       ?InitDataBlock@TwoLevelIterator@?A0x38b2ba23@leveldb@@AEAAXXZ 0000000180030f60 f   leveldb:two_level_iterator.obj
 0001:00030080       ?StartBlock@FilterBlockBuilder@leveldb@@QEAAX_K@Z 0000000180031080 f   leveldb:filter_block.obj
 0001:00030490       ?AddKey@FilterBlockBuilder@leveldb@@QEAAXAEBVSlice@2@@Z 0000000180031490 f   leveldb:filter_block.obj
 0001:00030550       ?Finish@FilterBlockBuilder@leveldb@@QEAA?AVSlice@2@XZ 0000000180031550 f   leveldb:filter_block.obj
 0001:00030670       ?GenerateFilter@FilterBlockBuilder@leveldb@@AEAAXXZ 0000000180031670 f   leveldb:filter_block.obj
 0001:00030900       ?resize@?$vector@VSlice@leveldb@@V?$allocator@VSlice@leveldb@@@std@@@std@@QEAAX_K@Z 0000000180031900 f i leveldb:filter_block.obj
 0001:00030a30       ?_Reserve@?$vector@IV?$allocator@I@std@@@std@@IEAAX_K@Z 0000000180031a30 f i leveldb:filter_block.obj
 0001:00030ac0       ?_Reallocate@?$vector@VSlice@leveldb@@V?$allocator@VSlice@leveldb@@@std@@@std@@IEAAX_K@Z 0000000180031ac0 f i leveldb:filter_block.obj
 0001:00030b80       ?_Reallocate@?$vector@IV?$allocator@I@std@@@std@@IEAAX_K@Z 0000000180031b80 f i leveldb:filter_block.obj
 0001:00030c30       ?DecodeFrom@BlockHandle@leveldb@@QEAA?AVStatus@2@PEAVSlice@2@@Z 0000000180031c30 f   leveldb:format.obj
 0001:00030d10       ?EncodeTo@Footer@leveldb@@QEBAXPEAV?$basic_string@DU?$char_traits@D@std@@V?$allocator@D@2@@std@@@Z 0000000180031d10 f   leveldb:format.obj
 0001:00030e80       ?DecodeFrom@Footer@leveldb@@QEAA?AVStatus@2@PEAVSlice@2@@Z 0000000180031e80 f   leveldb:format.obj
 0001:00031020       ?ReadBlock@leveldb@@YA?AVStatus@1@PEAVRandomAccessFile@1@AEBUReadOptions@1@AEBVBlockHandle@1@PEAUBlockContents@1@@Z 0000000180032020 f   leveldb:format.obj
 0001:00031450       ??0BlockBuilder@leveldb@@QEAA@PEBUOptions@1@@Z 0000000180032450 f   leveldb:block_builder.obj
 0001:00031550       ?Reset@BlockBuilder@leveldb@@QEAAXXZ 0000000180032550 f   leveldb:block_builder.obj
 0001:00031630       ?Finish@BlockBuilder@leveldb@@QEAA?AVSlice@2@XZ 0000000180032630 f   leveldb:block_builder.obj
 0001:000316f0       ?Add@BlockBuilder@leveldb@@QEAAXAEBVSlice@2@0@Z 00000001800326f0 f   leveldb:block_builder.obj
 0001:000319f0       ?Extend@crc32c@leveldb@@YAIIPEBD_K@Z 00000001800329f0 f   leveldb:crc32c.obj
 0001:00031c50       ?Logv@WinLogger@leveldb@@UEAAXPEBDPEAD@Z 0000000180032c50 f   leveldb:win_logger.obj
 0001:00031f40       ?SeekToRestartPoint@Iter@Block@leveldb@@AEAAXI@Z 0000000180032f40 f i leveldb:block.obj
 0001:00031fc0       ??0Iter@Block@leveldb@@QEAA@PEBVComparator@2@PEBDII@Z 0000000180032fc0 f i leveldb:block.obj
 0001:00032060       ?Valid@Iter@Block@leveldb@@UEBA_NXZ 0000000180033060 f i leveldb:block.obj
 0001:00032070       ?status@Iter@Block@leveldb@@UEBA?AVStatus@3@XZ 0000000180033070 f i leveldb:block.obj
 0001:000320f0       ?key@Iter@Block@leveldb@@UEBA?AVSlice@3@XZ 00000001800330f0 f i leveldb:block.obj
 0001:00032150       ?value@Iter@Block@leveldb@@UEBA?AVSlice@3@XZ 0000000180033150 f i leveldb:block.obj
 0001:000321a0       ?Next@Iter@Block@leveldb@@UEAAXXZ 00000001800331a0 f i leveldb:block.obj
 0001:000321e0       ?Prev@Iter@Block@leveldb@@UEAAXXZ 00000001800331e0 f i leveldb:block.obj
 0001:000322b0       ?Seek@Iter@Block@leveldb@@UEAAXAEBVSlice@3@@Z 00000001800332b0 f i leveldb:block.obj
 0001:00032500       ?SeekToFirst@Iter@Block@leveldb@@UEAAXXZ 0000000180033500 f i leveldb:block.obj
 0001:00032580       ?SeekToLast@Iter@Block@leveldb@@UEAAXXZ 0000000180033580 f i leveldb:block.obj
 0001:000325c0       ?CorruptionError@Iter@Block@leveldb@@AEAAXXZ 00000001800335c0 f i leveldb:block.obj
 0001:000326b0       ?ParseNextKey@Iter@Block@leveldb@@AEAA_NXZ 00000001800336b0 f i leveldb:block.obj
 0001:00032820       ??_GIter@Block@leveldb@@UEAAPEAXI@Z 0000000180033820 f i leveldb:block.obj
 0001:00032820       ??_EIter@Block@leveldb@@UEAAPEAXI@Z 0000000180033820 f i * CIL library *:* CIL module *
 0001:00032850       ??1Iter@Block@leveldb@@UEAA@XZ 0000000180033850 f i leveldb:block.obj
 0001:000328f0       ?NewIterator@Block@leveldb@@QEAAPEAVIterator@2@PEBVComparator@2@@Z 00000001800338f0 f   leveldb:block.obj
 0001:000329e0       ?Log2Floor@Bits@snappy@@SAHI@Z 00000001800339e0 f i snappy:snappy.obj
 0001:00032a70       ??1WorkingMemory@internal@snappy@@QEAA@XZ 0000000180033a70 f i snappy:snappy.obj
 0001:00032ba0       ??_GSink@snappy@@UEAAPEAXI@Z 0000000180033ba0 f i snappy:snappy.obj
 0001:00032ba0       ??_ESink@snappy@@UEAAPEAXI@Z 0000000180033ba0 f i * CIL library *:* CIL module *
 0001:00032bd0       ??_EByteArraySource@snappy@@UEAAPEAXI@Z 0000000180033bd0 f i * CIL library *:* CIL module *
 0001:00032bd0       ??_GByteArraySource@snappy@@UEAAPEAXI@Z 0000000180033bd0 f i snappy:snappy.obj
 0001:00032c10       ??_GUncheckedByteArraySink@snappy@@UEAAPEAXI@Z 0000000180033c10 f i snappy:snappy.obj
 0001:00032c10       ??_EUncheckedByteArraySink@snappy@@UEAAPEAXI@Z 0000000180033c10 f i * CIL library *:* CIL module *
 0001:00032f70       ?CompressFragment@internal@snappy@@YAPEADPEBD_KPEADPEAGH@Z 0000000180033f70 f   snappy:snappy.obj
 0001:00033300       ??1SnappyDecompressor@snappy@@QEAA@XZ 0000000180034300 f i snappy:snappy.obj
 0001:00033310       ?RefillTag@SnappyDecompressor@snappy@@AEAA_NXZ 0000000180034310 f   snappy:snappy.obj
 0001:00033510       ?Compress@snappy@@YA_KPEAVSource@1@PEAVSink@1@@Z 0000000180034510 f   snappy:snappy.obj
 0001:00033900       ?AppendFromSelf@SnappyArrayWriter@snappy@@QEAA_N_K0@Z 0000000180034900 f i snappy:snappy.obj
 0001:00033b70       ??$DecompressAllTags@VSnappyArrayWriter@snappy@@@SnappyDecompressor@snappy@@QEAAXPEAVSnappyArrayWriter@1@@Z 0000000180034b70 f i snappy:snappy.obj
 0001:00033d80       ??1Sink@snappy@@UEAA@XZ    0000000180034d80 f   snappy:snappy-sinksource.obj
 0001:00033d90       ?GetAppendBuffer@Sink@snappy@@UEAAPEAD_KPEAD@Z 0000000180034d90 f   snappy:snappy-sinksource.obj
 0001:00033da0       ??1ByteArraySource@snappy@@UEAA@XZ 0000000180034da0 f   snappy:snappy-sinksource.obj
 0001:00033dd0       ?Available@ByteArraySource@snappy@@UEBA_KXZ 0000000180034dd0 f   snappy:snappy-sinksource.obj
 0001:00033de0       ?Peek@ByteArraySource@snappy@@UEAAPEBDPEA_K@Z 0000000180034de0 f   snappy:snappy-sinksource.obj
 0001:00033df0       ?Skip@ByteArraySource@snappy@@UEAAX_K@Z 0000000180034df0 f   snappy:snappy-sinksource.obj
 0001:00033e00       ??1UncheckedByteArraySink@snappy@@UEAA@XZ 0000000180034e00 f   snappy:snappy-sinksource.obj
 0001:00033e30       ?Append@UncheckedByteArraySink@snappy@@UEAAXPEBD_K@Z 0000000180034e30 f   snappy:snappy-sinksource.obj
 0001:00033e70       ?GetAppendBuffer@UncheckedByteArraySink@snappy@@UEAAPEAD_KPEAD@Z 0000000180034e70 f   snappy:snappy-sinksource.obj
 0001:00033e75       __imp_load_?Length@Buffer@node@@YA_KV?$Local@VObject@v8@@@v8@@@Z 0000000180034e75 f   node:node.exe
 0001:00033e81       __tailMerge_node_exe       0000000180034e81 f i node:node.exe
 0001:00033efa       __imp_load_?Data@Buffer@node@@YAPEADV?$Local@VObject@v8@@@v8@@@Z 0000000180034efa f   node:node.exe
 0001:00033f06       __imp_load_?HasInstance@Buffer@node@@YA_NV?$Local@VValue@v8@@@v8@@@Z 0000000180034f06 f   node:node.exe
 0001:00033f12       __imp_load_?HasInstance@Buffer@node@@YA_NV?$Local@VObject@v8@@@v8@@@Z 0000000180034f12 f   node:node.exe
 0001:00033f1e       __imp_load_?MakeCallback@node@@YA?AV?$Local@VValue@v8@@@v8@@PEAVIsolate@3@V?$Local@VObject@v8@@@3@V?$Local@VFunction@v8@@@3@HPEAV23@@Z 0000000180034f1e f   node:node.exe
 0001:00033f2a       __imp_load_uv_default_loop 0000000180034f2a f   node:node.exe
 0001:00033f36       __imp_load_?New@Signature@v8@@SA?AV?$Local@VSignature@v8@@@2@PEAVIsolate@2@V?$Local@VFunctionTemplate@v8@@@2@@Z 0000000180034f36 f   node:node.exe
 0001:00033f42       __imp_load_?Global@Context@v8@@QEAA?AV?$Local@VObject@v8@@@2@XZ 0000000180034f42 f   node:node.exe
 0001:00033f4e       __imp_load_?ToLocalEmpty@V8@v8@@CAXXZ 0000000180034f4e f   node:node.exe
 0001:00033f5a       __imp_load_?ClearWeak@V8@v8@@CAPEAXPEAPEAVObject@internal@2@@Z 0000000180034f5a f   node:node.exe
 0001:00033f66       __imp_load_?MakeWeak@V8@v8@@CAXPEAPEAVObject@internal@2@PEAXP6AXAEBV?$WeakCallbackInfo@X@2@@ZW4WeakCallbackType@2@@Z 0000000180034f66 f   node:node.exe
 0001:00033f72       __imp_load_?DisposeGlobal@V8@v8@@CAXPEAPEAVObject@internal@2@@Z 0000000180034f72 f   node:node.exe
 0001:00033f7e       __imp_load_?GlobalizeReference@V8@v8@@CAPEAPEAVObject@internal@2@PEAVIsolate@42@PEAPEAV342@@Z 0000000180034f7e f   node:node.exe
 0001:00033f8a       __imp_load_?Escape@EscapableHandleScope@v8@@AEAAPEAPEAVObject@internal@2@PEAPEAV342@@Z 0000000180034f8a f   node:node.exe
 0001:00033f96       __imp_load_??0EscapableHandleScope@v8@@QEAA@PEAVIsolate@1@@Z 0000000180034f96 f   node:node.exe
 0001:00033fa2       __imp_load_?BooleanValue@Value@v8@@QEBA_NXZ 0000000180034fa2 f   node:node.exe
 0001:00033fae       __imp_load_?IsObject@Value@v8@@QEBA_NXZ 0000000180034fae f   node:node.exe
 0001:00033fba       __imp_load_?SetClassName@FunctionTemplate@v8@@QEAAXV?$Local@VString@v8@@@2@@Z 0000000180034fba f   node:node.exe
 0001:00033fc6       __imp_load_?PrototypeTemplate@FunctionTemplate@v8@@QEAA?AV?$Local@VObjectTemplate@v8@@@2@XZ 0000000180034fc6 f   node:node.exe
 0001:00033fd2       __imp_load_?InstanceTemplate@FunctionTemplate@v8@@QEAA?AV?$Local@VObjectTemplate@v8@@@2@XZ 0000000180034fd2 f   node:node.exe
 0001:00033fde       __imp_load_?GetFunction@FunctionTemplate@v8@@QEAA?AV?$Local@VFunction@v8@@@2@XZ 0000000180034fde f   node:node.exe
 0001:00033fea       __imp_load_?New@FunctionTemplate@v8@@SA?AV?$Local@VFunctionTemplate@v8@@@2@PEAVIsolate@2@P6AXAEBV?$FunctionCallbackInfo@VValue@v8@@@2@@ZV?$Local@VValue@v8@@@2@V?$Local@VSignature@v8@@@2@HW4ConstructorBehavior@2@@Z 0000000180034fea f   node:node.exe
 0001:00033ff6       __imp_load_?NewFromUtf8@String@v8@@SA?AV?$MaybeLocal@VString@v8@@@2@PEAVIsolate@2@PEBDW4NewStringType@2@H@Z 0000000180034ff6 f   node:node.exe
 0001:00034002       __imp_load_?WriteUtf8@String@v8@@QEBAHPEADHPEAHH@Z 0000000180035002 f   node:node.exe
 0001:0003400e       __imp_load_?Utf8Length@String@v8@@QEBAHXZ 000000018003500e f   node:node.exe
 0001:0003401a       __imp_load_?CreateHandle@HandleScope@v8@@KAPEAPEAVObject@internal@2@PEAVIsolate@42@PEAV342@@Z 000000018003501a f   node:node.exe
 0001:00034026       __imp_load_?CreateHandle@HandleScope@v8@@CAPEAPEAVObject@internal@2@PEAVHeapObject@42@PEAV342@@Z 0000000180035026 f   node:node.exe
 0001:00034032       __imp_load_??1HandleScope@v8@@QEAA@XZ 0000000180035032 f   node:node.exe
 0001:0003403e       __imp_load_??0HandleScope@v8@@QEAA@PEAVIsolate@1@@Z 000000018003503e f   node:node.exe
 0001:0003404a       __imp_load_?SlowGetAlignedPointerFromInternalField@Object@v8@@AEAAPEAXH@Z 000000018003504a f   node:node.exe
 0001:00034056       __imp_load_?SlowGetInternalField@Object@v8@@AEAA?AV?$Local@VValue@v8@@@2@H@Z 0000000180035056 f   node:node.exe
 0001:00034062       __imp_load_?New@Object@v8@@SA?AV?$Local@VObject@v8@@@2@PEAVIsolate@2@@Z 0000000180035062 f   node:node.exe
 0001:0003406e       __imp_load_?SetAlignedPointerInInternalField@Object@v8@@QEAAXHPEAX@Z 000000018003506e f   node:node.exe
 0001:0003407a       __imp_load_?SetInternalField@Object@v8@@QEAAXHV?$Local@VValue@v8@@@2@@Z 000000018003507a f   node:node.exe
 0001:00034086       __imp_load_?InternalFieldCount@Object@v8@@QEAAHXZ 0000000180035086 f   node:node.exe
 0001:00034092       __imp_load_?Has@Object@v8@@QEAA_NV?$Local@VValue@v8@@@2@@Z 0000000180035092 f   node:node.exe
 0001:0003409e       __imp_load_?Get@Object@v8@@QEAA?AV?$Local@VValue@v8@@@2@V32@@Z 000000018003509e f   node:node.exe
 0001:000340aa       __imp_load_?Set@Object@v8@@QEAA_NV?$Local@VValue@v8@@@2@0@Z 00000001800350aa f   node:node.exe
 0001:000340b6       __imp_load_?Set@Object@v8@@QEAA?AV?$Maybe@_N@2@V?$Local@VContext@v8@@@2@IV?$Local@VValue@v8@@@2@@Z 00000001800350b6 f   node:node.exe
 0001:000340c2       __imp_load_?Set@Template@v8@@QEAAXV?$Local@VName@v8@@@2@V?$Local@VData@v8@@@2@W4PropertyAttribute@2@@Z 00000001800350c2 f   node:node.exe
 0001:000340ce       __imp_load_?SetInternalFieldCount@ObjectTemplate@v8@@QEAAXH@Z 00000001800350ce f   node:node.exe
 0001:000340da       __imp_load_?NewInstance@ObjectTemplate@v8@@QEAA?AV?$MaybeLocal@VObject@v8@@@2@V?$Local@VContext@v8@@@2@@Z 00000001800350da f   node:node.exe
 0001:000340e6       __imp_load_?New@ObjectTemplate@v8@@SA?AV?$Local@VObjectTemplate@v8@@@2@PEAVIsolate@2@V?$Local@VFunctionTemplate@v8@@@2@@Z 00000001800350e6 f   node:node.exe
 0001:000340f2       __imp_load_?NewInstance@Function@v8@@QEBA?AV?$Local@VObject@v8@@@2@HQEAV?$Local@VValue@v8@@@2@@Z 00000001800350f2 f   node:node.exe
 0001:000340fe       __imp_load_?GetCurrentContext@Isolate@v8@@QEAA?AV?$Local@VContext@v8@@@2@XZ 00000001800350fe f   node:node.exe
 0001:0003410a       __imp_load_?GetCurrent@Isolate@v8@@SAPEAV12@XZ 000000018003510a f   node:node.exe
 0001:00034116       __imp_load_?Value@External@v8@@QEBAPEAXXZ 0000000180035116 f   node:node.exe
 0001:00034122       __imp_load_?New@External@v8@@SA?AV?$Local@VExternal@v8@@@2@PEAVIsolate@2@PEAX@Z 0000000180035122 f   node:node.exe
 0001:0003412e       __imp_load_uv_queue_work   000000018003512e f   node:node.exe
 0001:0003413a       __imp_load_?ToObject@Value@v8@@QEBA?AV?$Local@VObject@v8@@@2@XZ 000000018003513a f   node:node.exe
 0001:00034146       __imp_load_?ToString@Value@v8@@QEBA?AV?$Local@VString@v8@@@2@XZ 0000000180035146 f   node:node.exe
 0001:00034152       __imp_load_??1EscapableHandleScope@v8@@QEAA@XZ 0000000180035152 f   node:node.exe
 0001:0003415e       __imp_load_?Error@Exception@v8@@SA?AV?$Local@VValue@v8@@@2@V?$Local@VString@v8@@@2@@Z 000000018003515e f   node:node.exe
 0001:0003416a       __imp_load_?Get@Object@v8@@QEAA?AV?$Local@VValue@v8@@@2@I@Z 000000018003516a f   node:node.exe
 0001:00034176       __imp_load_?HasCaught@TryCatch@v8@@QEBA_NXZ 0000000180035176 f   node:node.exe
 0001:00034182       __imp_load_??1TryCatch@v8@@QEAA@XZ 0000000180035182 f   node:node.exe
 0001:0003418e       __imp_load_??0TryCatch@v8@@QEAA@XZ 000000018003518e f   node:node.exe
 0001:0003419a       __imp_load_?StrictEquals@Value@v8@@QEBA_NV?$Local@VValue@v8@@@2@@Z 000000018003519a f   node:node.exe
 0001:000341a6       __imp_load_?Uint32Value@Value@v8@@QEBAIXZ 00000001800351a6 f   node:node.exe
 0001:000341b2       __imp_load_?IsNumber@Value@v8@@QEBA_NXZ 00000001800351b2 f   node:node.exe
 0001:000341be       __imp_load_?IsArray@Value@v8@@QEBA_NXZ 00000001800351be f   node:node.exe
 0001:000341ca       __imp_load_?IsFunction@Value@v8@@QEBA_NXZ 00000001800351ca f   node:node.exe
 0001:000341d6       __imp_load_?Length@String@v8@@QEBAHXZ 00000001800351d6 f   node:node.exe
 0001:000341e2       __imp_load_?Length@Array@v8@@QEBAIXZ 00000001800351e2 f   node:node.exe
 0001:000341ee       __imp_load_?New@Number@v8@@SA?AV?$Local@VNumber@v8@@@2@PEAVIsolate@2@N@Z 00000001800351ee f   node:node.exe
 0001:000341fa       __imp_load_?ThrowException@Isolate@v8@@QEAA?AV?$Local@VValue@v8@@@2@V32@@Z 00000001800351fa f   node:node.exe
 0001:00034206       __imp_load_?Copy@Buffer@node@@YA?AV?$MaybeLocal@VObject@v8@@@v8@@PEAVIsolate@4@PEBD_K@Z 0000000180035206 f   node:node.exe
 0001:00034212       __imp_load_?Int32Value@Value@v8@@QEBAHXZ 0000000180035212 f   node:node.exe
 0001:0003421e       __imp_load_?Value@Integer@v8@@QEBA_JXZ 000000018003521e f   node:node.exe
 0001:0003422a       __imp_load_?ToInteger@Value@v8@@QEBA?AV?$MaybeLocal@VInteger@v8@@@2@V?$Local@VContext@v8@@@2@@Z 000000018003522a f   node:node.exe
 0001:00034236       __imp_load_?New@Array@v8@@SA?AV?$Local@VArray@v8@@@2@PEAVIsolate@2@H@Z 0000000180035236 f   node:node.exe
 0001:00034242       __imp_load_?New@Integer@v8@@SA?AV?$Local@VInteger@v8@@@2@PEAVIsolate@2@H@Z 0000000180035242 f   node:node.exe
 0001:0003424e       __imp_load_node_module_register 000000018003524e f   node:node.exe
 0001:0003425c       ??0bad_alloc@std@@QEAA@AEBV01@@Z 000000018003525c f i libcpmt:xthrow.obj
 0001:00034280       ??0length_error@std@@QEAA@AEBV01@@Z 0000000180035280 f i libcpmt:xthrow.obj
 0001:000342a4       ??0logic_error@std@@QEAA@AEBV01@@Z 00000001800352a4 f i libcpmt:xthrow.obj
 0001:000342c8       ??0out_of_range@std@@QEAA@AEBV01@@Z 00000001800352c8 f i libcpmt:xthrow.obj
 0001:000342ec       ??1bad_alloc@std@@UEAA@XZ  00000001800352ec f i libcpmt:xthrow.obj
 0001:000342fc       ??1out_of_range@std@@UEAA@XZ 00000001800352fc f i libcpmt:xthrow.obj
 0001:000342fc       ??1length_error@std@@UEAA@XZ 00000001800352fc f i libcpmt:xthrow.obj
 0001:00034304       ??_Ebad_alloc@std@@UEAAPEAXI@Z 0000000180035304 f i libcpmt:xthrow.obj
 0001:00034304       ??_Gbad_alloc@std@@UEAAPEAXI@Z 0000000180035304 f i libcpmt:xthrow.obj
 0001:00034340       ??_Elogic_error@std@@UEAAPEAXI@Z 0000000180035340 f i libcpmt:xthrow.obj
 0001:00034340       ??_Eout_of_range@std@@UEAAPEAXI@Z 0000000180035340 f i libcpmt:xthrow.obj
 0001:00034340       ??_Glogic_error@std@@UEAAPEAXI@Z 0000000180035340 f i libcpmt:xthrow.obj
 0001:00034340       ??_Gout_of_range@std@@UEAAPEAXI@Z 0000000180035340 f i libcpmt:xthrow.obj
 0001:00034340       ??_Glength_error@std@@UEAAPEAXI@Z 0000000180035340 f i libcpmt:xthrow.obj
 0001:00034340       ??_Elength_error@std@@UEAAPEAXI@Z 0000000180035340 f i libcpmt:xthrow.obj
 0001:00034370       ?_Xbad_alloc@std@@YAXXZ    0000000180035370 f   libcpmt:xthrow.obj
 0001:000343b4       ?_Xlength_error@std@@YAXPEBD@Z 00000001800353b4 f   libcpmt:xthrow.obj
 0001:000343ec       ?_Xout_of_range@std@@YAXPEBD@Z 00000001800353ec f   libcpmt:xthrow.obj
 0001:00034424       ??_U@YAPEAX_K@Z            0000000180035424 f   libcpmt:newaop.obj
 0001:00034440       __security_check_cookie    0000000180035440 f   LIBCMT:amdsecgs.obj
 0001:00034470       memcpy                     0000000180035470 f   LIBCMT:memcpy.obj
 0001:00034470       memmove                    0000000180035470 f   LIBCMT:memcpy.obj
 0001:000349d8       _wassert                   00000001800359d8 f   LIBCMT:wassert.obj
 0001:0003533c       __onexitinit               000000018003633c f   LIBCMT:onexit.obj
 0001:00035380       _onexit                    0000000180036380 f   LIBCMT:onexit.obj
 0001:0003548c       atexit                     000000018003648c f   LIBCMT:onexit.obj
 0001:000354a4       ??_V@YAXPEAX@Z             00000001800364a4 f   LIBCMT:delete2.obj
 0001:000354ac       _purecall                  00000001800364ac f   LIBCMT:purevirt.obj
 0001:000354d8       ??3@YAXPEAX@Z              00000001800364d8 f   LIBCMT:delete.obj
 0001:000354e0       ??2@YAPEAX_K@Z             00000001800364e0 f   LIBCMT:new.obj
 0001:0003554c       free                       000000018003654c f   LIBCMT:free.obj
 0001:0003558c       malloc                     000000018003658c f   LIBCMT:malloc.obj
 0001:00035644       ??0_LocaleUpdate@@QEAA@PEAUlocaleinfo_struct@@@Z 0000000180036644 f i LIBCMT:stricmp.obj
 0001:000356ec       __ascii_stricmp            00000001800366ec f   LIBCMT:stricmp.obj
 0001:00035728       _stricmp                   0000000180036728 f   LIBCMT:stricmp.obj
 0001:00035770       _stricmp_l                 0000000180036770 f   LIBCMT:stricmp.obj
 0001:00035824       _CRT_INIT                  0000000180036824 f   LIBCMT:dllcrt0.obj
 0001:00035984       _DllMainCRTStartup         0000000180036984 f   LIBCMT:dllcrt0.obj
 0001:00035ae4       _snprintf                  0000000180036ae4 f   LIBCMT:snprintf.obj
 0001:00035b98       ??_M@YAXPEAX_KHP6AX0@Z@Z   0000000180036b98 f   LIBCMT:ehvecdtr.obj
 0001:00035bf8       ?__ArrayUnwind@@YAXPEAX_KHP6AX0@Z@Z 0000000180036bf8 f   LIBCMT:ehvecdtr.obj
 0001:00035c44       ??_L@YAXPEAX_KHP6AX0@Z2@Z  0000000180036c44 f   LIBCMT:ehvecctr.obj
 0001:00035cac       strrchr                    0000000180036cac f   LIBCMT:strrchr.obj
 0001:00035df0       _set_abort_behavior        0000000180036df0 f   LIBCMT:abort.obj
 0001:00035e0c       abort                      0000000180036e0c f   LIBCMT:abort.obj
 0001:00035e64       __initstdio                0000000180036e64 f   LIBCMT:_file.obj
 0001:00035efc       __endstdio                 0000000180036efc f   LIBCMT:_file.obj
 0001:00035f2c       __iob_func                 0000000180036f2c f   LIBCMT:_file.obj
 0001:00035f34       _lock_file                 0000000180036f34 f   LIBCMT:_file.obj
 0001:00035f9c       _lock_file2                0000000180036f9c f   LIBCMT:_file.obj
 0001:00035fd0       _unlock_file               0000000180036fd0 f   LIBCMT:_file.obj
 0001:00036020       _unlock_file2              0000000180037020 f   LIBCMT:_file.obj
 0001:00036040       fprintf                    0000000180037040 f   LIBCMT:fprintf.obj
 0001:00036168       strerror                   0000000180037168 f   LIBCMT:strerror.obj
 0001:00036204       __doserrno                 0000000180037204 f   LIBCMT:dosmap.obj
 0001:00036224       _dosmaperr                 0000000180037224 f   LIBCMT:dosmap.obj
 0001:00036274       _errno                     0000000180037274 f   LIBCMT:dosmap.obj
 0001:00036294       _get_errno_from_oserr      0000000180037294 f   LIBCMT:dosmap.obj
 0001:000362e4       _beginthreadex             00000001800372e4 f   LIBCMT:threadex.obj
 0001:00036400       _endthreadex               0000000180037400 f   LIBCMT:threadex.obj
 0001:00036594       _fsopen                    0000000180037594 f   LIBCMT:fopen.obj
 0001:0003666c       fopen                      000000018003766c f   LIBCMT:fopen.obj
 0001:00036678       _fclose_nolock             0000000180037678 f   LIBCMT:fclose.obj
 0001:000366f4       fclose                     00000001800376f4 f   LIBCMT:fclose.obj
 0001:0003675c       _snprintf_s                000000018003775c f   LIBCMT:sprintf.obj
 0001:00036780       _fflush_nolock             0000000180037780 f   LIBCMT:fflush.obj
 0001:000367cc       _flush                     00000001800377cc f   LIBCMT:fflush.obj
 0001:00036848       _flushall                  0000000180037848 f   LIBCMT:fflush.obj
 0001:00036854       fflush                     0000000180037854 f   LIBCMT:fflush.obj
 0001:00036980       _fwrite_nolock             0000000180037980 f   LIBCMT:fwrite.obj
 0001:00036b10       fwrite                     0000000180037b10 f   LIBCMT:fwrite.obj
 0001:00036bb0       strlen                     0000000180037bb0 f   LIBCMT:strlen.obj
 0001:00036c58       _CxxThrowException         0000000180037c58 f   LIBCMT:throw.obj
 0001:00036d20       ?_GetEstablisherFrame@@YAPEA_KPEA_KPEAU_xDISPATCHER_CONTEXT@@PEBU_s_FuncInfo@@0@Z 0000000180037d20 f   LIBCMT:trnsctrl.obj
 0001:00036dec       ?_GetRangeOfTrysToCheck@@YAPEBU_s_TryBlockMapEntry@@PEA_KPEBU_s_FuncInfo@@HHPEAI2PEAU_xDISPATCHER_CONTEXT@@@Z 0000000180037dec f   LIBCMT:trnsctrl.obj
 0001:00036f18       ?__FrameUnwindToEmptyState@@YAXPEA_KPEAU_xDISPATCHER_CONTEXT@@PEBU_s_FuncInfo@@@Z 0000000180037f18 f   LIBCMT:trnsctrl.obj
 0001:00036fac       ?__SehTransFilter@@YAHPEAU_EXCEPTION_POINTERS@@PEAUEHExceptionRecord@@PEA_KPEAU_CONTEXT@@PEAU_xDISPATCHER_CONTEXT@@PEBU_s_FuncInfo@@PEAH@Z 0000000180037fac f   LIBCMT:trnsctrl.obj
 0001:00037050       _CallSETranslator          0000000180038050 f   LIBCMT:trnsctrl.obj
 0001:000370a4       _CreateFrameInfo           00000001800380a4 f   LIBCMT:trnsctrl.obj
 0001:000370e8       _FindAndUnlinkFrame        00000001800380e8 f   LIBCMT:trnsctrl.obj
 0001:00037148       _GetImageBase              0000000180038148 f   LIBCMT:trnsctrl.obj
 0001:00037160       _GetThrowImageBase         0000000180038160 f   LIBCMT:trnsctrl.obj
 0001:00037178       _IsExceptionObjectToBeDestroyed 0000000180038178 f   LIBCMT:trnsctrl.obj
 0001:000371ac       _SetImageBase              00000001800381ac f   LIBCMT:trnsctrl.obj
 0001:000371c8       _SetThrowImageBase         00000001800381c8 f   LIBCMT:trnsctrl.obj
 0001:000371e4       _UnwindNestedFrames        00000001800381e4 f   LIBCMT:trnsctrl.obj
 0001:00037308       __CxxFrameHandler3         0000000180038308 f   LIBCMT:trnsctrl.obj
 0001:00037390       ??8type_info@@QEBA_NAEBV0@@Z 0000000180038390 f   LIBCMT:typinfo.obj
 0001:000373b0       ??_Gtype_info@@UEAAPEAXI@Z 00000001800383b0 f i LIBCMT:typinfo.obj
 0001:000373b0       ??_Etype_info@@UEAAPEAXI@Z 00000001800383b0 f i LIBCMT:typinfo.obj
 0001:000373ec       _fpmath                    00000001800383ec f   LIBCMT:fpinit.obj
 0001:000373f4       _cfltcvt_init              00000001800383f4 f   LIBCMT:fpinit.obj
 0001:0003747c       ??0exception@std@@QEAA@AEBQEBD@Z 000000018003847c f   LIBCMT:stdexcpt.obj
 0001:000374ac       ??0exception@std@@QEAA@AEBQEBDH@Z 00000001800384ac f   LIBCMT:stdexcpt.obj
 0001:000374c8       ??0exception@std@@QEAA@AEBV01@@Z 00000001800384c8 f   LIBCMT:stdexcpt.obj
 0001:000374f4       ??1exception@std@@UEAA@XZ  00000001800384f4 f   LIBCMT:stdexcpt.obj
 0001:00037504       ??4exception@std@@QEAAAEAV01@AEBV01@@Z 0000000180038504 f   LIBCMT:stdexcpt.obj
 0001:00037548       ??_Gexception@std@@UEAAPEAXI@Z 0000000180038548 f i LIBCMT:stdexcpt.obj
 0001:00037548       ??_Eexception@std@@UEAAPEAXI@Z 0000000180038548 f i LIBCMT:stdexcpt.obj
 0001:00037584       ?_Copy_str@exception@std@@AEAAXPEBD@Z 0000000180038584 f   LIBCMT:stdexcpt.obj
 0001:000375e0       ?_Tidy@exception@std@@AEAAXXZ 00000001800385e0 f   LIBCMT:stdexcpt.obj
 0001:00037608       ?what@exception@std@@UEBAPEBDXZ 0000000180038608 f   LIBCMT:stdexcpt.obj
 0001:0003761c       __raise_securityfailure    000000018003861c f   LIBCMT:gs_report.obj
 0001:00037668       __report_gsfailure         0000000180038668 f   LIBCMT:gs_report.obj
 0001:0003773c       __isa_available_init       000000018003873c f   LIBCMT:cpu_disp.obj
 0001:000378e0       _call_reportfault          00000001800388e0 f   LIBCMT:invarg.obj
 0001:000379d4       _initp_misc_invarg         00000001800389d4 f   LIBCMT:invarg.obj
 0001:000379dc       _invalid_parameter         00000001800389dc f   LIBCMT:invarg.obj
 0001:00037a44       _invalid_parameter_noinfo  0000000180038a44 f   LIBCMT:invarg.obj
 0001:00037a64       _invoke_watson             0000000180038a64 f   LIBCMT:invarg.obj
 0001:00037aa0       memcpy_s                   0000000180038aa0 f   LIBCMT:memcpy_s.obj
 0001:00037b28       wcscat_s                   0000000180038b28 f   LIBCMT:wcscat_s.obj
 0001:00037bb0       wcscpy_s                   0000000180038bb0 f   LIBCMT:wcscpy_s.obj
 0001:00037c1c       wcslen                     0000000180038c1c f   LIBCMT:wcslen.obj
 0001:00037c38       wcsncat_s                  0000000180038c38 f   LIBCMT:wcsncat_s.obj
 0001:00037d20       __copy_path_to_wide_string 0000000180038d20 f   LIBCMT:crt0dat.obj
 0001:00037e20       __crtCorExitProcess        0000000180038e20 f   LIBCMT:crt0dat.obj
 0001:00037e64       __crtExitProcess           0000000180038e64 f   LIBCMT:crt0dat.obj
 0001:00037e7c       __freeCrtMemory            0000000180038e7c f   LIBCMT:crt0dat.obj
 0001:00037fc4       _amsg_exit                 0000000180038fc4 f   LIBCMT:crt0dat.obj
 0001:00037fec       _cexit                     0000000180038fec f   LIBCMT:crt0dat.obj
 0001:00037ffc       _cinit                     0000000180038ffc f   LIBCMT:crt0dat.obj
 0001:00038094       _exit                      0000000180039094 f   LIBCMT:crt0dat.obj
 0001:000380a0       _init_pointers             00000001800390a0 f   LIBCMT:crt0dat.obj
 0001:0003814c       _initterm_e                000000018003914c f   LIBCMT:crt0dat.obj
 0001:00038188       _lockexit                  0000000180039188 f   LIBCMT:crt0dat.obj
 0001:00038194       _unlockexit                0000000180039194 f   LIBCMT:crt0dat.obj
 0001:00038338       _set_error_mode            0000000180039338 f   LIBCMT:errmode.obj
 0001:00038378       _itow_s                    0000000180039378 f   LIBCMT:xtows.obj
 0001:000384b0       setvbuf                    00000001800394b0 f   LIBCMT:setvbuf.obj
 0001:000385c8       fwprintf                   00000001800395c8 f   LIBCMT:fwprintf.obj
 0001:0003865c       _vswprintf_c_l             000000018003965c f   LIBCMT:vswprnc.obj
 0001:00038694       _vswprintf_helper          0000000180039694 f   LIBCMT:vswprnc.obj
 0001:000387b0       __get_sigabrt              00000001800397b0 f   LIBCMT:winsig.obj
 0001:000387c0       _initp_misc_winsig         00000001800397c0 f   LIBCMT:winsig.obj
 0001:000387e0       raise                      00000001800397e0 f   LIBCMT:winsig.obj
 0001:00038a14       __crtMessageBoxW           0000000180039a14 f   LIBCMT:crtmboxw.obj
 0001:00038c88       __GSHandlerCheck           0000000180039c88 f   LIBCMT:gshandler.obj
 0001:00038ca8       __GSHandlerCheckCommon     0000000180039ca8 f   LIBCMT:gshandler.obj
 0001:00038d0c       _FF_MSGBANNER              0000000180039d0c f   LIBCMT:crt0msg.obj
 0001:00038d50       _GET_RTERRMSG              0000000180039d50 f   LIBCMT:crt0msg.obj
 0001:00038d80       _NMSG_WRITE                0000000180039d80 f   LIBCMT:crt0msg.obj
 0001:00038ff0       _msize                     0000000180039ff0 f   LIBCMT:msize.obj
 0001:0003902c       _calloc_crt                000000018003a02c f   LIBCMT:crtheap.obj
 0001:000390ac       _malloc_crt                000000018003a0ac f   LIBCMT:crtheap.obj
 0001:00039128       _realloc_crt               000000018003a128 f   LIBCMT:crtheap.obj
 0001:000391ac       __C_specific_handler       000000018003a1ac f   LIBCMT:chandler.obj
 0001:00039390       _initp_misc_purevirt       000000018003a390 f   LIBCMT:inithelp.obj
 0001:00039398       _callnewh                  000000018003a398 f   LIBCMT:handler.obj
 0001:000393cc       _initp_heap_handler        000000018003a3cc f   LIBCMT:handler.obj
 0001:000393d4       _heap_init                 000000018003a3d4 f   LIBCMT:heapinit.obj
 0001:000393f4       _heap_term                 000000018003a3f4 f   LIBCMT:heapinit.obj
 0001:00039400       __addlocaleref             000000018003a400 f   LIBCMT:localref.obj
 0001:0003948c       __freetlocinfo             000000018003a48c f   LIBCMT:localref.obj
 0001:00039624       __removelocaleref          000000018003a624 f   LIBCMT:localref.obj
 0001:000396c8       __updatetlocinfo           000000018003a6c8 f   LIBCMT:localref.obj
 0001:00039740       _updatetlocinfoEx_nolock   000000018003a740 f   LIBCMT:localref.obj
 0001:000397a4       __initmbctable             000000018003a7a4 f   LIBCMT:mbctype.obj
 0001:00039ac0       __updatetmbcinfo           000000018003aac0 f   LIBCMT:mbctype.obj
 0001:00039b7c       _setmbcp                   000000018003ab7c f   LIBCMT:mbctype.obj
 0001:00039dc0       _setmbcp_nolock            000000018003adc0 f   LIBCMT:mbctype.obj
 0001:0003a070       _tolower_l                 000000018003b070 f   LIBCMT:tolower.obj
 0001:0003a1c4       tolower                    000000018003b1c4 f   LIBCMT:tolower.obj
 0001:0003a1e4       __get_flsindex             000000018003b1e4 f   LIBCMT:tidtable.obj
 0001:0003a1ec       _freefls                   000000018003b1ec f   LIBCMT:tidtable.obj
 0001:0003a320       _freeptd                   000000018003b320 f   LIBCMT:tidtable.obj
 0001:0003a35c       _getptd                    000000018003b35c f   LIBCMT:tidtable.obj
 0001:0003a380       _getptd_noexit             000000018003b380 f   LIBCMT:tidtable.obj
 0001:0003a404       _initptd                   000000018003b404 f   LIBCMT:tidtable.obj
 0001:0003a4c8       _mtinit                    000000018003b4c8 f   LIBCMT:tidtable.obj
 0001:0003a548       _mtterm                    000000018003b548 f   LIBCMT:tidtable.obj
 0001:0003a56c       _locterm                   000000018003b56c f   LIBCMT:wsetloca.obj
 0001:0003a5b4       _XcptFilter                000000018003b5b4 f   LIBCMT:winxfltr.obj
 0001:0003a780       __CppXcptFilter            000000018003b780 f   LIBCMT:winxfltr.obj
 0001:0003a794       _ioinit                    000000018003b794 f   LIBCMT:ioinit.obj
 0001:0003aac4       _ioterm                    000000018003bac4 f   LIBCMT:ioinit.obj
 0001:0003ab38       _setargv                   000000018003bb38 f   LIBCMT:stdargv.obj
 0001:0003adf4       _setenvp                   000000018003bdf4 f   LIBCMT:stdenvp.obj
 0001:0003af28       __security_init_cookie     000000018003bf28 f   LIBCMT:gs_support.obj
 0001:0003afd4       DllMain                    000000018003bfd4 f   LIBCMT:dllmain.obj
 0001:0003afdc       __crtGetEnvironmentStringsA 000000018003bfdc f   LIBCMT:a_env.obj
 0001:0003b0d0       __crtCaptureCurrentContext 000000018003c0d0 f   LIBCMT:winapisupp.obj
 0001:0003b140       __crtCapturePreviousContext 000000018003c140 f   LIBCMT:winapisupp.obj
 0001:0003b1b4       __crtFlsAlloc              000000018003c1b4 f   LIBCMT:winapisupp.obj
 0001:0003b1d0       __crtFlsFree               000000018003c1d0 f   LIBCMT:winapisupp.obj
 0001:0003b1ec       __crtFlsGetValue           000000018003c1ec f   LIBCMT:winapisupp.obj
 0001:0003b208       __crtFlsSetValue           000000018003c208 f   LIBCMT:winapisupp.obj
 0001:0003b224       __crtInitializeCriticalSectionEx 000000018003c224 f   LIBCMT:winapisupp.obj
 0001:0003b250       __crtIsPackagedApp         000000018003c250 f   LIBCMT:winapisupp.obj
 0001:0003b29c       __crtLoadWinApiPointers    000000018003c29c f   LIBCMT:winapisupp.obj
 0001:0003b698       __crtSleep                 000000018003c698 f   LIBCMT:winapisupp.obj
 0001:0003b6a0       __crtTerminateProcess      000000018003c6a0 f   LIBCMT:winapisupp.obj
 0001:0003b6c0       __crtUnhandledException    000000018003c6c0 f   LIBCMT:winapisupp.obj
 0001:0003b6e0       _RTC_Initialize            000000018003c6e0 f   LIBCMT:initsect.obj
 0001:0003b718       _RTC_Terminate             000000018003c718 f   LIBCMT:initsect.obj
 0001:0003b750       _flsbuf                    000000018003c750 f   LIBCMT:_flsbuf.obj
 0001:0003b8dc       vsnprintf                  000000018003c8dc f   LIBCMT:vsnprint.obj
 0001:0003b8dc       _vsnprintf                 000000018003c8dc f   LIBCMT:vsnprint.obj
 0001:0003b8f4       _vsnprintf_l               000000018003c8f4 f   LIBCMT:vsnprint.obj
 0001:0003b9c0       _output_l                  000000018003c9c0 f   LIBCMT:output.obj
 0001:0003c510       memset                     000000018003d510 f   LIBCMT:memset.obj
 0001:0003c73c       ?_inconsistency@@YAXXZ     000000018003d73c f   LIBCMT:hooks.obj
 0001:0003c75c       ?terminate@@YAXXZ          000000018003d75c f   LIBCMT:hooks.obj
 0001:0003c77c       _initp_eh_hooks            000000018003d77c f   LIBCMT:hooks.obj
 0001:0003c79c       _fcloseall                 000000018003d79c f   LIBCMT:closeall.obj
 0001:0003c844       _lock                      000000018003d844 f   LIBCMT:mlock.obj
 0001:0003c888       _mtdeletelocks             000000018003d888 f   LIBCMT:mlock.obj
 0001:0003c910       _mtinitlocknum             000000018003d910 f   LIBCMT:mlock.obj
 0001:0003c9d0       _mtinitlocks               000000018003d9d0 f   LIBCMT:mlock.obj
 0001:0003ca34       _unlock                    000000018003da34 f   LIBCMT:mlock.obj
 0001:0003ca4c       _fileno                    000000018003da4c f   LIBCMT:fileno.obj
 0001:0003ca74       _ftbuf                     000000018003da74 f   LIBCMT:_sftbuf.obj
 0001:0003caac       _stbuf                     000000018003daac f   LIBCMT:_sftbuf.obj
 0001:0003cb7c       __sys_errlist              000000018003db7c f   LIBCMT:syserr.obj
 0001:0003cb84       __sys_nerr                 000000018003db84 f   LIBCMT:syserr.obj
 0001:0003cb8c       strcpy_s                   000000018003db8c f   LIBCMT:strcpy_s.obj
 0001:0003cbf0       _getstream                 000000018003dbf0 f   LIBCMT:stream.obj
 0001:0003cd28       _openfile                  000000018003dd28 f   LIBCMT:_open.obj
 0001:0003d000       _local_unwind              000000018003e000 f   LIBCMT:jmpuwind.obj
 0001:0003d030       _NLG_Notify                000000018003e030 f   LIBCMT:jmpuwind.obj
 0001:0003d050       __NLG_Dispatch2            000000018003e050 f   LIBCMT:jmpuwind.obj
 0001:0003d060       __NLG_Return2              000000018003e060 f   LIBCMT:jmpuwind.obj
 0001:0003d064       _close                     000000018003e064 f   LIBCMT:close.obj
 0001:0003d128       _close_nolock              000000018003e128 f   LIBCMT:close.obj
 0001:0003d1e4       _freebuf                   000000018003e1e4 f   LIBCMT:_freebuf.obj
 0001:0003d21c       _vsnprintf_helper          000000018003e21c f   LIBCMT:vsnprnc.obj
 0001:0003d304       _vsnprintf_s_l             000000018003e304 f   LIBCMT:vsnprnc.obj
 0001:0003d44c       _commit                    000000018003e44c f   LIBCMT:commit.obj
 0001:0003d524       _write                     000000018003e524 f   LIBCMT:write.obj
 0001:0003d608       _write_nolock              000000018003e608 f   LIBCMT:write.obj
 0001:0003ddfc       __DestructExceptionObject  000000018003edfc f   LIBCMT:frame.obj
 0001:0003de6c       ??0bad_exception@std@@QEAA@AEBV01@@Z 000000018003ee6c f i LIBCMT:frame.obj
 0001:0003de90       ??1bad_exception@std@@UEAA@XZ 000000018003ee90 f i LIBCMT:frame.obj
 0001:0003dea0       ??_Ebad_exception@std@@UEAAPEAXI@Z 000000018003eea0 f i LIBCMT:frame.obj
 0001:0003dea0       ??_Gbad_exception@std@@UEAAPEAXI@Z 000000018003eea0 f i LIBCMT:frame.obj
 0001:0003e794       __AdjustPointer            000000018003f794 f   LIBCMT:frame.obj
 0001:0003e7b8       __BuildCatchObject         000000018003f7b8 f   LIBCMT:frame.obj
 0001:0003e870       __BuildCatchObjectHelper   000000018003f870 f   LIBCMT:frame.obj
 0001:0003eac0       __CxxCallCatchBlock        000000018003fac0 f   LIBCMT:frame.obj
 0001:0003ecc4       __FrameUnwindFilter        000000018003fcc4 f   LIBCMT:frame.obj
 0001:0003ed18       __FrameUnwindToState       000000018003fd18 f   LIBCMT:frame.obj
 0001:0003eeac       __InternalCxxFrameHandler  000000018003feac f   LIBCMT:frame.obj
 0001:0003f0d0       __TypeMatch                00000001800400d0 f   LIBCMT:frame.obj
 0001:0003f200       ?__GetCurrentState@@YAHPEA_KPEAU_xDISPATCHER_CONTEXT@@PEBU_s_FuncInfo@@@Z 0000000180040200 f   LIBCMT:ehstate.obj
 0001:0003f228       ?__GetUnwindTryBlock@@YAHPEA_KPEAU_xDISPATCHER_CONTEXT@@PEBU_s_FuncInfo@@@Z 0000000180040228 f   LIBCMT:ehstate.obj
 0001:0003f254       ?__SetState@@YAXPEA_KPEAU_xDISPATCHER_CONTEXT@@PEBU_s_FuncInfo@@H@Z 0000000180040254 f   LIBCMT:ehstate.obj
 0001:0003f260       ?__SetUnwindTryBlock@@YAXPEA_KPEAU_xDISPATCHER_CONTEXT@@PEBU_s_FuncInfo@@H@Z 0000000180040260 f   LIBCMT:ehstate.obj
 0001:0003f29c       ?__StateFromControlPc@@YAHPEBU_s_FuncInfo@@PEAU_xDISPATCHER_CONTEXT@@@Z 000000018004029c f   LIBCMT:ehstate.obj
 0001:0003f2a4       ?__StateFromIp@@YAHPEBU_s_FuncInfo@@PEAU_xDISPATCHER_CONTEXT@@_J@Z 00000001800402a4 f   LIBCMT:ehstate.obj
 0001:0003f340       strcmp                     0000000180040340 f   LIBCMT:strcmp.obj
 0001:0003f3a8       ?_Type_info_dtor@type_info@@CAXPEAV1@@Z 00000001800403a8 f   LIBCMT:typname.obj
 0001:0003f414       _cfltcvt                   0000000180040414 f   LIBCMT:cvt.obj
 0001:0003f438       _cfltcvt_l                 0000000180040438 f   LIBCMT:cvt.obj
 0001:0003f4b8       _cftoa_l                   00000001800404b8 f   LIBCMT:cvt.obj
 0001:0003fa64       _cftoe_l                   0000000180040a64 f   LIBCMT:cvt.obj
 0001:0003fcc0       _cftof_l                   0000000180040cc0 f   LIBCMT:cvt.obj
 0001:0003fd94       _cftog_l                   0000000180040d94 f   LIBCMT:cvt.obj
 0001:0003fec8       _cropzeros                 0000000180040ec8 f   LIBCMT:cvt.obj
 0001:0003fed0       _cropzeros_l               0000000180040ed0 f   LIBCMT:cvt.obj
 0001:0003ff68       _fassign                   0000000180040f68 f   LIBCMT:cvt.obj
 0001:0003ff70       _fassign_l                 0000000180040f70 f   LIBCMT:cvt.obj
 0001:0003ffb0       _forcdecpt                 0000000180040fb0 f   LIBCMT:cvt.obj
 0001:0003ffb8       _forcdecpt_l               0000000180040fb8 f   LIBCMT:cvt.obj
 0001:00040038       _positive                  0000000180041038 f   LIBCMT:cvt.obj
 0001:0004004c       _initp_misc_cfltcvt_tab    000000018004104c f   LIBCMT:cmiscdat.obj
 0001:00040088       __crt_debugger_hook        0000000180041088 f   LIBCMT:dbghook.obj
 0001:00040090       _FindPESection             0000000180041090 f   LIBCMT:pesect.obj
 0001:000400e0       _IsNonwritableInCurrentImage 00000001800410e0 f   LIBCMT:pesect.obj
 0001:00040130       _ValidateImageBase         0000000180041130 f   LIBCMT:pesect.obj
 0001:00040160       _initp_misc_rand_s         0000000180041160 f   LIBCMT:rand_s.obj
 0001:00040168       _woutput_l                 0000000180041168 f   LIBCMT:woutput.obj
 0001:00040d28       wcsncpy_s                  0000000180041d28 f   LIBCMT:wcsncpy_s.obj
 0001:00040df4       realloc                    0000000180041df4 f   LIBCMT:realloc.obj
 0001:00040ec8       _calloc_impl               0000000180041ec8 f   LIBCMT:calloc_impl.obj
 0001:00040f64       GetTableIndexFromLocaleName 0000000180041f64 f   LIBCMT:winapinls.obj
 0001:00040ff0       __crtDownlevelLocaleNameToLCID 0000000180041ff0 f   LIBCMT:winapinls.obj
 0001:00041024       __crtLCMapStringEx         0000000180042024 f   LIBCMT:winapinls.obj
 0001:000410b4       __wcsnicmp_ascii           00000001800420b4 f   LIBCMT:winapinls.obj
 0001:00041120       _get_fpsr                  0000000180042120 f   LIBCMT:fpsr.obj
 0001:00041130       _set_fpsr                  0000000180042130 f   LIBCMT:fpsr.obj
 0001:0004113a       _fclrf                     000000018004213a f   LIBCMT:fpsr.obj
 0001:0004114e       _frnd                      000000018004214e f   LIBCMT:fpsr.obj
 0001:00041170       __free_lconv_mon           0000000180042170 f   LIBCMT:initmon.obj
 0001:0004127c       __free_lconv_num           000000018004227c f   LIBCMT:initnum.obj
 0001:000412e8       __free_lc_time             00000001800422e8 f   LIBCMT:inittime.obj
 0001:000419d0       __crtLCMapStringA          00000001800429d0 f   LIBCMT:a_map.obj
 0001:00041be0       __crtGetStringTypeA        0000000180042be0 f   LIBCMT:a_str.obj
 0001:00041c5c       _isctype_l                 0000000180042c5c f   LIBCMT:isctype.obj
 0001:00041d38       _isleadbyte_l              0000000180042d38 f i LIBCMT:_wctype.obj
 0001:00041d7c       isleadbyte                 0000000180042d7c f i LIBCMT:_wctype.obj
 0001:00041de0       memcmp                     0000000180042de0 f   LIBCMT:memcmp.obj
 0001:00041f24       _ismbblead                 0000000180042f24 f   LIBCMT:ismbbyte.obj
 0001:00041f38       _isatty                    0000000180042f38 f   LIBCMT:isatty.obj
 0001:00041f98       _lseeki64                  0000000180042f98 f   LIBCMT:lseeki64.obj
 0001:00042080       _lseeki64_nolock           0000000180043080 f   LIBCMT:lseeki64.obj
 0001:00042114       _getbuf                    0000000180043114 f   LIBCMT:_getbuf.obj
 0001:00042168       _get_printf_count_output   0000000180043168 f   LIBCMT:printf.obj
 0001:00042180       _wctomb_s_l                0000000180043180 f   LIBCMT:wctomb.obj
 0001:0004230c       wctomb_s                   000000018004330c f   LIBCMT:wctomb.obj
 0001:00042320       _output_s_l                0000000180043320 f   LIBCMT:outputs.obj
 0001:00042d48       _sopen_helper              0000000180043d48 f   LIBCMT:open.obj
 0001:00042e28       _sopen_nolock              0000000180043e28 f   LIBCMT:open.obj
 0001:00042eb0       _sopen_s                   0000000180043eb0 f   LIBCMT:open.obj
 0001:00042ee4       _mbsnbcmp                  0000000180043ee4 f   LIBCMT:mbsnbcmp.obj
 0001:00042eec       _mbsnbcmp_l                0000000180043eec f   LIBCMT:mbsnbcmp.obj
 0001:00043018       _mbsnbicmp                 0000000180044018 f   LIBCMT:mbsnbicm.obj
 0001:00043020       _mbsnbicmp_l               0000000180044020 f   LIBCMT:mbsnbicm.obj
 0001:000431d0       __lock_fhandle             00000001800441d0 f   LIBCMT:osfinfo.obj
 0001:00043268       _alloc_osfhnd              0000000180044268 f   LIBCMT:osfinfo.obj
 0001:00043460       _free_osfhnd               0000000180044460 f   LIBCMT:osfinfo.obj
 0001:0004350c       _get_osfhandle             000000018004450c f   LIBCMT:osfinfo.obj
 0001:00043580       _set_osfhnd                0000000180044580 f   LIBCMT:osfinfo.obj
 0001:00043630       _unlock_fhandle            0000000180044630 f   LIBCMT:osfinfo.obj
 0001:0004365c       _mbtowc_l                  000000018004465c f   LIBCMT:mbtowc.obj
 0001:000437b0       mbtowc                     00000001800447b0 f   LIBCMT:mbtowc.obj
 0001:000437b8       _putwch_nolock             00000001800447b8 f   LIBCMT:putwch.obj
 0001:00043830       _alloca_probe              0000000180044830 f   LIBCMT:chkstk.obj
 0001:00043830       __chkstk                   0000000180044830 f   LIBCMT:chkstk.obj
 0001:00043880       ?_ValidateRead@@YAHPEBXI@Z 0000000180044880 f   LIBCMT:validate.obj
 0001:00043880       ?_ValidateWrite@@YAHPEAXI@Z 0000000180044880 f   LIBCMT:validate.obj
 0001:00043880       ?_ValidateExecute@@YAHP6A_JXZ@Z 0000000180044880 f   LIBCMT:validate.obj
 0001:000438a0       _CallSettingFrame          00000001800448a0 f   LIBCMT:handlers.obj
 0001:000438e0       _GetNextInstrOffset        00000001800448e0 f   LIBCMT:handlers.obj
 0001:000438e8       isdigit                    00000001800448e8 f i LIBCMT:_ctype.obj
 0001:00043964       _fptostr                   0000000180044964 f   LIBCMT:_fptostr.obj
 0001:00043a30       __crt_atoflt_l             0000000180044a30 f   LIBCMT:atodbl.obj
 0001:00043b00       _atodbl_l                  0000000180044b00 f   LIBCMT:atodbl.obj
 0001:00043bc8       _atoflt_l                  0000000180044bc8 f   LIBCMT:atodbl.obj
 0001:00043bd0       __dtold                    0000000180044bd0 f   LIBCMT:cfout.obj
 0001:00043ca0       _fltout2                   0000000180044ca0 f   LIBCMT:cfout.obj
 0001:00043d58       _fptrap                    0000000180044d58 f   LIBCMT:crt0fp.obj
 0001:00043d64       _fputwc_nolock             0000000180044d64 f   LIBCMT:fputwc.obj
 0001:00044048       _wsopen_nolock             0000000180045048 f   LIBCMT:wopen.obj
 0001:00044810       strncmp                    0000000180045810 f   LIBCMT:strncmp.obj
 0001:00044890       __ascii_strnicmp           0000000180045890 f   LIBCMT:strnicmp.obj
 0001:000448d8       _strnicmp                  00000001800458d8 f   LIBCMT:strnicmp.obj
 0001:00044928       _strnicmp_l                0000000180045928 f   LIBCMT:strnicmp.obj
 0001:00044a04       __termconout               0000000180045a04 f   LIBCMT:initcon.obj
 0001:00044a24       __initconout               0000000180045a24 f   LIBCMT:initcon.obj
 0001:00044a60       _ld12tod                   0000000180045a60 f   LIBCMT:intrncvt.obj
 0001:00045018       _ld12tof                   0000000180046018 f   LIBCMT:intrncvt.obj
 0001:000455d0       __strgtold12_l             00000001800465d0 f   LIBCMT:strgtold.obj
 0001:00045e34       $I10_OUTPUT                0000000180046e34 f   LIBCMT:x10fout.obj
 0001:0004690c       _flswbuf                   000000018004790c f   LIBCMT:_flswbuf.obj
 0001:00046a9c       _chsize_nolock             0000000180047a9c f   LIBCMT:chsize.obj
 0001:00046c34       _read_nolock               0000000180047c34 f   LIBCMT:read.obj
 0001:000474a4       _get_fmode                 00000001800484a4 f   LIBCMT:setmode.obj
 0001:000474d4       _setmode_nolock            00000001800484d4 f   LIBCMT:setmode.obj
 0001:000475b0       __mtold12                  00000001800485b0 f   LIBCMT:mantold.obj
 0001:000477e0       IsProcessorFeaturePresent  00000001800487e0 f   kernel32:KERNEL32.dll
 0001:000477e6       RtlUnwindEx                00000001800487e6 f   kernel32:KERNEL32.dll
 0001:000477ec       __delayLoadHelper2         00000001800487ec f   DelayImp:delayhlp.obj
 0001:00047a83       __imp_load_uv_cond_wait    0000000180048a83 f   node:node.exe
 0001:00047a8f       __imp_load_uv_mutex_unlock 0000000180048a8f f   node:node.exe
 0001:00047a9b       __imp_load_uv_mutex_lock   0000000180048a9b f   node:node.exe
 0001:00047aa7       __imp_load_uv_mutex_destroy 0000000180048aa7 f   node:node.exe
 0001:00047ab3       __imp_load_uv_once         0000000180048ab3 f   node:node.exe
 0001:00047abf       __imp_load_uv_cond_broadcast 0000000180048abf f   node:node.exe
 0001:00047acb       __imp_load_uv_cond_signal  0000000180048acb f   node:node.exe
 0001:00047ad7       __imp_load_uv_mutex_init   0000000180048ad7 f   node:node.exe
 0001:00047ae3       __imp_load_uv_cond_destroy 0000000180048ae3 f   node:node.exe
 0001:00047aef       __imp_load_uv_cond_init    0000000180048aef f   node:node.exe
 0001:00047afc       __GSHandlerCheck_EH        0000000180048afc f   LIBCMT:gshandlereh.obj
 0002:00000000       __imp_GetModuleHandleA     0000000180050000     kernel32:KERNEL32.dll
 0002:00000008       __imp_FindFirstFileW       0000000180050008     kernel32:KERNEL32.dll
 0002:00000010       __imp_MoveFileExW          0000000180050010     kernel32:KERNEL32.dll
 0002:00000018       __imp_SetFilePointerEx     0000000180050018     kernel32:KERNEL32.dll
 0002:00000020       __imp_QueryPerformanceCounter 0000000180050020     kernel32:KERNEL32.dll
 0002:00000028       __imp_CreateDirectoryW     0000000180050028     kernel32:KERNEL32.dll
 0002:00000030       __imp_FormatMessageA       0000000180050030     kernel32:KERNEL32.dll
 0002:00000038       __imp_WriteFile            0000000180050038     kernel32:KERNEL32.dll
 0002:00000040       __imp_WideCharToMultiByte  0000000180050040     kernel32:KERNEL32.dll
 0002:00000048       __imp_Sleep                0000000180050048     kernel32:KERNEL32.dll
 0002:00000050       __imp_ReadFile             0000000180050050     kernel32:KERNEL32.dll
 0002:00000058       __imp_CreateFileW          0000000180050058     kernel32:KERNEL32.dll
 0002:00000060       __imp_MultiByteToWideChar  0000000180050060     kernel32:KERNEL32.dll
 0002:00000068       __imp_FlushFileBuffers     0000000180050068     kernel32:KERNEL32.dll
 0002:00000070       __imp_GetTempPathW         0000000180050070     kernel32:KERNEL32.dll
 0002:00000078       __imp_GetFileSizeEx        0000000180050078     kernel32:KERNEL32.dll
 0002:00000080       __imp_GetLastError         0000000180050080     kernel32:KERNEL32.dll
 0002:00000088       __imp_FindClose            0000000180050088     kernel32:KERNEL32.dll
 0002:00000090       __imp_RemoveDirectoryW     0000000180050090     kernel32:KERNEL32.dll
 0002:00000098       __imp_FindNextFileW        0000000180050098     kernel32:KERNEL32.dll
 0002:000000a0       __imp_GetFileAttributesExW 00000001800500a0     kernel32:KERNEL32.dll
 0002:000000a8       __imp_QueryPerformanceFrequency 00000001800500a8     kernel32:KERNEL32.dll
 0002:000000b0       __imp_CloseHandle          00000001800500b0     kernel32:KERNEL32.dll
 0002:000000b8       __imp_DeleteFileW          00000001800500b8     kernel32:KERNEL32.dll
 0002:000000c0       __imp_LocalFree            00000001800500c0     kernel32:KERNEL32.dll
 0002:000000c8       __imp_GetLocalTime         00000001800500c8     kernel32:KERNEL32.dll
 0002:000000d0       __imp_GetCurrentThreadId   00000001800500d0     kernel32:KERNEL32.dll
 0002:000000d8       __imp_GetStdHandle         00000001800500d8     kernel32:KERNEL32.dll
 0002:000000e0       __imp_GetFileType          00000001800500e0     kernel32:KERNEL32.dll
 0002:000000e8       __imp_GetModuleFileNameW   00000001800500e8     kernel32:KERNEL32.dll
 0002:000000f0       __imp_GetModuleHandleExW   00000001800500f0     kernel32:KERNEL32.dll
 0002:000000f8       __imp_WriteConsoleW        00000001800500f8     kernel32:KERNEL32.dll
 0002:00000100       __imp_EncodePointer        0000000180050100     kernel32:KERNEL32.dll
 0002:00000108       __imp_DecodePointer        0000000180050108     kernel32:KERNEL32.dll
 0002:00000110       __imp_HeapFree             0000000180050110     kernel32:KERNEL32.dll
 0002:00000118       __imp_HeapAlloc            0000000180050118     kernel32:KERNEL32.dll
 0002:00000120       __imp_GetCommandLineA      0000000180050120     kernel32:KERNEL32.dll
 0002:00000128       __imp_IsProcessorFeaturePresent 0000000180050128     kernel32:KERNEL32.dll
 0002:00000130       __imp_EnterCriticalSection 0000000180050130     kernel32:KERNEL32.dll
 0002:00000138       __imp_LeaveCriticalSection 0000000180050138     kernel32:KERNEL32.dll
 0002:00000140       __imp_CreateThread         0000000180050140     kernel32:KERNEL32.dll
 0002:00000148       __imp_ExitThread           0000000180050148     kernel32:KERNEL32.dll
 0002:00000150       __imp_GetProcAddress       0000000180050150     kernel32:KERNEL32.dll
 0002:00000158       __imp_LoadLibraryExW       0000000180050158     kernel32:KERNEL32.dll
 0002:00000160       __imp_RtlPcToFileHeader    0000000180050160     kernel32:KERNEL32.dll
 0002:00000168       __imp_RaiseException       0000000180050168     kernel32:KERNEL32.dll
 0002:00000170       __imp_RtlLookupFunctionEntry 0000000180050170     kernel32:KERNEL32.dll
 0002:00000178       __imp_RtlUnwindEx          0000000180050178     kernel32:KERNEL32.dll
 0002:00000180       __imp_IsDebuggerPresent    0000000180050180     kernel32:KERNEL32.dll
 0002:00000188       __imp_ExitProcess          0000000180050188     kernel32:KERNEL32.dll
 0002:00000190       __imp_AreFileApisANSI      0000000180050190     kernel32:KERNEL32.dll
 0002:00000198       __imp_OutputDebugStringW   0000000180050198     kernel32:KERNEL32.dll
 0002:000001a0       __imp_HeapSize             00000001800501a0     kernel32:KERNEL32.dll
 0002:000001a8       __imp_GetProcessHeap       00000001800501a8     kernel32:KERNEL32.dll
 0002:000001b0       __imp_IsValidCodePage      00000001800501b0     kernel32:KERNEL32.dll
 0002:000001b8       __imp_GetACP               00000001800501b8     kernel32:KERNEL32.dll
 0002:000001c0       __imp_GetOEMCP             00000001800501c0     kernel32:KERNEL32.dll
 0002:000001c8       __imp_GetCPInfo            00000001800501c8     kernel32:KERNEL32.dll
 0002:000001d0       __imp_SetLastError         00000001800501d0     kernel32:KERNEL32.dll
 0002:000001d8       __imp_DeleteCriticalSection 00000001800501d8     kernel32:KERNEL32.dll
 0002:000001e0       __imp_GetStartupInfoW      00000001800501e0     kernel32:KERNEL32.dll
 0002:000001e8       __imp_GetModuleFileNameA   00000001800501e8     kernel32:KERNEL32.dll
 0002:000001f0       __imp_GetCurrentProcessId  00000001800501f0     kernel32:KERNEL32.dll
 0002:000001f8       __imp_GetSystemTimeAsFileTime 00000001800501f8     kernel32:KERNEL32.dll
 0002:00000200       __imp_GetEnvironmentStringsW 0000000180050200     kernel32:KERNEL32.dll
 0002:00000208       __imp_FreeEnvironmentStringsW 0000000180050208     kernel32:KERNEL32.dll
 0002:00000210       __imp_RtlCaptureContext    0000000180050210     kernel32:KERNEL32.dll
 0002:00000218       __imp_RtlVirtualUnwind     0000000180050218     kernel32:KERNEL32.dll
 0002:00000220       __imp_UnhandledExceptionFilter 0000000180050220     kernel32:KERNEL32.dll
 0002:00000228       __imp_SetUnhandledExceptionFilter 0000000180050228     kernel32:KERNEL32.dll
 0002:00000230       __imp_InitializeCriticalSectionAndSpinCount 0000000180050230     kernel32:KERNEL32.dll
 0002:00000238       __imp_GetCurrentProcess    0000000180050238     kernel32:KERNEL32.dll
 0002:00000240       __imp_TerminateProcess     0000000180050240     kernel32:KERNEL32.dll
 0002:00000248       __imp_TlsAlloc             0000000180050248     kernel32:KERNEL32.dll
 0002:00000250       __imp_TlsGetValue          0000000180050250     kernel32:KERNEL32.dll
 0002:00000258       __imp_TlsSetValue          0000000180050258     kernel32:KERNEL32.dll
 0002:00000260       __imp_TlsFree              0000000180050260     kernel32:KERNEL32.dll
 0002:00000268       __imp_GetModuleHandleW     0000000180050268     kernel32:KERNEL32.dll
 0002:00000270       __imp_GetConsoleCP         0000000180050270     kernel32:KERNEL32.dll
 0002:00000278       __imp_GetConsoleMode       0000000180050278     kernel32:KERNEL32.dll
 0002:00000280       __imp_FreeLibrary          0000000180050280     kernel32:KERNEL32.dll
 0002:00000288       __imp_HeapReAlloc          0000000180050288     kernel32:KERNEL32.dll
 0002:00000290       __imp_LCMapStringW         0000000180050290     kernel32:KERNEL32.dll
 0002:00000298       __imp_GetStringTypeW       0000000180050298     kernel32:KERNEL32.dll
 0002:000002a0       __imp_SetStdHandle         00000001800502a0     kernel32:KERNEL32.dll
 0002:000002a8       __imp_SetEndOfFile         00000001800502a8     kernel32:KERNEL32.dll
 0002:000002b0       __imp_ReadConsoleW         00000001800502b0     kernel32:KERNEL32.dll
 0002:000002b8       __imp_LoadLibraryExA       00000001800502b8     kernel32:KERNEL32.dll
 0002:000002c0       \177KERNEL32_NULL_THUNK_DATA 00000001800502c0     kernel32:KERNEL32.dll
 0002:000002c8       __xc_a                     00000001800502c8     LIBCMT:crt0init.obj
 0002:000002d0       _register_leveldown_       00000001800502d0     leveldown.obj
 0002:000002f8       __xc_z                     00000001800502f8     LIBCMT:crt0init.obj
 0002:00000300       __xi_a                     0000000180050300     LIBCMT:crt0init.obj
 0002:00000328       __xi_z                     0000000180050328     LIBCMT:crt0init.obj
 0002:00000330       __xp_a                     0000000180050330     LIBCMT:crt0init.obj
 0002:00000350       __xp_z                     0000000180050350     LIBCMT:crt0init.obj
 0002:00000358       __xt_a                     0000000180050358     LIBCMT:crt0init.obj
 0002:00000360       __xt_z                     0000000180050360     LIBCMT:crt0init.obj
 0002:000003b0       __sz_node_exe              00000001800503b0     node:node.exe
 0002:00000d60       ??_C@_0BC@CIJDGCDI@permission?5denied?$AA@ 0000000180050d60     libcpmt:syserror.obj
 0002:00000d78       ??_C@_0M@MIDIAGJP@file?5exists?$AA@ 0000000180050d78     libcpmt:syserror.obj
 0002:00000d88       ??_C@_0P@FDINDDOK@no?5such?5device?$AA@ 0000000180050d88     libcpmt:syserror.obj
 0002:00000d98       ??_C@_0BC@EJHOMAAK@filename?5too?5long?$AA@ 0000000180050d98     libcpmt:syserror.obj
 0002:00000db0       ??_C@_0BI@NGCEHDD@device?5or?5resource?5busy?$AA@ 0000000180050db0     libcpmt:syserror.obj
 0002:00000dc8       ??_C@_08GLNPIFBN@io?5error?$AA@ 0000000180050dc8     libcpmt:syserror.obj
 0002:00000dd8       ??_C@_0BE@JIDOCPHM@directory?5not?5empty?$AA@ 0000000180050dd8     libcpmt:syserror.obj
 0002:00000df0       ??_C@_0BB@FCMFBGOM@invalid?5argument?$AA@ 0000000180050df0     libcpmt:syserror.obj
 0002:00000e08       ??_C@_0BD@IJDJKDEA@no?5space?5on?5device?$AA@ 0000000180050e08     libcpmt:syserror.obj
 0002:00000e20       ??_C@_0BK@NDOCBPGE@no?5such?5file?5or?5directory?$AA@ 0000000180050e20     libcpmt:syserror.obj
 0002:00000e40       ??_C@_0BH@KEFGLDAF@function?5not?5supported?$AA@ 0000000180050e40     libcpmt:syserror.obj
 0002:00000e58       ??_C@_0BC@NJECKMKE@no?5lock?5available?$AA@ 0000000180050e58     libcpmt:syserror.obj
 0002:00000e70       ??_C@_0BC@ENOOLCNF@not?5enough?5memory?$AA@ 0000000180050e70     libcpmt:syserror.obj
 0002:00000e88       ??_C@_0BP@LKNGHENJ@resource?5unavailable?5try?5again?$AA@ 0000000180050e88     libcpmt:syserror.obj
 0002:00000ea8       ??_C@_0BC@PPHBOELF@cross?5device?5link?$AA@ 0000000180050ea8     libcpmt:syserror.obj
 0002:00000ec0       ??_C@_0BD@MOLBPMEA@operation?5canceled?$AA@ 0000000180050ec0     libcpmt:syserror.obj
 0002:00000ed8       ??_C@_0BE@GHAFMPAH@too?5many?5files?5open?$AA@ 0000000180050ed8     libcpmt:syserror.obj
 0002:00000ef0       ??_C@_0BC@FNODOBAE@permission_denied?$AA@ 0000000180050ef0     libcpmt:syserror.obj
 0002:00000f08       ??_C@_0P@LNDJPBFK@address_in_use?$AA@ 0000000180050f08     libcpmt:syserror.obj
 0002:00000f18       ??_C@_0BG@IPMGOJF@address_not_available?$AA@ 0000000180050f18     libcpmt:syserror.obj
 0002:00000f30       ??_C@_0BN@LCBDHODA@address_family_not_supported?$AA@ 0000000180050f30     libcpmt:syserror.obj
 0002:00000f50       ??_C@_0BP@FOJJHMCC@connection_already_in_progress?$AA@ 0000000180050f50     libcpmt:syserror.obj
 0002:00000f70       ??_C@_0BE@DLHHIBGN@bad_file_descriptor?$AA@ 0000000180050f70     libcpmt:syserror.obj
 0002:00000f88       ??_C@_0BD@OJMJDIGI@connection_aborted?$AA@ 0000000180050f88     libcpmt:syserror.obj
 0002:00000fa0       ??_C@_0BD@NGKCIFEP@connection_refused?$AA@ 0000000180050fa0     libcpmt:syserror.obj
 0002:00000fb8       ??_C@_0BB@JOANDNCK@connection_reset?$AA@ 0000000180050fb8     libcpmt:syserror.obj
 0002:00000fd0       ??_C@_0BN@JLJNLKLK@destination_address_required?$AA@ 0000000180050fd0     libcpmt:syserror.obj
 0002:00000ff0       ??_C@_0M@IJGMGFGP@bad_address?$AA@ 0000000180050ff0     libcpmt:syserror.obj
 0002:00001000       ??_C@_0BB@KKNHPPIN@host_unreachable?$AA@ 0000000180051000     libcpmt:syserror.obj
 0002:00001018       ??_C@_0BG@DJGBJIIK@operation_in_progress?$AA@ 0000000180051018     libcpmt:syserror.obj
 0002:00001030       ??_C@_0M@EGEKIIMP@interrupted?$AA@ 0000000180051030     libcpmt:syserror.obj
 0002:00001040       ??_C@_0BB@FFIHMIPJ@invalid_argument?$AA@ 0000000180051040     libcpmt:syserror.obj
 0002:00001058       ??_C@_0BC@FIFLCHLO@already_connected?$AA@ 0000000180051058     libcpmt:syserror.obj
 0002:00001070       ??_C@_0BE@GJJJJDDA@too_many_files_open?$AA@ 0000000180051070     libcpmt:syserror.obj
 0002:00001088       ??_C@_0N@HPMLKHPL@message_size?$AA@ 0000000180051088     libcpmt:syserror.obj
 0002:00001098       ??_C@_0BC@LEEIKBAL@filename_too_long?$AA@ 0000000180051098     libcpmt:syserror.obj
 0002:000010b0       ??_C@_0N@FCPALPJK@network_down?$AA@ 00000001800510b0     libcpmt:syserror.obj
 0002:000010c0       ??_C@_0O@EHNDLHIG@network_reset?$AA@ 00000001800510c0     libcpmt:syserror.obj
 0002:000010d0       ??_C@_0BE@JFNJIDNF@network_unreachable?$AA@ 00000001800510d0     libcpmt:syserror.obj
 0002:000010e8       ??_C@_0BA@FDIJKJCL@no_buffer_space?$AA@ 00000001800510e8     libcpmt:syserror.obj
 0002:000010f8       ??_C@_0BD@JHIHCGKP@no_protocol_option?$AA@ 00000001800510f8     libcpmt:syserror.obj
 0002:00001110       ??_C@_0O@GBCLHHD@not_connected?$AA@ 0000000180051110     libcpmt:syserror.obj
 0002:00001120       ??_C@_0N@IMHKKLEM@not_a_socket?$AA@ 0000000180051120     libcpmt:syserror.obj
 0002:00001130       ??_C@_0BI@ICEIDKLJ@operation_not_supported?$AA@ 0000000180051130     libcpmt:syserror.obj
 0002:00001148       ??_C@_0BH@KAPBAIJF@protocol_not_supported?$AA@ 0000000180051148     libcpmt:syserror.obj
 0002:00001160       ??_C@_0BE@GAOJJFPC@wrong_protocol_type?$AA@ 0000000180051160     libcpmt:syserror.obj
 0002:00001178       ??_C@_09NCHNLHPG@timed_out?$AA@ 0000000180051178     libcpmt:syserror.obj
 0002:00001188       ??_C@_0BG@GDGHKFDH@operation_would_block?$AA@ 0000000180051188     libcpmt:syserror.obj
 0002:000011a0       ??_C@_0BN@LKKBCCDB@address?5family?5not?5supported?$AA@ 00000001800511a0     libcpmt:syserror.obj
 0002:000011c0       ??_C@_0P@LDMLAFHI@address?5in?5use?$AA@ 00000001800511c0     libcpmt:syserror.obj
 0002:000011d0       ??_C@_0BG@DHPCNBJB@address?5not?5available?$AA@ 00000001800511d0     libcpmt:syserror.obj
 0002:000011e8       ??_C@_0BC@DFIBIBIL@already?5connected?$AA@ 00000001800511e8     libcpmt:syserror.obj
 0002:00001200       ??_C@_0BH@CAKOHOMI@argument?5list?5too?5long?$AA@ 0000000180051200     libcpmt:syserror.obj
 0002:00001218       ??_C@_0BH@CGIMPKIM@argument?5out?5of?5domain?$AA@ 0000000180051218     libcpmt:syserror.obj
 0002:00001230       ??_C@_0M@KGHGGJGL@bad?5address?$AA@ 0000000180051230     libcpmt:syserror.obj
 0002:00001240       ??_C@_0BE@MPJPGCEO@bad?5file?5descriptor?$AA@ 0000000180051240     libcpmt:syserror.obj
 0002:00001258       ??_C@_0M@PMMIEFCP@bad?5message?$AA@ 0000000180051258     libcpmt:syserror.obj
 0002:00001268       ??_C@_0M@KPHOFDBE@broken?5pipe?$AA@ 0000000180051268     libcpmt:syserror.obj
 0002:00001278       ??_C@_0BD@MGNDDEGM@connection?5aborted?$AA@ 0000000180051278     libcpmt:syserror.obj
 0002:00001290       ??_C@_0BP@KAIHPOGN@connection?5already?5in?5progress?$AA@ 0000000180051290     libcpmt:syserror.obj
 0002:000012b0       ??_C@_0BD@PJLIIJEL@connection?5refused?$AA@ 00000001800512b0     libcpmt:syserror.obj
 0002:000012c8       ??_C@_0BB@IECNJNOI@connection?5reset?$AA@ 00000001800512c8     libcpmt:syserror.obj
 0002:000012e0       ??_C@_0BN@KDMIFEIP@destination?5address?5required?$AA@ 00000001800512e0     libcpmt:syserror.obj
 0002:00001300       ??_C@_0BI@BNCLIGPB@executable?5format?5error?$AA@ 0000000180051300     libcpmt:syserror.obj
 0002:00001318       ??_C@_0P@DNAJLBJK@file?5too?5large?$AA@ 0000000180051318     libcpmt:syserror.obj
 0002:00001328       ??_C@_0BB@DHFDFGDM@host?5unreachable?$AA@ 0000000180051328     libcpmt:syserror.obj
 0002:00001340       ??_C@_0BD@JPHBMONG@identifier?5removed?$AA@ 0000000180051340     libcpmt:syserror.obj
 0002:00001358       ??_C@_0BG@CDNPAGJK@illegal?5byte?5sequence?$AA@ 0000000180051358     libcpmt:syserror.obj
 0002:00001370       ??_C@_0CD@BNPLBMNA@inappropriate?5io?5control?5operati@ 0000000180051370     libcpmt:syserror.obj
 0002:00001398       ??_C@_0N@OHAFKDEK@invalid?5seek?$AA@ 0000000180051398     libcpmt:syserror.obj
 0002:000013a8       ??_C@_0P@FLLDBIDK@is?5a?5directory?$AA@ 00000001800513a8     libcpmt:syserror.obj
 0002:000013b8       ??_C@_0N@IFLPBIOP@message?5size?$AA@ 00000001800513b8     libcpmt:syserror.obj
 0002:000013c8       ??_C@_0N@KIIEAAIO@network?5down?$AA@ 00000001800513c8     libcpmt:syserror.obj
 0002:000013d8       ??_C@_0O@FNPDBHEE@network?5reset?$AA@ 00000001800513d8     libcpmt:syserror.obj
 0002:000013e8       ??_C@_0BE@IFNCKGE@network?5unreachable?$AA@ 00000001800513e8     libcpmt:syserror.obj
 0002:00001400       ??_C@_0BA@PFFCAOFK@no?5buffer?5space?$AA@ 0000000180051400     libcpmt:syserror.obj
 0002:00001410       ??_C@_0BB@IEPBLJHK@no?5child?5process?$AA@ 0000000180051410     libcpmt:syserror.obj
 0002:00001428       ??_C@_07PLECNNKG@no?5link?$AA@ 0000000180051428     libcpmt:syserror.obj
 0002:00001430       ??_C@_0BF@PBGGPKKE@no?5message?5available?$AA@ 0000000180051430     libcpmt:syserror.obj
 0002:00001448       ??_C@_0L@EDOLMPAK@no?5message?$AA@ 0000000180051448     libcpmt:syserror.obj
 0002:00001458       ??_C@_0BD@EAMBFIDF@no?5protocol?5option?$AA@ 0000000180051458     libcpmt:syserror.obj
 0002:00001470       ??_C@_0BE@MKFDAFMP@no?5stream?5resources?$AA@ 0000000180051470     libcpmt:syserror.obj
 0002:00001488       ??_C@_0BK@IMCPHCBI@no?5such?5device?5or?5address?$AA@ 0000000180051488     libcpmt:syserror.obj
 0002:000014a8       ??_C@_0BA@ENLPPKBN@no?5such?5process?$AA@ 00000001800514a8     libcpmt:syserror.obj
 0002:000014b8       ??_C@_0BA@DOCPFFJG@not?5a?5directory?$AA@ 00000001800514b8     libcpmt:syserror.obj
 0002:000014c8       ??_C@_0N@POEIPGGF@not?5a?5socket?$AA@ 00000001800514c8     libcpmt:syserror.obj
 0002:000014d8       ??_C@_0N@LGAPMMPI@not?5a?5stream?$AA@ 00000001800514d8     libcpmt:syserror.obj
 0002:000014e8       ??_C@_0O@GLMIBBEG@not?5connected?$AA@ 00000001800514e8     libcpmt:syserror.obj
 0002:000014f8       ??_C@_0O@NHEDABJP@not?5supported?$AA@ 00000001800514f8     libcpmt:syserror.obj
 0002:00001508       ??_C@_0BG@KDKHOPCO@operation?5in?5progress?$AA@ 0000000180051508     libcpmt:syserror.obj
 0002:00001520       ??_C@_0BI@OHIEJAAB@operation?5not?5permitted?$AA@ 0000000180051520     libcpmt:syserror.obj
 0002:00001538       ??_C@_0BI@LNEGIFLN@operation?5not?5supported?$AA@ 0000000180051538     libcpmt:syserror.obj
 0002:00001550       ??_C@_0BG@OEMDKMEE@operation?5would?5block?$AA@ 0000000180051550     libcpmt:syserror.obj
 0002:00001568       ??_C@_0L@BLPOFLNJ@owner?5dead?$AA@ 0000000180051568     libcpmt:syserror.obj
 0002:00001578       ??_C@_0P@FNPOCJBE@protocol?5error?$AA@ 0000000180051578     libcpmt:syserror.obj
 0002:00001588       ??_C@_0BH@JPPPLHJB@protocol?5not?5supported?$AA@ 0000000180051588     libcpmt:syserror.obj
 0002:000015a0       ??_C@_0BG@EICBIHDP@read?5only?5file?5system?$AA@ 00000001800515a0     libcpmt:syserror.obj
 0002:000015b8       ??_C@_0BO@BJBOMOEJ@resource?5deadlock?5would?5occur?$AA@ 00000001800515b8     libcpmt:syserror.obj
 0002:000015d8       ??_C@_0BE@GOIPJJHG@result?5out?5of?5range?$AA@ 00000001800515d8     libcpmt:syserror.obj
 0002:000015f0       ??_C@_0BG@MPLKFPAE@state?5not?5recoverable?$AA@ 00000001800515f0     libcpmt:syserror.obj
 0002:00001608       ??_C@_0P@DIIFGFCG@stream?5timeout?$AA@ 0000000180051608     libcpmt:syserror.obj
 0002:00001618       ??_C@_0P@IPFDMIFL@text?5file?5busy?$AA@ 0000000180051618     libcpmt:syserror.obj
 0002:00001628       ??_C@_09KJPPMAOI@timed?5out?$AA@ 0000000180051628     libcpmt:syserror.obj
 0002:00001638       ??_C@_0BO@HACHBEKI@too?5many?5files?5open?5in?5system?$AA@ 0000000180051638     libcpmt:syserror.obj
 0002:00001658       ??_C@_0P@HCOMKFCC@too?5many?5links?$AA@ 0000000180051658     libcpmt:syserror.obj
 0002:00001668       ??_C@_0BO@EFGOJEF@too?5many?5symbolic?5link?5levels?$AA@ 0000000180051668     libcpmt:syserror.obj
 0002:00001688       ??_C@_0BA@KGKGOOJA@value?5too?5large?$AA@ 0000000180051688     libcpmt:syserror.obj
 0002:00001698       ??_C@_0BE@MIEJDDNH@wrong?5protocol?5type?$AA@ 0000000180051698     libcpmt:syserror.obj
 0002:000016b8       ??_7bad_alloc@std@@6B@     00000001800516b8     libcpmt:xthrow.obj
 0002:000016c8       ??_C@_0P@GHFPNOJB@bad?5allocation?$AA@ 00000001800516c8     libcpmt:xthrow.obj
 0002:000016e0       ??_7logic_error@std@@6B@   00000001800516e0     libcpmt:xthrow.obj
 0002:000016f8       ??_7length_error@std@@6B@  00000001800516f8     libcpmt:xthrow.obj
 0002:00001710       ??_7out_of_range@std@@6B@  0000000180051710     libcpmt:xthrow.obj
 0002:00001720       ??_C@_17LGKOMLJ@?$AA?4?$AA?4?$AA?4?$AA?$AA@ 0000000180051720     LIBCMT:wassert.obj
 0002:00001728       ??_C@_13LBAGMAIH@?$AA?6?$AA?$AA@ 0000000180051728     LIBCMT:wassert.obj
 0002:0000172c       ??_C@_15IABLJNFO@?$AA?6?$AA?6?$AA?$AA@ 000000018005172c     LIBCMT:wassert.obj
 0002:00001738       ??_C@_1CE@OJBNHDMO@?$AAA?$AAs?$AAs?$AAe?$AAr?$AAt?$AAi?$AAo?$AAn?$AA?5?$AAf?$AAa?$AAi?$AAl?$AAe?$AAd?$AA?$CB?$AA?$AA@ 0000000180051738     LIBCMT:wassert.obj
 0002:00001760       ??_C@_1BE@PHKBBGE@?$AAP?$AAr?$AAo?$AAg?$AAr?$AAa?$AAm?$AA?3?$AA?5?$AA?$AA@ 0000000180051760     LIBCMT:wassert.obj
 0002:00001778       ??_C@_1CO@EAEJAADC@?$AA?$DM?$AAp?$AAr?$AAo?$AAg?$AAr?$AAa?$AAm?$AA?5?$AAn?$AAa?$AAm?$AAe?$AA?5?$AAu?$AAn?$AAk?$AAn?$AAo?$AAw?$AAn?$AA?$DO?$AA?$AA@ 0000000180051778     LIBCMT:wassert.obj
 0002:000017a8       ??_C@_1O@HEMHKNDC@?$AAF?$AAi?$AAl?$AAe?$AA?3?$AA?5?$AA?$AA@ 00000001800517a8     LIBCMT:wassert.obj
 0002:000017b8       ??_C@_1O@KCAFKHJE@?$AAL?$AAi?$AAn?$AAe?$AA?3?$AA?5?$AA?$AA@ 00000001800517b8     LIBCMT:wassert.obj
 0002:000017c8       ??_C@_1BK@PEDCIPMA@?$AAE?$AAx?$AAp?$AAr?$AAe?$AAs?$AAs?$AAi?$AAo?$AAn?$AA?3?$AA?5?$AA?$AA@ 00000001800517c8     LIBCMT:wassert.obj
 0002:000017f0       ??_C@_1OA@EGMLFBHJ@?$AAF?$AAo?$AAr?$AA?5?$AAi?$AAn?$AAf?$AAo?$AAr?$AAm?$AAa?$AAt?$AAi?$AAo?$AAn?$AA?5?$AAo?$AAn?$AA?5?$AAh?$AAo?$AAw?$AA?5?$AAy?$AAo?$AAu?$AAr?$AA?5?$AAp?$AAr?$AAo?$AAg@ 00000001800517f0     LIBCMT:wassert.obj
 0002:000018d0       ??_C@_1HK@POCJMFGK@?$AA?$CI?$AAP?$AAr?$AAe?$AAs?$AAs?$AA?5?$AAR?$AAe?$AAt?$AAr?$AAy?$AA?5?$AAt?$AAo?$AA?5?$AAd?$AAe?$AAb?$AAu?$AAg?$AA?5?$AAt?$AAh?$AAe?$AA?5?$AAa?$AAp?$AAp?$AAl?$AAi?$AAc@ 00000001800518d0     LIBCMT:wassert.obj
 0002:00001950       ??_C@_1EK@MBDPDCGA@?$AAM?$AAi?$AAc?$AAr?$AAo?$AAs?$AAo?$AAf?$AAt?$AA?5?$AAV?$AAi?$AAs?$AAu?$AAa?$AAl?$AA?5?$AAC?$AA?$CL?$AA?$CL?$AA?5?$AAR?$AAu?$AAn?$AAt?$AAi?$AAm?$AAe?$AA?5?$AAL?$AAi?$AAb@ 0000000180051950     LIBCMT:wassert.obj
 0002:0000199c       ??_C@_06MEIMCGCF@_hypot?$AA@ 000000018005199c     LIBCMT:hypot.obj
 0002:000019a8       _pDefaultRawDllMain        00000001800519a8     LIBCMT:dllcrt0.obj
 0002:000019a8       _pRawDllMain               00000001800519a8     LIBCMT:dllcrt0.obj
 0002:000019b0       ??_C@_0EA@FCLIIPNN@Visual?5C?$CL?$CL?5CRT?3?5Not?5enough?5memor@ 00000001800519b0     LIBCMT:strerror.obj
 0002:000019f0       ??_C@_0N@PPOMPGGK@RoInitialize?$AA@ 00000001800519f0     LIBCMT:threadex.obj
 0002:00001a00       ??_C@_1BI@IDAOOPDH@?$AAc?$AAo?$AAm?$AAb?$AAa?$AAs?$AAe?$AA?4?$AAd?$AAl?$AAl?$AA?$AA@ 0000000180051a00     LIBCMT:threadex.obj
 0002:00001a18       ??_C@_0P@LLFHBIJD@RoUninitialize?$AA@ 0000000180051a18     LIBCMT:threadex.obj
 0002:00001b10       ??_7type_info@@6B@         0000000180051b10     LIBCMT:typinfo.obj
 0002:00001b18       _FPinit                    0000000180051b18     LIBCMT:fpinit.obj
 0002:00001b28       ??_7exception@std@@6B@     0000000180051b28     LIBCMT:stdexcpt.obj
 0002:00001b38       ??_C@_0BC@EOODALEL@Unknown?5exception?$AA@ 0000000180051b38     LIBCMT:stdexcpt.obj
 0002:00001b60       ??_C@_1BI@BGOHAHKC@?$AAm?$AAs?$AAc?$AAo?$AAr?$AAe?$AAe?$AA?4?$AAd?$AAl?$AAl?$AA?$AA@ 0000000180051b60     LIBCMT:crt0dat.obj
 0002:00001b78       ??_C@_0P@MIGLKIOC@CorExitProcess?$AA@ 0000000180051b78     LIBCMT:crt0dat.obj
 0002:00001b88       ??_C@_1BG@GOEBHBDC@?$AAU?$AAS?$AAE?$AAR?$AA3?$AA2?$AA?4?$AAD?$AAL?$AAL?$AA?$AA@ 0000000180051b88     LIBCMT:crtmboxw.obj
 0002:00001ba0       ??_C@_0M@DLDCCGNP@MessageBoxW?$AA@ 0000000180051ba0     LIBCMT:crtmboxw.obj
 0002:00001bb0       ??_C@_0BA@HNOPNCHB@GetActiveWindow?$AA@ 0000000180051bb0     LIBCMT:crtmboxw.obj
 0002:00001bc0       ??_C@_0BD@HHGDFDBJ@GetLastActivePopup?$AA@ 0000000180051bc0     LIBCMT:crtmboxw.obj
 0002:00001bd8       ??_C@_0BK@DEKFELLI@GetUserObjectInformationW?$AA@ 0000000180051bd8     LIBCMT:crtmboxw.obj
 0002:00001bf8       ??_C@_0BI@DFKBFLJE@GetProcessWindowStation?$AA@ 0000000180051bf8     LIBCMT:crtmboxw.obj
 0002:00001d80       ??_C@_1FK@PGACCAFB@?$AAR?$AA6?$AA0?$AA0?$AA2?$AA?$AN?$AA?6?$AA?9?$AA?5?$AAf?$AAl?$AAo?$AAa?$AAt?$AAi?$AAn?$AAg?$AA?5?$AAp?$AAo?$AAi?$AAn?$AAt?$AA?5?$AAs?$AAu?$AAp?$AAp?$AAo?$AAr?$AAt?$AA?5@ 0000000180051d80     LIBCMT:crt0msg.obj
 0002:00001de0       ??_C@_1FE@LLNEDJMD@?$AAR?$AA6?$AA0?$AA0?$AA8?$AA?$AN?$AA?6?$AA?9?$AA?5?$AAn?$AAo?$AAt?$AA?5?$AAe?$AAn?$AAo?$AAu?$AAg?$AAh?$AA?5?$AAs?$AAp?$AAa?$AAc?$AAe?$AA?5?$AAf?$AAo?$AAr?$AA?5?$AAa?$AAr@ 0000000180051de0     LIBCMT:crt0msg.obj
 0002:00001e40       ??_C@_1FI@HONFMGBI@?$AAR?$AA6?$AA0?$AA0?$AA9?$AA?$AN?$AA?6?$AA?9?$AA?5?$AAn?$AAo?$AAt?$AA?5?$AAe?$AAn?$AAo?$AAu?$AAg?$AAh?$AA?5?$AAs?$AAp?$AAa?$AAc?$AAe?$AA?5?$AAf?$AAo?$AAr?$AA?5?$AAe?$AAn@ 0000000180051e40     LIBCMT:crt0msg.obj
 0002:00001ea0       ??_C@_1EG@BEHAGFJD@?$AAR?$AA6?$AA0?$AA1?$AA0?$AA?$AN?$AA?6?$AA?9?$AA?5?$AAa?$AAb?$AAo?$AAr?$AAt?$AA?$CI?$AA?$CJ?$AA?5?$AAh?$AAa?$AAs?$AA?5?$AAb?$AAe?$AAe?$AAn?$AA?5?$AAc?$AAa?$AAl?$AAl?$AAe?$AAd@ 0000000180051ea0     LIBCMT:crt0msg.obj
 0002:00001ef0       ??_C@_1FI@LOGNIKDM@?$AAR?$AA6?$AA0?$AA1?$AA6?$AA?$AN?$AA?6?$AA?9?$AA?5?$AAn?$AAo?$AAt?$AA?5?$AAe?$AAn?$AAo?$AAu?$AAg?$AAh?$AA?5?$AAs?$AAp?$AAa?$AAc?$AAe?$AA?5?$AAf?$AAo?$AAr?$AA?5?$AAt?$AAh@ 0000000180051ef0     LIBCMT:crt0msg.obj
 0002:00001f50       ??_C@_1FK@BEOGODMC@?$AAR?$AA6?$AA0?$AA1?$AA7?$AA?$AN?$AA?6?$AA?9?$AA?5?$AAu?$AAn?$AAe?$AAx?$AAp?$AAe?$AAc?$AAt?$AAe?$AAd?$AA?5?$AAm?$AAu?$AAl?$AAt?$AAi?$AAt?$AAh?$AAr?$AAe?$AAa?$AAd?$AA?5@ 0000000180051f50     LIBCMT:crt0msg.obj
 0002:00001fb0       ??_C@_1EC@JIBHAOPH@?$AAR?$AA6?$AA0?$AA1?$AA8?$AA?$AN?$AA?6?$AA?9?$AA?5?$AAu?$AAn?$AAe?$AAx?$AAp?$AAe?$AAc?$AAt?$AAe?$AAd?$AA?5?$AAh?$AAe?$AAa?$AAp?$AA?5?$AAe?$AAr?$AAr?$AAo?$AAr?$AA?$AN?$AA?6@ 0000000180051fb0     LIBCMT:crt0msg.obj
 0002:00002000       ??_C@_1FC@ECHBIFBC@?$AAR?$AA6?$AA0?$AA1?$AA9?$AA?$AN?$AA?6?$AA?9?$AA?5?$AAu?$AAn?$AAa?$AAb?$AAl?$AAe?$AA?5?$AAt?$AAo?$AA?5?$AAo?$AAp?$AAe?$AAn?$AA?5?$AAc?$AAo?$AAn?$AAs?$AAo?$AAl?$AAe?$AA?5@ 0000000180052000     LIBCMT:crt0msg.obj
 0002:00002060       ??_C@_1GK@FHCKBEFA@?$AAR?$AA6?$AA0?$AA2?$AA4?$AA?$AN?$AA?6?$AA?9?$AA?5?$AAn?$AAo?$AAt?$AA?5?$AAe?$AAn?$AAo?$AAu?$AAg?$AAh?$AA?5?$AAs?$AAp?$AAa?$AAc?$AAe?$AA?5?$AAf?$AAo?$AAr?$AA?5?$AA_?$AAo@ 0000000180052060     LIBCMT:crt0msg.obj
 0002:000020d0       ??_C@_1EM@MAADIHMB@?$AAR?$AA6?$AA0?$AA2?$AA5?$AA?$AN?$AA?6?$AA?9?$AA?5?$AAp?$AAu?$AAr?$AAe?$AA?5?$AAv?$AAi?$AAr?$AAt?$AAu?$AAa?$AAl?$AA?5?$AAf?$AAu?$AAn?$AAc?$AAt?$AAi?$AAo?$AAn?$AA?5?$AAc@ 00000001800520d0     LIBCMT:crt0msg.obj
 0002:00002120       ??_C@_1GK@MCAAGJMO@?$AAR?$AA6?$AA0?$AA2?$AA6?$AA?$AN?$AA?6?$AA?9?$AA?5?$AAn?$AAo?$AAt?$AA?5?$AAe?$AAn?$AAo?$AAu?$AAg?$AAh?$AA?5?$AAs?$AAp?$AAa?$AAc?$AAe?$AA?5?$AAf?$AAo?$AAr?$AA?5?$AAs?$AAt@ 0000000180052120     LIBCMT:crt0msg.obj
 0002:00002190       ??_C@_1GK@MFGOKLAG@?$AAR?$AA6?$AA0?$AA2?$AA7?$AA?$AN?$AA?6?$AA?9?$AA?5?$AAn?$AAo?$AAt?$AA?5?$AAe?$AAn?$AAo?$AAu?$AAg?$AAh?$AA?5?$AAs?$AAp?$AAa?$AAc?$AAe?$AA?5?$AAf?$AAo?$AAr?$AA?5?$AAl?$AAo@ 0000000180052190     LIBCMT:crt0msg.obj
 0002:00002200       ??_C@_1EK@HHFLMAOL@?$AAR?$AA6?$AA0?$AA2?$AA8?$AA?$AN?$AA?6?$AA?9?$AA?5?$AAu?$AAn?$AAa?$AAb?$AAl?$AAe?$AA?5?$AAt?$AAo?$AA?5?$AAi?$AAn?$AAi?$AAt?$AAi?$AAa?$AAl?$AAi?$AAz?$AAe?$AA?5?$AAh?$AAe@ 0000000180052200     LIBCMT:crt0msg.obj
 0002:00002250       ??_C@_1DO@BMFCDCD@?$AAR?$AA6?$AA0?$AA3?$AA0?$AA?$AN?$AA?6?$AA?9?$AA?5?$AAC?$AAR?$AAT?$AA?5?$AAn?$AAo?$AAt?$AA?5?$AAi?$AAn?$AAi?$AAt?$AAi?$AAa?$AAl?$AAi?$AAz?$AAe?$AAd?$AA?$AN?$AA?6?$AA?$AA@ 0000000180052250     LIBCMT:crt0msg.obj
 0002:00002290       ??_C@_1MG@ENCOOIDF@?$AAR?$AA6?$AA0?$AA3?$AA1?$AA?$AN?$AA?6?$AA?9?$AA?5?$AAA?$AAt?$AAt?$AAe?$AAm?$AAp?$AAt?$AA?5?$AAt?$AAo?$AA?5?$AAi?$AAn?$AAi?$AAt?$AAi?$AAa?$AAl?$AAi?$AAz?$AAe?$AA?5?$AAt@ 0000000180052290     LIBCMT:crt0msg.obj
 0002:00002360       ??_C@_1GG@GOPILAJP@?$AAR?$AA6?$AA0?$AA3?$AA2?$AA?$AN?$AA?6?$AA?9?$AA?5?$AAn?$AAo?$AAt?$AA?5?$AAe?$AAn?$AAo?$AAu?$AAg?$AAh?$AA?5?$AAs?$AAp?$AAa?$AAc?$AAe?$AA?5?$AAf?$AAo?$AAr?$AA?5?$AAl?$AAo@ 0000000180052360     LIBCMT:crt0msg.obj
 0002:000023d0       ??_C@_1BOO@KGEDBGAJ@?$AAR?$AA6?$AA0?$AA3?$AA3?$AA?$AN?$AA?6?$AA?9?$AA?5?$AAA?$AAt?$AAt?$AAe?$AAm?$AAp?$AAt?$AA?5?$AAt?$AAo?$AA?5?$AAu?$AAs?$AAe?$AA?5?$AAM?$AAS?$AAI?$AAL?$AA?5?$AAc?$AAo?$AAd@ 00000001800523d0     LIBCMT:crt0msg.obj
 0002:000025c0       ??_C@_1GG@MKFPEKFO@?$AAR?$AA6?$AA0?$AA3?$AA4?$AA?$AN?$AA?6?$AA?9?$AA?5?$AAi?$AAn?$AAc?$AAo?$AAn?$AAs?$AAi?$AAs?$AAt?$AAe?$AAn?$AAt?$AA?5?$AAo?$AAn?$AAe?$AAx?$AAi?$AAt?$AA?5?$AAb?$AAe?$AAg@ 00000001800525c0     LIBCMT:crt0msg.obj
 0002:00002628       ??_C@_1BO@BFCDCGC@?$AAD?$AAO?$AAM?$AAA?$AAI?$AAN?$AA?5?$AAe?$AAr?$AAr?$AAo?$AAr?$AA?$AN?$AA?6?$AA?$AA@ 0000000180052628     LIBCMT:crt0msg.obj
 0002:00002648       ??_C@_1BK@KMOMNAAI@?$AAS?$AAI?$AAN?$AAG?$AA?5?$AAe?$AAr?$AAr?$AAo?$AAr?$AA?$AN?$AA?6?$AA?$AA@ 0000000180052648     LIBCMT:crt0msg.obj
 0002:00002668       ??_C@_1BM@JBBEPPHI@?$AAT?$AAL?$AAO?$AAS?$AAS?$AA?5?$AAe?$AAr?$AAr?$AAo?$AAr?$AA?$AN?$AA?6?$AA?$AA@ 0000000180052668     LIBCMT:crt0msg.obj
 0002:00002684       ??_C@_15JNBOKNOG@?$AA?$AN?$AA?6?$AA?$AA@ 0000000180052684     LIBCMT:crt0msg.obj
 0002:00002690       ??_C@_1BO@BKOMIGKJ@?$AAr?$AAu?$AAn?$AAt?$AAi?$AAm?$AAe?$AA?5?$AAe?$AAr?$AAr?$AAo?$AAr?$AA?5?$AA?$AA@ 0000000180052690     LIBCMT:crt0msg.obj
 0002:000026b0       ??_C@_1DE@JNGNBFGO@?$AAR?$AAu?$AAn?$AAt?$AAi?$AAm?$AAe?$AA?5?$AAE?$AAr?$AAr?$AAo?$AAr?$AA?$CB?$AA?6?$AA?6?$AAP?$AAr?$AAo?$AAg?$AAr?$AAa?$AAm?$AA?3?$AA?5?$AA?$AA@ 00000001800526b0     LIBCMT:crt0msg.obj
 0002:00002708       ??_C@_1M@HPNHIDJI@?$AAj?$AAa?$AA?9?$AAJ?$AAP?$AA?$AA@ 0000000180052708     LIBCMT:mbctype.obj
 0002:00002718       ??_C@_1M@BIBDDEMK@?$AAz?$AAh?$AA?9?$AAC?$AAN?$AA?$AA@ 0000000180052718     LIBCMT:mbctype.obj
 0002:00002728       ??_C@_1M@JLOOOEGK@?$AAk?$AAo?$AA?9?$AAK?$AAR?$AA?$AA@ 0000000180052728     LIBCMT:mbctype.obj
 0002:00002738       ??_C@_1M@CLNBBOPM@?$AAz?$AAh?$AA?9?$AAT?$AAW?$AA?$AA@ 0000000180052738     LIBCMT:mbctype.obj
 0002:00002744       ??_C@_03KOEHGMDN@Sun?$AA@  0000000180052744     LIBCMT:nlsdata.obj
 0002:00002748       ??_C@_03PDAGKDH@Mon?$AA@   0000000180052748     LIBCMT:nlsdata.obj
 0002:0000274c       ??_C@_03NAGEINEP@Tue?$AA@  000000018005274c     LIBCMT:nlsdata.obj
 0002:00002750       ??_C@_03MHOMLAJA@Wed?$AA@  0000000180052750     LIBCMT:nlsdata.obj
 0002:00002754       ??_C@_03IOFIKPDN@Thu?$AA@  0000000180052754     LIBCMT:nlsdata.obj
 0002:00002758       ??_C@_03IDIOELNC@Fri?$AA@  0000000180052758     LIBCMT:nlsdata.obj
 0002:0000275c       ??_C@_03FEFJNEK@Sat?$AA@   000000018005275c     LIBCMT:nlsdata.obj
 0002:00002760       ??_C@_06OOPIFAJ@Sunday?$AA@ 0000000180052760     LIBCMT:nlsdata.obj
 0002:00002768       ??_C@_06JLEDEDGH@Monday?$AA@ 0000000180052768     LIBCMT:nlsdata.obj
 0002:00002770       ??_C@_07BAAGCFCM@Tuesday?$AA@ 0000000180052770     LIBCMT:nlsdata.obj
 0002:00002778       ??_C@_09DLIGFAKA@Wednesday?$AA@ 0000000180052778     LIBCMT:nlsdata.obj
 0002:00002788       ??_C@_08HACCIKIA@Thursday?$AA@ 0000000180052788     LIBCMT:nlsdata.obj
 0002:00002794       ??_C@_06JECMNKMI@Friday?$AA@ 0000000180052794     LIBCMT:nlsdata.obj
 0002:000027a0       ??_C@_08INBOOONO@Saturday?$AA@ 00000001800527a0     LIBCMT:nlsdata.obj
 0002:000027ac       ??_C@_03JIHJHPIE@Jan?$AA@  00000001800527ac     LIBCMT:nlsdata.obj
 0002:000027b0       ??_C@_03HJBDCHOM@Feb?$AA@  00000001800527b0     LIBCMT:nlsdata.obj
 0002:000027b4       ??_C@_03ODNJBKGA@Mar?$AA@  00000001800527b4     LIBCMT:nlsdata.obj
 0002:000027b8       ??_C@_03LEOLGMJP@Apr?$AA@  00000001800527b8     LIBCMT:nlsdata.obj
 0002:000027bc       ??_C@_03CNMDKL@May?$AA@    00000001800527bc     LIBCMT:nlsdata.obj
 0002:000027c0       ??_C@_03IDFGHECI@Jun?$AA@  00000001800527c0     LIBCMT:nlsdata.obj
 0002:000027c4       ??_C@_03LBGABGKK@Jul?$AA@  00000001800527c4     LIBCMT:nlsdata.obj
 0002:000027c8       ??_C@_03IFJFEIGA@Aug?$AA@  00000001800527c8     LIBCMT:nlsdata.obj
 0002:000027cc       ??_C@_03GGCAPAJC@Sep?$AA@  00000001800527cc     LIBCMT:nlsdata.obj
 0002:000027d0       ??_C@_03BMAOKBAD@Oct?$AA@  00000001800527d0     LIBCMT:nlsdata.obj
 0002:000027d4       ??_C@_03JPJOFNIA@Nov?$AA@  00000001800527d4     LIBCMT:nlsdata.obj
 0002:000027d8       ??_C@_03MKABNOCG@Dec?$AA@  00000001800527d8     LIBCMT:nlsdata.obj
 0002:000027e0       ??_C@_07CGJPFGJA@January?$AA@ 00000001800527e0     LIBCMT:nlsdata.obj
 0002:000027e8       ??_C@_08GNJGEPFN@February?$AA@ 00000001800527e8     LIBCMT:nlsdata.obj
 0002:000027f4       ??_C@_05HPCKOFNC@March?$AA@ 00000001800527f4     LIBCMT:nlsdata.obj
 0002:000027fc       ??_C@_05DMJDNLEJ@April?$AA@ 00000001800527fc     LIBCMT:nlsdata.obj
 0002:00002804       ??_C@_04CNLMGBGM@June?$AA@ 0000000180052804     LIBCMT:nlsdata.obj
 0002:0000280c       ??_C@_04MIEPOIFP@July?$AA@ 000000018005280c     LIBCMT:nlsdata.obj
 0002:00002814       ??_C@_06LBBHFDDG@August?$AA@ 0000000180052814     LIBCMT:nlsdata.obj
 0002:00002820       ??_C@_09BHHEALKD@September?$AA@ 0000000180052820     LIBCMT:nlsdata.obj
 0002:00002830       ??_C@_07JJNFCEND@October?$AA@ 0000000180052830     LIBCMT:nlsdata.obj
 0002:00002838       ??_C@_08HCHEGEOA@November?$AA@ 0000000180052838     LIBCMT:nlsdata.obj
 0002:00002848       ??_C@_08EDHMEBNP@December?$AA@ 0000000180052848     LIBCMT:nlsdata.obj
 0002:00002854       ??_C@_02DEDBPAFC@AM?$AA@   0000000180052854     LIBCMT:nlsdata.obj
 0002:00002858       ??_C@_02CJNFDJBF@PM?$AA@   0000000180052858     LIBCMT:nlsdata.obj
 0002:00002860       ??_C@_08BPBNCDIB@MM?1dd?1yy?$AA@ 0000000180052860     LIBCMT:nlsdata.obj
 0002:00002870       ??_C@_0BE@CKGJFCPC@dddd?0?5MMMM?5dd?0?5yyyy?$AA@ 0000000180052870     LIBCMT:nlsdata.obj
 0002:00002888       ??_C@_08JCCMCCIL@HH?3mm?3ss?$AA@ 0000000180052888     LIBCMT:nlsdata.obj
 0002:00002898       ??_C@_17MBGCMIPB@?$AAS?$AAu?$AAn?$AA?$AA@ 0000000180052898     LIBCMT:nlsdata.obj
 0002:000028a0       ??_C@_17KBOMKBF@?$AAM?$AAo?$AAn?$AA?$AA@ 00000001800528a0     LIBCMT:nlsdata.obj
 0002:000028a8       ??_C@_17BMKGEGOJ@?$AAT?$AAu?$AAe?$AA?$AA@ 00000001800528a8     LIBCMT:nlsdata.obj
 0002:000028b0       ??_C@_17CJEDCEPE@?$AAW?$AAe?$AAd?$AA?$AA@ 00000001800528b0     LIBCMT:nlsdata.obj
 0002:000028b8       ??_C@_17PDPHAADD@?$AAT?$AAh?$AAu?$AA?$AA@ 00000001800528b8     LIBCMT:nlsdata.obj
 0002:000028c0       ??_C@_17HFOLPPLP@?$AAF?$AAr?$AAi?$AA?$AA@ 00000001800528c0     LIBCMT:nlsdata.obj
 0002:000028c8       ??_C@_17GGIBDPIH@?$AAS?$AAa?$AAt?$AA?$AA@ 00000001800528c8     LIBCMT:nlsdata.obj
 0002:000028d0       ??_C@_1O@IHNHDHPB@?$AAS?$AAu?$AAn?$AAd?$AAa?$AAy?$AA?$AA@ 00000001800528d0     LIBCMT:nlsdata.obj
 0002:000028e0       ??_C@_1O@MMNBFLIA@?$AAM?$AAo?$AAn?$AAd?$AAa?$AAy?$AA?$AA@ 00000001800528e0     LIBCMT:nlsdata.obj
 0002:000028f0       ??_C@_1BA@ENFBFFEK@?$AAT?$AAu?$AAe?$AAs?$AAd?$AAa?$AAy?$AA?$AA@ 00000001800528f0     LIBCMT:nlsdata.obj
 0002:00002900       ??_C@_1BE@EBOGMDOH@?$AAW?$AAe?$AAd?$AAn?$AAe?$AAs?$AAd?$AAa?$AAy?$AA?$AA@ 0000000180052900     LIBCMT:nlsdata.obj
 0002:00002918       ??_C@_1BC@HHMNLIHE@?$AAT?$AAh?$AAu?$AAr?$AAs?$AAd?$AAa?$AAy?$AA?$AA@ 0000000180052918     LIBCMT:nlsdata.obj
 0002:00002930       ??_C@_1O@PDICJHAG@?$AAF?$AAr?$AAi?$AAd?$AAa?$AAy?$AA?$AA@ 0000000180052930     LIBCMT:nlsdata.obj
 0002:00002940       ??_C@_1BC@ENMNNPAJ@?$AAS?$AAa?$AAt?$AAu?$AAr?$AAd?$AAa?$AAy?$AA?$AA@ 0000000180052940     LIBCMT:nlsdata.obj
 0002:00002958       ??_C@_17DKNBKCHM@?$AAJ?$AAa?$AAn?$AA?$AA@ 0000000180052958     LIBCMT:nlsdata.obj
 0002:00002960       ??_C@_17LMDJEKJN@?$AAF?$AAe?$AAb?$AA?$AA@ 0000000180052960     LIBCMT:nlsdata.obj
 0002:00002968       ??_C@_17CKNLEDEC@?$AAM?$AAa?$AAr?$AA?$AA@ 0000000180052968     LIBCMT:nlsdata.obj
 0002:00002970       ??_C@_17LFPOIHDD@?$AAA?$AAp?$AAr?$AA?$AA@ 0000000180052970     LIBCMT:nlsdata.obj
 0002:00002978       ??_C@_17PNNKMEED@?$AAM?$AAa?$AAy?$AA?$AA@ 0000000180052978     LIBCMT:nlsdata.obj
 0002:00002980       ??_C@_17KCJGOCPB@?$AAJ?$AAu?$AAn?$AA?$AA@ 0000000180052980     LIBCMT:nlsdata.obj
 0002:00002988       ??_C@_17IJPCKHK@?$AAJ?$AAu?$AAl?$AA?$AA@ 0000000180052988     LIBCMT:nlsdata.obj
 0002:00002990       ??_C@_17ICPELBCN@?$AAA?$AAu?$AAg?$AA?$AA@ 0000000180052990     LIBCMT:nlsdata.obj
 0002:00002998       ??_C@_17HCHCOKMG@?$AAS?$AAe?$AAp?$AA?$AA@ 0000000180052998     LIBCMT:nlsdata.obj
 0002:000029a0       ??_C@_17FNLKOI@?$AAO?$AAc?$AAt?$AA?$AA@ 00000001800529a0     LIBCMT:nlsdata.obj
 0002:000029a8       ??_C@_17BBDMLCIG@?$AAN?$AAo?$AAv?$AA?$AA@ 00000001800529a8     LIBCMT:nlsdata.obj
 0002:000029b0       ??_C@_17EGKACKIF@?$AAD?$AAe?$AAc?$AA?$AA@ 00000001800529b0     LIBCMT:nlsdata.obj
 0002:000029b8       ??_C@_1BA@EFMEIEBA@?$AAJ?$AAa?$AAn?$AAu?$AAa?$AAr?$AAy?$AA?$AA@ 00000001800529b8     LIBCMT:nlsdata.obj
 0002:000029c8       ??_C@_1BC@JGDDFFAM@?$AAF?$AAe?$AAb?$AAr?$AAu?$AAa?$AAr?$AAy?$AA?$AA@ 00000001800529c8     LIBCMT:nlsdata.obj
 0002:000029e0       ??_C@_1M@IKEENEDF@?$AAM?$AAa?$AAr?$AAc?$AAh?$AA?$AA@ 00000001800529e0     LIBCMT:nlsdata.obj
 0002:000029f0       ??_C@_1M@GJNLMHFD@?$AAA?$AAp?$AAr?$AAi?$AAl?$AA?$AA@ 00000001800529f0     LIBCMT:nlsdata.obj
 0002:00002a00       ??_C@_19EPFLPGAP@?$AAJ?$AAu?$AAn?$AAe?$AA?$AA@ 0000000180052a00     LIBCMT:nlsdata.obj
 0002:00002a10       ??_C@_19BIFMLPCD@?$AAJ?$AAu?$AAl?$AAy?$AA?$AA@ 0000000180052a10     LIBCMT:nlsdata.obj
 0002:00002a20       ??_C@_1O@PAHLKOAC@?$AAA?$AAu?$AAg?$AAu?$AAs?$AAt?$AA?$AA@ 0000000180052a20     LIBCMT:nlsdata.obj
 0002:00002a30       ??_C@_1BE@DKAAMBJL@?$AAS?$AAe?$AAp?$AAt?$AAe?$AAm?$AAb?$AAe?$AAr?$AA?$AA@ 0000000180052a30     LIBCMT:nlsdata.obj
 0002:00002a48       ??_C@_1BA@EPANDLNG@?$AAO?$AAc?$AAt?$AAo?$AAb?$AAe?$AAr?$AA?$AA@ 0000000180052a48     LIBCMT:nlsdata.obj
 0002:00002a58       ??_C@_1BC@BGLIFPF@?$AAN?$AAo?$AAv?$AAe?$AAm?$AAb?$AAe?$AAr?$AA?$AA@ 0000000180052a58     LIBCMT:nlsdata.obj
 0002:00002a70       ??_C@_1BC@FEMKIFH@?$AAD?$AAe?$AAc?$AAe?$AAm?$AAb?$AAe?$AAr?$AA?$AA@ 0000000180052a70     LIBCMT:nlsdata.obj
 0002:00002a84       ??_C@_15ODEHAHHF@?$AAA?$AAM?$AA?$AA@ 0000000180052a84     LIBCMT:nlsdata.obj
 0002:00002a8c       ??_C@_15CLMNNGEL@?$AAP?$AAM?$AA?$AA@ 0000000180052a8c     LIBCMT:nlsdata.obj
 0002:00002a98       ??_C@_1BC@IEBCMHCM@?$AAM?$AAM?$AA?1?$AAd?$AAd?$AA?1?$AAy?$AAy?$AA?$AA@ 0000000180052a98     LIBCMT:nlsdata.obj
 0002:00002ab0       ??_C@_1CI@KNAKOEBC@?$AAd?$AAd?$AAd?$AAd?$AA?0?$AA?5?$AAM?$AAM?$AAM?$AAM?$AA?5?$AAd?$AAd?$AA?0?$AA?5?$AAy?$AAy?$AAy?$AAy?$AA?$AA@ 0000000180052ab0     LIBCMT:nlsdata.obj
 0002:00002ad8       ??_C@_1BC@GDGBMEMK@?$AAH?$AAH?$AA?3?$AAm?$AAm?$AA?3?$AAs?$AAs?$AA?$AA@ 0000000180052ad8     LIBCMT:nlsdata.obj
 0002:00002af0       ??_C@_1M@BMHNFIME@?$AAe?$AAn?$AA?9?$AAU?$AAS?$AA?$AA@ 0000000180052af0     LIBCMT:nlsdata.obj
 0002:00002b80       _XcptActTab                0000000180052b80     LIBCMT:winxfltr.obj
 0002:00002c40       _XcptActTabCount           0000000180052c40     LIBCMT:winxfltr.obj
 0002:00002c44       _XcptActTabSize            0000000180052c44     LIBCMT:winxfltr.obj
 0002:00002c48       _First_FPE_Indx            0000000180052c48     LIBCMT:winxfltr.obj
 0002:00002c4c       _Num_FPE                   0000000180052c4c     LIBCMT:winxfltr.obj
 0002:00002c50       ??_C@_1BK@MGMFAEKH@?$AAk?$AAe?$AAr?$AAn?$AAe?$AAl?$AA3?$AA2?$AA?4?$AAd?$AAl?$AAl?$AA?$AA@ 0000000180052c50     LIBCMT:winapisupp.obj
 0002:00002c70       ??_C@_08KNHFBNJ@FlsAlloc?$AA@ 0000000180052c70     LIBCMT:winapisupp.obj
 0002:00002c80       ??_C@_07PEJMOBNF@FlsFree?$AA@ 0000000180052c80     LIBCMT:winapisupp.obj
 0002:00002c88       ??_C@_0M@GDNOONDI@FlsGetValue?$AA@ 0000000180052c88     LIBCMT:winapisupp.obj
 0002:00002c98       ??_C@_0M@JCPCPOEF@FlsSetValue?$AA@ 0000000180052c98     LIBCMT:winapisupp.obj
 0002:00002ca8       ??_C@_0BM@HCFOFFN@InitializeCriticalSectionEx?$AA@ 0000000180052ca8     LIBCMT:winapisupp.obj
 0002:00002cc8       ??_C@_0P@DLHPPCNH@CreateEventExW?$AA@ 0000000180052cc8     LIBCMT:winapisupp.obj
 0002:00002cd8       ??_C@_0BD@KIEEOEEH@CreateSemaphoreExW?$AA@ 0000000180052cd8     LIBCMT:winapisupp.obj
 0002:00002cf0       ??_C@_0BI@BKLFFAPO@SetThreadStackGuarantee?$AA@ 0000000180052cf0     LIBCMT:winapisupp.obj
 0002:00002d08       ??_C@_0BG@OGFAJCKC@CreateThreadpoolTimer?$AA@ 0000000180052d08     LIBCMT:winapisupp.obj
 0002:00002d20       ??_C@_0BD@LPLEMMDI@SetThreadpoolTimer?$AA@ 0000000180052d20     LIBCMT:winapisupp.obj
 0002:00002d38       ??_C@_0CA@FMNJENH@WaitForThreadpoolTimerCallbacks?$AA@ 0000000180052d38     LIBCMT:winapisupp.obj
 0002:00002d58       ??_C@_0BF@DCFCCNOC@CloseThreadpoolTimer?$AA@ 0000000180052d58     LIBCMT:winapisupp.obj
 0002:00002d70       ??_C@_0BF@FLABGKKM@CreateThreadpoolWait?$AA@ 0000000180052d70     LIBCMT:winapisupp.obj
 0002:00002d88       ??_C@_0BC@MGCOHNA@SetThreadpoolWait?$AA@ 0000000180052d88     LIBCMT:winapisupp.obj
 0002:00002da0       ??_C@_0BE@OCIOMIMP@CloseThreadpoolWait?$AA@ 0000000180052da0     LIBCMT:winapisupp.obj
 0002:00002db8       ??_C@_0BJ@LKGHFHBO@FlushProcessWriteBuffers?$AA@ 0000000180052db8     LIBCMT:winapisupp.obj
 0002:00002dd8       ??_C@_0BP@KALKKPMO@FreeLibraryWhenCallbackReturns?$AA@ 0000000180052dd8     LIBCMT:winapisupp.obj
 0002:00002df8       ??_C@_0BK@DFNBACLA@GetCurrentProcessorNumber?$AA@ 0000000180052df8     LIBCMT:winapisupp.obj
 0002:00002e18       ??_C@_0BP@KHGALBC@GetLogicalProcessorInformation?$AA@ 0000000180052e18     LIBCMT:winapisupp.obj
 0002:00002e38       ??_C@_0BE@FKKLLFLM@CreateSymbolicLinkW?$AA@ 0000000180052e38     LIBCMT:winapisupp.obj
 0002:00002e50       ??_C@_0BJ@OHNKDLIJ@SetDefaultDllDirectories?$AA@ 0000000180052e50     LIBCMT:winapisupp.obj
 0002:00002e70       ??_C@_0BE@LJANKFHF@EnumSystemLocalesEx?$AA@ 0000000180052e70     LIBCMT:winapisupp.obj
 0002:00002e88       ??_C@_0BA@IHGNDAEB@CompareStringEx?$AA@ 0000000180052e88     LIBCMT:winapisupp.obj
 0002:00002e98       ??_C@_0BA@EPCJIIPD@GetDateFormatEx?$AA@ 0000000180052e98     LIBCMT:winapisupp.obj
 0002:00002ea8       ??_C@_0BA@ONOKGCMP@GetLocaleInfoEx?$AA@ 0000000180052ea8     LIBCMT:winapisupp.obj
 0002:00002eb8       ??_C@_0BA@CIJJKCJJ@GetTimeFormatEx?$AA@ 0000000180052eb8     LIBCMT:winapisupp.obj
 0002:00002ec8       ??_C@_0BJ@PBCCBIPI@GetUserDefaultLocaleName?$AA@ 0000000180052ec8     LIBCMT:winapisupp.obj
 0002:00002ee8       ??_C@_0BC@CELBKLLA@IsValidLocaleName?$AA@ 0000000180052ee8     LIBCMT:winapisupp.obj
 0002:00002f00       ??_C@_0O@KKBNKAPF@LCMapStringEx?$AA@ 0000000180052f00     LIBCMT:winapisupp.obj
 0002:00002f10       ??_C@_0BE@JOGNEJCI@GetCurrentPackageId?$AA@ 0000000180052f10     LIBCMT:winapisupp.obj
 0002:00002f28       ??_C@_0P@CDHHOHKP@GetTickCount64?$AA@ 0000000180052f28     LIBCMT:winapisupp.obj
 0002:00002f38       ??_C@_0BO@KPCLFDJJ@GetFileInformationByHandleExW?$AA@ 0000000180052f38     LIBCMT:winapisupp.obj
 0002:00002f58       ??_C@_0BM@MHIDLABK@SetFileInformationByHandleW?$AA@ 0000000180052f58     LIBCMT:winapisupp.obj
 0002:00002f74       ??_C@_06OJHGLDPL@?$CInull?$CJ?$AA@ 0000000180052f74     LIBCMT:output.obj
 0002:00002f80       ??_C@_1O@CEDCILHN@?$AA?$CI?$AAn?$AAu?$AAl?$AAl?$AA?$CJ?$AA?$AA@ 0000000180052f80     LIBCMT:output.obj
 0002:00002f90       __lookuptable              0000000180052f90     LIBCMT:output.obj
 0002:00002ff0       _sys_errlist               0000000180052ff0     LIBCMT:syserr.obj
 0002:00003150       ??_C@_08INEPGKHH@No?5error?$AA@ 0000000180053150     LIBCMT:syserr.obj
 0002:00003160       ??_C@_0BI@BJFCGOHL@Operation?5not?5permitted?$AA@ 0000000180053160     LIBCMT:syserr.obj
 0002:00003178       ??_C@_0BK@FMDHKPNF@No?5such?5file?5or?5directory?$AA@ 0000000180053178     LIBCMT:syserr.obj
 0002:00003198       ??_C@_0BA@FKIAIBGA@No?5such?5process?$AA@ 0000000180053198     LIBCMT:syserr.obj
 0002:000031a8       ??_C@_0BK@FJBOAFDK@Interrupted?5function?5call?$AA@ 00000001800531a8     LIBCMT:syserr.obj
 0002:000031c8       ??_C@_0BD@KKNFOBBD@Input?1output?5error?$AA@ 00000001800531c8     LIBCMT:syserr.obj
 0002:000031e0       ??_C@_0BK@DPKMCKJ@No?5such?5device?5or?5address?$AA@ 00000001800531e0     LIBCMT:syserr.obj
 0002:00003200       ??_C@_0BC@MFFGCDFL@Arg?5list?5too?5long?$AA@ 0000000180053200     LIBCMT:syserr.obj
 0002:00003218       ??_C@_0BC@HKPNECK@Exec?5format?5error?$AA@ 0000000180053218     LIBCMT:syserr.obj
 0002:00003230       ??_C@_0BE@NFGDDCEF@Bad?5file?5descriptor?$AA@ 0000000180053230     LIBCMT:syserr.obj
 0002:00003248       ??_C@_0BD@LOHELEP@No?5child?5processes?$AA@ 0000000180053248     LIBCMT:syserr.obj
 0002:00003260       ??_C@_0CB@EPFKGNAK@Resource?5temporarily?5unavailable@ 0000000180053260     LIBCMT:syserr.obj
 0002:00003288       ??_C@_0BB@IMDKMPFB@Not?5enough?5space?$AA@ 0000000180053288     LIBCMT:syserr.obj
 0002:000032a0       ??_C@_0BC@HFNFNKAI@Permission?5denied?$AA@ 00000001800532a0     LIBCMT:syserr.obj
 0002:000032b8       ??_C@_0M@LOEHLCJD@Bad?5address?$AA@ 00000001800532b8     LIBCMT:syserr.obj
 0002:000032c8       ??_C@_0O@NIPGCINC@Unknown?5error?$AA@ 00000001800532c8     LIBCMT:syserr.obj
 0002:000032d8       ??_C@_0BA@BIBLIOEK@Resource?5device?$AA@ 00000001800532d8     LIBCMT:syserr.obj
 0002:000032e8       ??_C@_0M@NAAJNNGH@File?5exists?$AA@ 00000001800532e8     LIBCMT:syserr.obj
 0002:000032f8       ??_C@_0O@OAMDNOCP@Improper?5link?$AA@ 00000001800532f8     LIBCMT:syserr.obj
 0002:00003308       ??_C@_0P@NLEIANHE@No?5such?5device?$AA@ 0000000180053308     LIBCMT:syserr.obj
 0002:00003318       ??_C@_0BA@CJBACOOL@Not?5a?5directory?$AA@ 0000000180053318     LIBCMT:syserr.obj
 0002:00003328       ??_C@_0P@NDHGCGKE@Is?5a?5directory?$AA@ 0000000180053328     LIBCMT:syserr.obj
 0002:00003338       ??_C@_0BB@HMGGCEBG@Invalid?5argument?$AA@ 0000000180053338     LIBCMT:syserr.obj
 0002:00003350       ??_C@_0BO@IIFBODJE@Too?5many?5open?5files?5in?5system?$AA@ 0000000180053350     LIBCMT:syserr.obj
 0002:00003370       ??_C@_0BE@INBJMKGG@Too?5many?5open?5files?$AA@ 0000000180053370     LIBCMT:syserr.obj
 0002:00003388       ??_C@_0CE@ONOKNLPF@Inappropriate?5I?1O?5control?5operat@ 0000000180053388     LIBCMT:syserr.obj
 0002:000033b0       ??_C@_0P@LFMMIPAE@File?5too?5large?$AA@ 00000001800533b0     LIBCMT:syserr.obj
 0002:000033c0       ??_C@_0BI@FEALHKLD@No?5space?5left?5on?5device?$AA@ 00000001800533c0     LIBCMT:syserr.obj
 0002:000033d8       ??_C@_0N@FEHLOILP@Invalid?5seek?$AA@ 00000001800533d8     LIBCMT:syserr.obj
 0002:000033e8       ??_C@_0BG@DDBFNKBH@Read?9only?5file?5system?$AA@ 00000001800533e8     LIBCMT:syserr.obj
 0002:00003400       ??_C@_0P@PKCJJLLM@Too?5many?5links?$AA@ 0000000180053400     LIBCMT:syserr.obj
 0002:00003410       ??_C@_0M@LHEPIIOM@Broken?5pipe?$AA@ 0000000180053410     LIBCMT:syserr.obj
 0002:00003420       ??_C@_0N@MMJPGLJK@Domain?5error?$AA@ 0000000180053420     LIBCMT:syserr.obj
 0002:00003430       ??_C@_0BB@FCBJFCAJ@Result?5too?5large?$AA@ 0000000180053430     LIBCMT:syserr.obj
 0002:00003448       ??_C@_0BK@JAEBMJJM@Resource?5deadlock?5avoided?$AA@ 0000000180053448     LIBCMT:syserr.obj
 0002:00003468       ??_C@_0BC@BEDIHIDK@Filename?5too?5long?$AA@ 0000000180053468     LIBCMT:syserr.obj
 0002:00003480       ??_C@_0BD@CLHBCGPB@No?5locks?5available?$AA@ 0000000180053480     LIBCMT:syserr.obj
 0002:00003498       ??_C@_0BJ@IHEHINLI@Function?5not?5implemented?$AA@ 0000000180053498     LIBCMT:syserr.obj
 0002:000034b8       ??_C@_0BE@ICMCHPHH@Directory?5not?5empty?$AA@ 00000001800534b8     LIBCMT:syserr.obj
 0002:000034d0       ??_C@_0BG@KLEAJEFJ@Illegal?5byte?5sequence?$AA@ 00000001800534d0     LIBCMT:syserr.obj
 0002:00003510       _pDestructExceptionObject  0000000180053510     LIBCMT:frame.obj
 0002:00003520       ??_7bad_exception@std@@6B@ 0000000180053520     LIBCMT:frame.obj
 0002:00003530       ??_C@_0O@DPKOEFFH@bad?5exception?$AA@ 0000000180053530     LIBCMT:frame.obj
 0002:00003540       ??_C@_05KLBDPFGC@e?$CL000?$AA@ 0000000180053540     LIBCMT:cvt.obj
 0002:00003548       __real@0000000000000000    0000000180053548     LIBCMT:cvt.obj
 0002:00003550       LcidToLocaleNameTable      0000000180053550     LIBCMT:winapinls.obj
 0002:00004390       LocaleNameToIndexTable     0000000180054390     LIBCMT:winapinls.obj
 0002:000051d0       ??_C@_15EMKDOKLE@?$AAa?$AAr?$AA?$AA@ 00000001800551d0     LIBCMT:winapinls.obj
 0002:000051d8       ??_C@_15KNPADPLH@?$AAb?$AAg?$AA?$AA@ 00000001800551d8     LIBCMT:winapinls.obj
 0002:000051e0       ??_C@_15EDMHLDMO@?$AAc?$AAa?$AA?$AA@ 00000001800551e0     LIBCMT:winapinls.obj
 0002:000051e8       ??_C@_1O@BPEAJADD@?$AAz?$AAh?$AA?9?$AAC?$AAH?$AAS?$AA?$AA@ 00000001800551e8     LIBCMT:winapinls.obj
 0002:000051f8       ??_C@_15LJNHCMNK@?$AAc?$AAs?$AA?$AA@ 00000001800551f8     LIBCMT:winapinls.obj
 0002:00005200       ??_C@_15FOMCIDHG@?$AAd?$AAa?$AA?$AA@ 0000000180055200     LIBCMT:winapinls.obj
 0002:00005208       ??_C@_15NBKABECB@?$AAd?$AAe?$AA?$AA@ 0000000180055208     LIBCMT:winapinls.obj
 0002:00005210       ??_C@_15GHPEIIAO@?$AAe?$AAl?$AA?$AA@ 0000000180055210     LIBCMT:winapinls.obj
 0002:00005218       ??_C@_15MNPNEAIF@?$AAe?$AAn?$AA?$AA@ 0000000180055218     LIBCMT:winapinls.obj
 0002:00005220       ??_C@_15GPIOMPMH@?$AAe?$AAs?$AA?$AA@ 0000000180055220     LIBCMT:winapinls.obj
 0002:00005228       ??_C@_15NGLOAKJC@?$AAf?$AAi?$AA?$AA@ 0000000180055228     LIBCMT:winapinls.obj
 0002:00005230       ??_C@_15FBKGNKAM@?$AAf?$AAr?$AA?$AA@ 0000000180055230     LIBCMT:winapinls.obj
 0002:00005238       ??_C@_15KGGCNEFK@?$AAh?$AAe?$AA?$AA@ 0000000180055238     LIBCMT:winapinls.obj
 0002:00005240       ??_C@_15PGHLIDMF@?$AAh?$AAu?$AA?$AA@ 0000000180055240     LIBCMT:winapinls.obj
 0002:00005248       ??_C@_15BIEMAPLM@?$AAi?$AAs?$AA?$AA@ 0000000180055248     LIBCMT:winapinls.obj
 0002:00005250       ??_C@_15IFJLDHAF@?$AAi?$AAt?$AA?$AA@ 0000000180055250     LIBCMT:winapinls.obj
 0002:00005258       ??_C@_15GEMIOCAG@?$AAj?$AAa?$AA?$AA@ 0000000180055258     LIBCMT:winapinls.obj
 0002:00005260       ??_C@_15EPELEGJA@?$AAk?$AAo?$AA?$AA@ 0000000180055260     LIBCMT:winapinls.obj
 0002:00005268       ??_C@_15NDDHIMN@?$AAn?$AAl?$AA?$AA@ 0000000180055268     LIBCMT:winapinls.obj
 0002:00005270       ??_C@_15BPIGNHCD@?$AAn?$AAo?$AA?$AA@ 0000000180055270     LIBCMT:winapinls.obj
 0002:00005278       ??_C@_15DEOPBLCG@?$AAp?$AAl?$AA?$AA@ 0000000180055278     LIBCMT:winapinls.obj
 0002:00005280       ??_C@_15KBECGEFG@?$AAp?$AAt?$AA?$AA@ 0000000180055280     LIBCMT:winapinls.obj
 0002:00005288       ??_C@_15GLJCBFMD@?$AAr?$AAo?$AA?$AA@ 0000000180055288     LIBCMT:winapinls.obj
 0002:00005290       ??_C@_15FEDGKCDI@?$AAr?$AAu?$AA?$AA@ 0000000180055290     LIBCMT:winapinls.obj
 0002:00005298       ??_C@_15GLKMLLHM@?$AAh?$AAr?$AA?$AA@ 0000000180055298     LIBCMT:winapinls.obj
 0002:000052a0       ??_C@_15CPKMFBDB@?$AAs?$AAk?$AA?$AA@ 00000001800552a0     LIBCMT:winapinls.obj
 0002:000052a8       ??_C@_15BAAIOGMK@?$AAs?$AAq?$AA?$AA@ 00000001800552a8     LIBCMT:winapinls.obj
 0002:000052b0       ??_C@_15INNPNOHD@?$AAs?$AAv?$AA?$AA@ 00000001800552b0     LIBCMT:winapinls.obj
 0002:000052b8       ??_C@_15CABMMOGH@?$AAt?$AAh?$AA?$AA@ 00000001800552b8     LIBCMT:winapinls.obj
 0002:000052c0       ??_C@_15BPLIHJJM@?$AAt?$AAr?$AA?$AA@ 00000001800552c0     LIBCMT:winapinls.obj
 0002:000052c8       ??_C@_15NEOEKKDJ@?$AAu?$AAr?$AA?$AA@ 00000001800552c8     LIBCMT:winapinls.obj
 0002:000052d0       ??_C@_15NFICGAJK@?$AAi?$AAd?$AA?$AA@ 00000001800552d0     LIBCMT:winapinls.obj
 0002:000052d8       ??_C@_15PJPFLCCM@?$AAu?$AAk?$AA?$AA@ 00000001800552d8     LIBCMT:winapinls.obj
 0002:000052e0       ??_C@_15HPJPHDM@?$AAb?$AAe?$AA?$AA@ 00000001800552e0     LIBCMT:winapinls.obj
 0002:000052e8       ??_C@_15LCHLGJII@?$AAs?$AAl?$AA?$AA@ 00000001800552e8     LIBCMT:winapinls.obj
 0002:000052f0       ??_C@_15PCFJPHHO@?$AAe?$AAt?$AA?$AA@ 00000001800552f0     LIBCMT:winapinls.obj
 0002:000052f8       ??_C@_15HPFPGODN@?$AAl?$AAv?$AA?$AA@ 00000001800552f8     LIBCMT:winapinls.obj
 0002:00005300       ??_C@_15NFFGKGLG@?$AAl?$AAt?$AA?$AA@ 0000000180055300     LIBCMT:winapinls.obj
 0002:00005308       ??_C@_15BDAKCCHN@?$AAf?$AAa?$AA?$AA@ 0000000180055308     LIBCMT:winapinls.obj
 0002:00005310       ??_C@_15NFGIAIAJ@?$AAv?$AAi?$AA?$AA@ 0000000180055310     LIBCMT:winapinls.obj
 0002:00005318       ??_C@_15LMKNDMHN@?$AAh?$AAy?$AA?$AA@ 0000000180055318     LIBCMT:winapinls.obj
 0002:00005320       ??_C@_15IJBHMCFL@?$AAa?$AAz?$AA?$AA@ 0000000180055320     LIBCMT:winapinls.obj
 0002:00005328       ??_C@_15EKOFJABL@?$AAe?$AAu?$AA?$AA@ 0000000180055328     LIBCMT:winapinls.obj
 0002:00005330       ??_C@_15BGHADCNK@?$AAm?$AAk?$AA?$AA@ 0000000180055330     LIBCMT:winapinls.obj
 0002:00005338       ??_C@_15JDNICKHM@?$AAa?$AAf?$AA?$AA@ 0000000180055338     LIBCMT:winapinls.obj
 0002:00005340       ??_C@_15KPJEDBKD@?$AAk?$AAa?$AA?$AA@ 0000000180055340     LIBCMT:winapinls.obj
 0002:00005348       ??_C@_15PDNFFFEO@?$AAf?$AAo?$AA?$AA@ 0000000180055348     LIBCMT:winapinls.obj
 0002:00005350       ??_C@_15OMLEGLOC@?$AAh?$AAi?$AA?$AA@ 0000000180055350     LIBCMT:winapinls.obj
 0002:00005358       ??_C@_15IDNNENKK@?$AAm?$AAs?$AA?$AA@ 0000000180055358     LIBCMT:winapinls.obj
 0002:00005360       ??_C@_15MACJNBMH@?$AAk?$AAk?$AA?$AA@ 0000000180055360     LIBCMT:winapinls.obj
 0002:00005368       ??_C@_15DKDJEOND@?$AAk?$AAy?$AA?$AA@ 0000000180055368     LIBCMT:winapinls.obj
 0002:00005370       ??_C@_15DFGDLJBG@?$AAs?$AAw?$AA?$AA@ 0000000180055370     LIBCMT:winapinls.obj
 0002:00005378       ??_C@_15BBFAICNG@?$AAu?$AAz?$AA?$AA@ 0000000180055378     LIBCMT:winapinls.obj
 0002:00005380       ??_C@_15DKNDCGEA@?$AAt?$AAt?$AA?$AA@ 0000000180055380     LIBCMT:winapinls.obj
 0002:00005388       ??_C@_15MGIFMDPL@?$AAp?$AAa?$AA?$AA@ 0000000180055388     LIBCMT:winapinls.obj
 0002:00005390       ??_C@_15HCNDBBA@?$AAg?$AAu?$AA?$AA@ 0000000180055390     LIBCMT:winapinls.obj
 0002:00005398       ??_C@_15FNBEIBON@?$AAt?$AAa?$AA?$AA@ 0000000180055398     LIBCMT:winapinls.obj
 0002:000053a0       ??_C@_15NCHGBGLK@?$AAt?$AAe?$AA?$AA@ 00000001800553a0     LIBCMT:winapinls.obj
 0002:000053a8       ??_C@_15PHPHCBPF@?$AAk?$AAn?$AA?$AA@ 00000001800553a8     LIBCMT:winapinls.obj
 0002:000053b0       ??_C@_15DLGBCKMP@?$AAm?$AAr?$AA?$AA@ 00000001800553b0     LIBCMT:winapinls.obj
 0002:000053b8       ??_C@_15EABBLBFF@?$AAs?$AAa?$AA?$AA@ 00000001800553b8     LIBCMT:winapinls.obj
 0002:000053c0       ??_C@_15CBKOMCOI@?$AAm?$AAn?$AA?$AA@ 00000001800553c0     LIBCMT:winapinls.obj
 0002:000053c8       ??_C@_15CKDMCJAF@?$AAg?$AAl?$AA?$AA@ 00000001800553c8     LIBCMT:winapinls.obj
 0002:000053d0       ??_C@_17CNJFBPG@?$AAk?$AAo?$AAk?$AA?$AA@ 00000001800553d0     LIBCMT:winapinls.obj
 0002:000053d8       ??_C@_17FFBJICPL@?$AAs?$AAy?$AAr?$AA?$AA@ 00000001800553d8     LIBCMT:winapinls.obj
 0002:000053e0       ??_C@_17KPNDCPAF@?$AAd?$AAi?$AAv?$AA?$AA@ 00000001800553e0     LIBCMT:winapinls.obj
 0002:000053e8       ??_C@_11LOCGONAA@?$AA?$AA@ 00000001800553e8     LIBCMT:winapinls.obj
 0002:000053f0       ??_C@_1M@OKAHONE@?$AAa?$AAr?$AA?9?$AAS?$AAA?$AA?$AA@ 00000001800553f0     LIBCMT:winapinls.obj
 0002:00005400       ??_C@_1M@FFFIGIGK@?$AAb?$AAg?$AA?9?$AAB?$AAG?$AA?$AA@ 0000000180055400     LIBCMT:winapinls.obj
 0002:00005410       ??_C@_1M@BJNKEDC@?$AAc?$AAa?$AA?9?$AAE?$AAS?$AA?$AA@ 0000000180055410     LIBCMT:winapinls.obj
 0002:00005420       ??_C@_1M@IJJHFJHA@?$AAc?$AAs?$AA?9?$AAC?$AAZ?$AA?$AA@ 0000000180055420     LIBCMT:winapinls.obj
 0002:00005430       ??_C@_1M@CLPEOBGI@?$AAd?$AAa?$AA?9?$AAD?$AAK?$AA?$AA@ 0000000180055430     LIBCMT:winapinls.obj
 0002:00005440       ??_C@_1M@MCMADGCB@?$AAd?$AAe?$AA?9?$AAD?$AAE?$AA?$AA@ 0000000180055440     LIBCMT:winapinls.obj
 0002:00005450       ??_C@_1M@OOCKEMAM@?$AAe?$AAl?$AA?9?$AAG?$AAR?$AA?$AA@ 0000000180055450     LIBCMT:winapinls.obj
 0002:00005460       ??_C@_1M@DDNJFGID@?$AAf?$AAi?$AA?9?$AAF?$AAI?$AA?$AA@ 0000000180055460     LIBCMT:winapinls.obj
 0002:00005470       ??_C@_1M@GLIPPMAC@?$AAf?$AAr?$AA?9?$AAF?$AAR?$AA?$AA@ 0000000180055470     LIBCMT:winapinls.obj
 0002:00005480       ??_C@_1M@GFMCHPE@?$AAh?$AAe?$AA?9?$AAI?$AAL?$AA?$AA@ 0000000180055480     LIBCMT:winapinls.obj
 0002:00005490       ??_C@_1M@MHLPGNKM@?$AAh?$AAu?$AA?9?$AAH?$AAU?$AA?$AA@ 0000000180055490     LIBCMT:winapinls.obj
 0002:000054a0       ??_C@_1M@LPDDNNPN@?$AAi?$AAs?$AA?9?$AAI?$AAS?$AA?$AA@ 00000001800554a0     LIBCMT:winapinls.obj
 0002:000054b0       ??_C@_1M@MADIPODN@?$AAi?$AAt?$AA?9?$AAI?$AAT?$AA?$AA@ 00000001800554b0     LIBCMT:winapinls.obj
 0002:000054c0       ??_C@_1M@IHBJJGG@?$AAn?$AAl?$AA?9?$AAN?$AAL?$AA?$AA@ 00000001800554c0     LIBCMT:winapinls.obj
 0002:000054d0       ??_C@_1M@EANAGDL@?$AAn?$AAb?$AA?9?$AAN?$AAO?$AA?$AA@ 00000001800554d0     LIBCMT:winapinls.obj
 0002:000054e0       ??_C@_1M@NEIEMEGP@?$AAp?$AAl?$AA?9?$AAP?$AAL?$AA?$AA@ 00000001800554e0     LIBCMT:winapinls.obj
 0002:000054f0       ??_C@_1M@BOCFIGEP@?$AAp?$AAt?$AA?9?$AAB?$AAR?$AA?$AA@ 00000001800554f0     LIBCMT:winapinls.obj
 0002:00005500       ??_C@_1M@IMPFOPBG@?$AAr?$AAo?$AA?9?$AAR?$AAO?$AA?$AA@ 0000000180055500     LIBCMT:winapinls.obj
 0002:00005510       ??_C@_1M@IDNNEJMM@?$AAr?$AAu?$AA?9?$AAR?$AAU?$AA?$AA@ 0000000180055510     LIBCMT:winapinls.obj
 0002:00005520       ??_C@_1M@LILEEOGM@?$AAh?$AAr?$AA?9?$AAH?$AAR?$AA?$AA@ 0000000180055520     LIBCMT:winapinls.obj
 0002:00005530       ??_C@_1M@FKIFEHPB@?$AAs?$AAk?$AA?9?$AAS?$AAK?$AA?$AA@ 0000000180055530     LIBCMT:winapinls.obj
 0002:00005540       ??_C@_1M@LJMAMNPJ@?$AAs?$AAq?$AA?9?$AAA?$AAL?$AA?$AA@ 0000000180055540     LIBCMT:winapinls.obj
 0002:00005550       ??_C@_1M@GIAKDKJK@?$AAs?$AAv?$AA?9?$AAS?$AAE?$AA?$AA@ 0000000180055550     LIBCMT:winapinls.obj
 0002:00005560       ??_C@_1M@MKJKIKCL@?$AAt?$AAh?$AA?9?$AAT?$AAH?$AA?$AA@ 0000000180055560     LIBCMT:winapinls.obj
 0002:00005570       ??_C@_1M@MFLCCMPB@?$AAt?$AAr?$AA?9?$AAT?$AAR?$AA?$AA@ 0000000180055570     LIBCMT:winapinls.obj
 0002:00005580       ??_C@_1M@OIJHDKJN@?$AAu?$AAr?$AA?9?$AAP?$AAK?$AA?$AA@ 0000000180055580     LIBCMT:winapinls.obj
 0002:00005590       ??_C@_1M@LHIPCIEK@?$AAi?$AAd?$AA?9?$AAI?$AAD?$AA?$AA@ 0000000180055590     LIBCMT:winapinls.obj
 0002:000055a0       ??_C@_1M@MFMOBGI@?$AAu?$AAk?$AA?9?$AAU?$AAA?$AA?$AA@ 00000001800555a0     LIBCMT:winapinls.obj
 0002:000055b0       ??_C@_1M@OBGLJIPL@?$AAb?$AAe?$AA?9?$AAB?$AAY?$AA?$AA@ 00000001800555b0     LIBCMT:winapinls.obj
 0002:000055c0       ??_C@_1M@BCFAJEAD@?$AAs?$AAl?$AA?9?$AAS?$AAI?$AA?$AA@ 00000001800555c0     LIBCMT:winapinls.obj
 0002:000055d0       ??_C@_1M@FKFFEDDN@?$AAe?$AAt?$AA?9?$AAE?$AAE?$AA?$AA@ 00000001800555d0     LIBCMT:winapinls.obj
 0002:000055e0       ??_C@_1M@KGKKAACI@?$AAl?$AAv?$AA?9?$AAL?$AAV?$AA?$AA@ 00000001800555e0     LIBCMT:winapinls.obj
 0002:000055f0       ??_C@_1M@IFGBIJO@?$AAl?$AAt?$AA?9?$AAL?$AAT?$AA?$AA@ 00000001800555f0     LIBCMT:winapinls.obj
 0002:00005600       ??_C@_1M@FGEAHEDM@?$AAf?$AAa?$AA?9?$AAI?$AAR?$AA?$AA@ 0000000180055600     LIBCMT:winapinls.obj
 0002:00005610       ??_C@_1M@KBMAIBFN@?$AAv?$AAi?$AA?9?$AAV?$AAN?$AA?$AA@ 0000000180055610     LIBCMT:winapinls.obj
 0002:00005620       ??_C@_1M@GPCBKDJK@?$AAh?$AAy?$AA?9?$AAA?$AAM?$AA?$AA@ 0000000180055620     LIBCMT:winapinls.obj
 0002:00005630       ??_C@_1BG@BECMDDJB@?$AAa?$AAz?$AA?9?$AAA?$AAZ?$AA?9?$AAL?$AAa?$AAt?$AAn?$AA?$AA@ 0000000180055630     LIBCMT:winapinls.obj
 0002:00005648       ??_C@_1M@MAOFCAEA@?$AAe?$AAu?$AA?9?$AAE?$AAS?$AA?$AA@ 0000000180055648     LIBCMT:winapinls.obj
 0002:00005658       ??_C@_1M@IGHABKPI@?$AAm?$AAk?$AA?9?$AAM?$AAK?$AA?$AA@ 0000000180055658     LIBCMT:winapinls.obj
 0002:00005668       ??_C@_1M@IAIGNEJG@?$AAt?$AAn?$AA?9?$AAZ?$AAA?$AA?$AA@ 0000000180055668     LIBCMT:winapinls.obj
 0002:00005678       ??_C@_1M@IIJCOJFA@?$AAx?$AAh?$AA?9?$AAZ?$AAA?$AA?$AA@ 0000000180055678     LIBCMT:winapinls.obj
 0002:00005688       ??_C@_1M@LGPJHNJH@?$AAz?$AAu?$AA?9?$AAZ?$AAA?$AA?$AA@ 0000000180055688     LIBCMT:winapinls.obj
 0002:00005698       ??_C@_1M@HOKAOIO@?$AAa?$AAf?$AA?9?$AAZ?$AAA?$AA?$AA@ 0000000180055698     LIBCMT:winapinls.obj
 0002:000056a8       ??_C@_1M@DPCLHLIE@?$AAk?$AAa?$AA?9?$AAG?$AAE?$AA?$AA@ 00000001800556a8     LIBCMT:winapinls.obj
 0002:000056b8       ??_C@_1M@BLKMHJBI@?$AAf?$AAo?$AA?9?$AAF?$AAO?$AA?$AA@ 00000001800556b8     LIBCMT:winapinls.obj
 0002:000056c8       ??_C@_1M@LGGJAPPB@?$AAh?$AAi?$AA?9?$AAI?$AAN?$AA?$AA@ 00000001800556c8     LIBCMT:winapinls.obj
 0002:000056d8       ??_C@_1M@FIKPIHFE@?$AAm?$AAt?$AA?9?$AAM?$AAT?$AA?$AA@ 00000001800556d8     LIBCMT:winapinls.obj
 0002:000056e8       ??_C@_1M@HEGGPBFA@?$AAs?$AAe?$AA?9?$AAN?$AAO?$AA?$AA@ 00000001800556e8     LIBCMT:winapinls.obj
 0002:000056f8       ??_C@_1M@EIBJEEPA@?$AAm?$AAs?$AA?9?$AAM?$AAY?$AA?$AA@ 00000001800556f8     LIBCMT:winapinls.obj
 0002:00005708       ??_C@_1M@FHLBGMPP@?$AAk?$AAk?$AA?9?$AAK?$AAZ?$AA?$AA@ 0000000180055708     LIBCMT:winapinls.obj
 0002:00005718       ??_C@_1M@NGJJLCGI@?$AAk?$AAy?$AA?9?$AAK?$AAG?$AA?$AA@ 0000000180055718     LIBCMT:winapinls.obj
 0002:00005728       ??_C@_1M@GIENNBFC@?$AAs?$AAw?$AA?9?$AAK?$AAE?$AA?$AA@ 0000000180055728     LIBCMT:winapinls.obj
 0002:00005738       ??_C@_1BG@NDGMJIMJ@?$AAu?$AAz?$AA?9?$AAU?$AAZ?$AA?9?$AAL?$AAa?$AAt?$AAn?$AA?$AA@ 0000000180055738     LIBCMT:winapinls.obj
 0002:00005750       ??_C@_1M@IDCCIHBC@?$AAt?$AAt?$AA?9?$AAR?$AAU?$AA?$AA@ 0000000180055750     LIBCMT:winapinls.obj
 0002:00005760       ??_C@_1M@LOICPMOJ@?$AAb?$AAn?$AA?9?$AAI?$AAN?$AA?$AA@ 0000000180055760     LIBCMT:winapinls.obj
 0002:00005770       ??_C@_1M@KPKKNEAH@?$AAp?$AAa?$AA?9?$AAI?$AAN?$AA?$AA@ 0000000180055770     LIBCMT:winapinls.obj
 0002:00005780       ??_C@_1M@PJGPPBOG@?$AAg?$AAu?$AA?9?$AAI?$AAN?$AA?$AA@ 0000000180055780     LIBCMT:winapinls.obj
 0002:00005790       ??_C@_1M@KMKMOPHI@?$AAt?$AAa?$AA?9?$AAI?$AAN?$AA?$AA@ 0000000180055790     LIBCMT:winapinls.obj
 0002:000057a0       ??_C@_1M@KFEHEPAC@?$AAt?$AAe?$AA?9?$AAI?$AAN?$AA?$AA@ 00000001800557a0     LIBCMT:winapinls.obj
 0002:000057b0       ??_C@_1M@CDCLMGHI@?$AAk?$AAn?$AA?9?$AAI?$AAN?$AA?$AA@ 00000001800557b0     LIBCMT:winapinls.obj
 0002:000057c0       ??_C@_1M@MIODLDKF@?$AAm?$AAl?$AA?9?$AAI?$AAN?$AA?$AA@ 00000001800557c0     LIBCMT:winapinls.obj
 0002:000057d0       ??_C@_1M@PBIEACPO@?$AAm?$AAr?$AA?9?$AAI?$AAN?$AA?$AA@ 00000001800557d0     LIBCMT:winapinls.obj
 0002:000057e0       ??_C@_1M@NIDEAGPH@?$AAs?$AAa?$AA?9?$AAI?$AAN?$AA?$AA@ 00000001800557e0     LIBCMT:winapinls.obj
 0002:000057f0       ??_C@_1M@FHIHCBIO@?$AAm?$AAn?$AA?9?$AAM?$AAN?$AA?$AA@ 00000001800557f0     LIBCMT:winapinls.obj
 0002:00005800       ??_C@_1M@JAIJPENP@?$AAc?$AAy?$AA?9?$AAG?$AAB?$AA?$AA@ 0000000180055800     LIBCMT:winapinls.obj
 0002:00005810       ??_C@_1M@PHGFBEPN@?$AAg?$AAl?$AA?9?$AAE?$AAS?$AA?$AA@ 0000000180055810     LIBCMT:winapinls.obj
 0002:00005820       ??_C@_1O@KPIPDNCP@?$AAk?$AAo?$AAk?$AA?9?$AAI?$AAN?$AA?$AA@ 0000000180055820     LIBCMT:winapinls.obj
 0002:00005830       ??_C@_1O@KNHJLDJA@?$AAs?$AAy?$AAr?$AA?9?$AAS?$AAY?$AA?$AA@ 0000000180055830     LIBCMT:winapinls.obj
 0002:00005840       ??_C@_1O@MKEKBLAH@?$AAd?$AAi?$AAv?$AA?9?$AAM?$AAV?$AA?$AA@ 0000000180055840     LIBCMT:winapinls.obj
 0002:00005850       ??_C@_1O@OHDCKDDF@?$AAq?$AAu?$AAz?$AA?9?$AAB?$AAO?$AA?$AA@ 0000000180055850     LIBCMT:winapinls.obj
 0002:00005860       ??_C@_1M@LEPJNLFD@?$AAn?$AAs?$AA?9?$AAZ?$AAA?$AA?$AA@ 0000000180055860     LIBCMT:winapinls.obj
 0002:00005870       ??_C@_1M@OMLEIIJB@?$AAm?$AAi?$AA?9?$AAN?$AAZ?$AA?$AA@ 0000000180055870     LIBCMT:winapinls.obj
 0002:00005880       ??_C@_1M@PMPEAILG@?$AAa?$AAr?$AA?9?$AAI?$AAQ?$AA?$AA@ 0000000180055880     LIBCMT:winapinls.obj
 0002:00005890       ??_C@_1M@CNKPNOEE@?$AAd?$AAe?$AA?9?$AAC?$AAH?$AA?$AA@ 0000000180055890     LIBCMT:winapinls.obj
 0002:000058a0       ??_C@_1M@LKMGMLKO@?$AAe?$AAn?$AA?9?$AAG?$AAB?$AA?$AA@ 00000001800558a0     LIBCMT:winapinls.obj
 0002:000058b0       ??_C@_1M@PGKJFFGL@?$AAe?$AAs?$AA?9?$AAM?$AAX?$AA?$AA@ 00000001800558b0     LIBCMT:winapinls.obj
 0002:000058c0       ??_C@_1M@DNNANBDC@?$AAf?$AAr?$AA?9?$AAB?$AAE?$AA?$AA@ 00000001800558c0     LIBCMT:winapinls.obj
 0002:000058d0       ??_C@_1M@HLGMDFHM@?$AAi?$AAt?$AA?9?$AAC?$AAH?$AA?$AA@ 00000001800558d0     LIBCMT:winapinls.obj
 0002:000058e0       ??_C@_1M@CLLBGJH@?$AAn?$AAl?$AA?9?$AAB?$AAE?$AA?$AA@ 00000001800558e0     LIBCMT:winapinls.obj
 0002:000058f0       ??_C@_1M@BODBOGLF@?$AAn?$AAn?$AA?9?$AAN?$AAO?$AA?$AA@ 00000001800558f0     LIBCMT:winapinls.obj
 0002:00005900       ??_C@_1M@HFFAHKAD@?$AAp?$AAt?$AA?9?$AAP?$AAT?$AA?$AA@ 0000000180055900     LIBCMT:winapinls.obj
 0002:00005910       ??_C@_1BG@LNOAKHIE@?$AAs?$AAr?$AA?9?$AAS?$AAP?$AA?9?$AAL?$AAa?$AAt?$AAn?$AA?$AA@ 0000000180055910     LIBCMT:winapinls.obj
 0002:00005928       ??_C@_1M@HBMHBGAK@?$AAs?$AAv?$AA?9?$AAF?$AAI?$AA?$AA@ 0000000180055928     LIBCMT:winapinls.obj
 0002:00005938       ??_C@_1BG@DGCJGJBE@?$AAa?$AAz?$AA?9?$AAA?$AAZ?$AA?9?$AAC?$AAy?$AAr?$AAl?$AA?$AA@ 0000000180055938     LIBCMT:winapinls.obj
 0002:00005950       ??_C@_1M@KEJDAAHB@?$AAs?$AAe?$AA?9?$AAS?$AAE?$AA?$AA@ 0000000180055950     LIBCMT:winapinls.obj
 0002:00005960       ??_C@_1M@HEIBJJAD@?$AAm?$AAs?$AA?9?$AAB?$AAN?$AA?$AA@ 0000000180055960     LIBCMT:winapinls.obj
 0002:00005970       ??_C@_1BG@PBGJMCEM@?$AAu?$AAz?$AA?9?$AAU?$AAZ?$AA?9?$AAC?$AAy?$AAr?$AAl?$AA?$AA@ 0000000180055970     LIBCMT:winapinls.obj
 0002:00005988       ??_C@_1O@LAOBCMDF@?$AAq?$AAu?$AAz?$AA?9?$AAE?$AAC?$AA?$AA@ 0000000180055988     LIBCMT:winapinls.obj
 0002:00005998       ??_C@_1M@POEEMAIO@?$AAa?$AAr?$AA?9?$AAE?$AAG?$AA?$AA@ 0000000180055998     LIBCMT:winapinls.obj
 0002:000059a8       ??_C@_1M@EFAKDEDL@?$AAz?$AAh?$AA?9?$AAH?$AAK?$AA?$AA@ 00000001800559a8     LIBCMT:winapinls.obj
 0002:000059b8       ??_C@_1M@HKKIJHGI@?$AAd?$AAe?$AA?9?$AAA?$AAT?$AA?$AA@ 00000001800559b8     LIBCMT:winapinls.obj
 0002:000059c8       ??_C@_1M@KBFBEHJF@?$AAe?$AAn?$AA?9?$AAA?$AAU?$AA?$AA@ 00000001800559c8     LIBCMT:winapinls.obj
 0002:000059d8       ??_C@_1M@MNPLFAAH@?$AAe?$AAs?$AA?9?$AAE?$AAS?$AA?$AA@ 00000001800559d8     LIBCMT:winapinls.obj
 0002:000059e8       ??_C@_1M@HJOOJFMA@?$AAf?$AAr?$AA?9?$AAC?$AAA?$AA?$AA@ 00000001800559e8     LIBCMT:winapinls.obj
 0002:000059f8       ??_C@_1BG@JPOFPNAB@?$AAs?$AAr?$AA?9?$AAS?$AAP?$AA?9?$AAC?$AAy?$AAr?$AAl?$AA?$AA@ 00000001800559f8     LIBCMT:winapinls.obj
 0002:00005a10       ??_C@_1M@LNFOCMOB@?$AAs?$AAe?$AA?9?$AAF?$AAI?$AA?$AA@ 0000000180055a10     LIBCMT:winapinls.obj
 0002:00005a20       ??_C@_1O@MGJBOAMB@?$AAq?$AAu?$AAz?$AA?9?$AAP?$AAE?$AA?$AA@ 0000000180055a20     LIBCMT:winapinls.obj
 0002:00005a30       ??_C@_1M@GJINLBOK@?$AAa?$AAr?$AA?9?$AAL?$AAY?$AA?$AA@ 0000000180055a30     LIBCMT:winapinls.obj
 0002:00005a40       ??_C@_1M@GGMNHJNL@?$AAz?$AAh?$AA?9?$AAS?$AAG?$AA?$AA@ 0000000180055a40     LIBCMT:winapinls.obj
 0002:00005a50       ??_C@_1M@HOIKODND@?$AAd?$AAe?$AA?9?$AAL?$AAU?$AA?$AA@ 0000000180055a50     LIBCMT:winapinls.obj
 0002:00005a60       ??_C@_1M@DDOCCGFG@?$AAe?$AAn?$AA?9?$AAC?$AAA?$AA?$AA@ 0000000180055a60     LIBCMT:winapinls.obj
 0002:00005a70       ??_C@_1M@BNOEMJLF@?$AAe?$AAs?$AA?9?$AAG?$AAT?$AA?$AA@ 0000000180055a70     LIBCMT:winapinls.obj
 0002:00005a80       ??_C@_1M@EOGNKEK@?$AAf?$AAr?$AA?9?$AAC?$AAH?$AA?$AA@ 0000000180055a80     LIBCMT:winapinls.obj
 0002:00005a90       ??_C@_1M@FLIDJFHL@?$AAh?$AAr?$AA?9?$AAB?$AAA?$AA?$AA@ 0000000180055a90     LIBCMT:winapinls.obj
 0002:00005aa0       ??_C@_1O@FMCELNAJ@?$AAs?$AAm?$AAj?$AA?9?$AAN?$AAO?$AA?$AA@ 0000000180055aa0     LIBCMT:winapinls.obj
 0002:00005ab0       ??_C@_1M@JHGLJMGJ@?$AAa?$AAr?$AA?9?$AAD?$AAZ?$AA?$AA@ 0000000180055ab0     LIBCMT:winapinls.obj
 0002:00005ac0       ??_C@_1M@JKKFDCNP@?$AAz?$AAh?$AA?9?$AAM?$AAO?$AA?$AA@ 0000000180055ac0     LIBCMT:winapinls.obj
 0002:00005ad0       ??_C@_1M@GEEFALPE@?$AAd?$AAe?$AA?9?$AAL?$AAI?$AA?$AA@ 0000000180055ad0     LIBCMT:winapinls.obj
 0002:00005ae0       ??_C@_1M@IGEOFBG@?$AAe?$AAn?$AA?9?$AAN?$AAZ?$AA?$AA@ 0000000180055ae0     LIBCMT:winapinls.obj
 0002:00005af0       ??_C@_1M@KDBONEHP@?$AAe?$AAs?$AA?9?$AAC?$AAR?$AA?$AA@ 0000000180055af0     LIBCMT:winapinls.obj
 0002:00005b00       ??_C@_1M@FHMDOHNN@?$AAf?$AAr?$AA?9?$AAL?$AAU?$AA?$AA@ 0000000180055b00     LIBCMT:winapinls.obj
 0002:00005b10       ??_C@_1BG@NFKKMAFG@?$AAb?$AAs?$AA?9?$AAB?$AAA?$AA?9?$AAL?$AAa?$AAt?$AAn?$AA?$AA@ 0000000180055b10     LIBCMT:winapinls.obj
 0002:00005b28       ??_C@_1O@IMNBEMCI@?$AAs?$AAm?$AAj?$AA?9?$AAS?$AAE?$AA?$AA@ 0000000180055b28     LIBCMT:winapinls.obj
 0002:00005b38       ??_C@_1M@DHHMBNDP@?$AAa?$AAr?$AA?9?$AAM?$AAA?$AA?$AA@ 0000000180055b38     LIBCMT:winapinls.obj
 0002:00005b48       ??_C@_1M@BNBLJCGH@?$AAe?$AAn?$AA?9?$AAI?$AAE?$AA?$AA@ 0000000180055b48     LIBCMT:winapinls.obj
 0002:00005b58       ??_C@_1M@GEPAFMDL@?$AAe?$AAs?$AA?9?$AAP?$AAA?$AA?$AA@ 0000000180055b58     LIBCMT:winapinls.obj
 0002:00005b68       ??_C@_1M@OJONDMDL@?$AAf?$AAr?$AA?9?$AAM?$AAC?$AA?$AA@ 0000000180055b68     LIBCMT:winapinls.obj
 0002:00005b78       ??_C@_1BG@OBCNFJB@?$AAs?$AAr?$AA?9?$AAB?$AAA?$AA?9?$AAL?$AAa?$AAt?$AAn?$AA?$AA@ 0000000180055b78     LIBCMT:winapinls.obj
 0002:00005b90       ??_C@_1O@KEMEEGPO@?$AAs?$AAm?$AAa?$AA?9?$AAN?$AAO?$AA?$AA@ 0000000180055b90     LIBCMT:winapinls.obj
 0002:00005ba0       ??_C@_1M@ELMGFODK@?$AAa?$AAr?$AA?9?$AAT?$AAN?$AA?$AA@ 0000000180055ba0     LIBCMT:winapinls.obj
 0002:00005bb0       ??_C@_1M@BHDLHFAF@?$AAe?$AAn?$AA?9?$AAZ?$AAA?$AA?$AA@ 0000000180055bb0     LIBCMT:winapinls.obj
 0002:00005bc0       ??_C@_1M@BMGIGLIF@?$AAe?$AAs?$AA?9?$AAD?$AAO?$AA?$AA@ 0000000180055bc0     LIBCMT:winapinls.obj
 0002:00005bd0       ??_C@_1BG@CMBHIPBE@?$AAs?$AAr?$AA?9?$AAB?$AAA?$AA?9?$AAC?$AAy?$AAr?$AAl?$AA?$AA@ 0000000180055bd0     LIBCMT:winapinls.obj
 0002:00005be8       ??_C@_1O@HEDBLHNP@?$AAs?$AAm?$AAa?$AA?9?$AAS?$AAE?$AA?$AA@ 0000000180055be8     LIBCMT:winapinls.obj
 0002:00005bf8       ??_C@_1M@DAGCADIM@?$AAa?$AAr?$AA?9?$AAO?$AAM?$AA?$AA@ 0000000180055bf8     LIBCMT:winapinls.obj
 0002:00005c08       ??_C@_1M@FODLMICG@?$AAe?$AAn?$AA?9?$AAJ?$AAM?$AA?$AA@ 0000000180055c08     LIBCMT:winapinls.obj
 0002:00005c18       ??_C@_1M@DNMLCIHB@?$AAe?$AAs?$AA?9?$AAV?$AAE?$AA?$AA@ 0000000180055c18     LIBCMT:winapinls.obj
 0002:00005c28       ??_C@_1O@EOKHMKJK@?$AAs?$AAm?$AAs?$AA?9?$AAF?$AAI?$AA?$AA@ 0000000180055c28     LIBCMT:winapinls.obj
 0002:00005c38       ??_C@_1M@CAFJMKOF@?$AAa?$AAr?$AA?9?$AAY?$AAE?$AA?$AA@ 0000000180055c38     LIBCMT:winapinls.obj
 0002:00005c48       ??_C@_1M@CBFHIJLI@?$AAe?$AAn?$AA?9?$AAC?$AAB?$AA?$AA@ 0000000180055c48     LIBCMT:winapinls.obj
 0002:00005c58       ??_C@_1M@BGNFLDN@?$AAe?$AAs?$AA?9?$AAC?$AAO?$AA?$AA@ 0000000180055c58     LIBCMT:winapinls.obj
 0002:00005c68       ??_C@_1O@JMPHMAMC@?$AAs?$AAm?$AAn?$AA?9?$AAF?$AAI?$AA?$AA@ 0000000180055c68     LIBCMT:winapinls.obj
 0002:00005c78       ??_C@_1M@JLANABKE@?$AAa?$AAr?$AA?9?$AAS?$AAY?$AA?$AA@ 0000000180055c78     LIBCMT:winapinls.obj
 0002:00005c88       ??_C@_1M@HPKGCFGN@?$AAe?$AAn?$AA?9?$AAB?$AAZ?$AA?$AA@ 0000000180055c88     LIBCMT:winapinls.obj
 0002:00005c98       ??_C@_1M@OLJCMLGM@?$AAe?$AAs?$AA?9?$AAP?$AAE?$AA?$AA@ 0000000180055c98     LIBCMT:winapinls.obj
 0002:00005ca8       ??_C@_1M@MKKGFKLE@?$AAa?$AAr?$AA?9?$AAJ?$AAO?$AA?$AA@ 0000000180055ca8     LIBCMT:winapinls.obj
 0002:00005cb8       ??_C@_1M@EKPGLDNI@?$AAe?$AAn?$AA?9?$AAT?$AAT?$AA?$AA@ 0000000180055cb8     LIBCMT:winapinls.obj
 0002:00005cc8       ??_C@_1M@OONGHFHE@?$AAe?$AAs?$AA?9?$AAA?$AAR?$AA?$AA@ 0000000180055cc8     LIBCMT:winapinls.obj
 0002:00005cd8       ??_C@_1M@OOJFGBHE@?$AAa?$AAr?$AA?9?$AAL?$AAB?$AA?$AA@ 0000000180055cd8     LIBCMT:winapinls.obj
 0002:00005ce8       ??_C@_1M@GCEJHNEG@?$AAe?$AAn?$AA?9?$AAZ?$AAW?$AA?$AA@ 0000000180055ce8     LIBCMT:winapinls.obj
 0002:00005cf8       ??_C@_1M@JNOCAHJI@?$AAe?$AAs?$AA?9?$AAE?$AAC?$AA?$AA@ 0000000180055cf8     LIBCMT:winapinls.obj
 0002:00005d08       ??_C@_1M@JEFHPGGB@?$AAa?$AAr?$AA?9?$AAK?$AAW?$AA?$AA@ 0000000180055d08     LIBCMT:winapinls.obj
 0002:00005d18       ??_C@_1M@MLKIBJOJ@?$AAe?$AAn?$AA?9?$AAP?$AAH?$AA?$AA@ 0000000180055d18     LIBCMT:winapinls.obj
 0002:00005d28       ??_C@_1M@BDNIPEND@?$AAe?$AAs?$AA?9?$AAC?$AAL?$AA?$AA@ 0000000180055d28     LIBCMT:winapinls.obj
 0002:00005d38       ??_C@_1M@MPNMEKBD@?$AAa?$AAr?$AA?9?$AAA?$AAE?$AA?$AA@ 0000000180055d38     LIBCMT:winapinls.obj
 0002:00005d48       ??_C@_1M@KBJALCPI@?$AAe?$AAs?$AA?9?$AAU?$AAY?$AA?$AA@ 0000000180055d48     LIBCMT:winapinls.obj
 0002:00005d58       ??_C@_1M@LLCCOAGA@?$AAa?$AAr?$AA?9?$AAB?$AAH?$AA?$AA@ 0000000180055d58     LIBCMT:winapinls.obj
 0002:00005d68       ??_C@_1M@PBFNCDEL@?$AAe?$AAs?$AA?9?$AAP?$AAY?$AA?$AA@ 0000000180055d68     LIBCMT:winapinls.obj
 0002:00005d78       ??_C@_1M@EDGINPNP@?$AAa?$AAr?$AA?9?$AAQ?$AAA?$AA?$AA@ 0000000180055d78     LIBCMT:winapinls.obj
 0002:00005d88       ??_C@_1M@MKDBIIJI@?$AAe?$AAs?$AA?9?$AAB?$AAO?$AA?$AA@ 0000000180055d88     LIBCMT:winapinls.obj
 0002:00005d98       ??_C@_1M@CPKKEBLD@?$AAe?$AAs?$AA?9?$AAS?$AAV?$AA?$AA@ 0000000180055d98     LIBCMT:winapinls.obj
 0002:00005da8       ??_C@_1M@NDBGMMJL@?$AAe?$AAs?$AA?9?$AAH?$AAN?$AA?$AA@ 0000000180055da8     LIBCMT:winapinls.obj
 0002:00005db8       ??_C@_1M@JIJIBHDP@?$AAe?$AAs?$AA?9?$AAN?$AAI?$AA?$AA@ 0000000180055db8     LIBCMT:winapinls.obj
 0002:00005dc8       ??_C@_1M@CGFMKEEK@?$AAe?$AAs?$AA?9?$AAP?$AAR?$AA?$AA@ 0000000180055dc8     LIBCMT:winapinls.obj
 0002:00005dd8       ??_C@_1O@ICJHKIIK@?$AAz?$AAh?$AA?9?$AAC?$AAH?$AAT?$AA?$AA@ 0000000180055dd8     LIBCMT:winapinls.obj
 0002:00005de8       ??_C@_15CLNEJCE@?$AAs?$AAr?$AA?$AA@ 0000000180055de8     LIBCMT:winapinls.obj
 0002:00005df0       ??_C@_1M@KAHEKEIG@?$AAa?$AAf?$AA?9?$AAz?$AAa?$AA?$AA@ 0000000180055df0     LIBCMT:winapinls.obj
 0002:00005e00       ??_C@_1M@GIECOABL@?$AAa?$AAr?$AA?9?$AAa?$AAe?$AA?$AA@ 0000000180055e00     LIBCMT:winapinls.obj
 0002:00005e10       ??_C@_1M@BMLMEKGI@?$AAa?$AAr?$AA?9?$AAb?$AAh?$AA?$AA@ 0000000180055e10     LIBCMT:winapinls.obj
 0002:00005e20       ??_C@_1M@DAPFDGGB@?$AAa?$AAr?$AA?9?$AAd?$AAz?$AA?$AA@ 0000000180055e20     LIBCMT:winapinls.obj
 0002:00005e30       ??_C@_1M@FJNKGKIG@?$AAa?$AAr?$AA?9?$AAe?$AAg?$AA?$AA@ 0000000180055e30     LIBCMT:winapinls.obj
 0002:00005e40       ??_C@_1M@FLGKKCLO@?$AAa?$AAr?$AA?9?$AAi?$AAq?$AA?$AA@ 0000000180055e40     LIBCMT:winapinls.obj
 0002:00005e50       ??_C@_1M@GNDIPALM@?$AAa?$AAr?$AA?9?$AAj?$AAo?$AA?$AA@ 0000000180055e50     LIBCMT:winapinls.obj
 0002:00005e60       ??_C@_1M@DDMJFMGJ@?$AAa?$AAr?$AA?9?$AAk?$AAw?$AA?$AA@ 0000000180055e60     LIBCMT:winapinls.obj
 0002:00005e70       ??_C@_1M@EJALMLHM@?$AAa?$AAr?$AA?9?$AAl?$AAb?$AA?$AA@ 0000000180055e70     LIBCMT:winapinls.obj
 0002:00005e80       ??_C@_1M@MOBDBLOC@?$AAa?$AAr?$AA?9?$AAl?$AAy?$AA?$AA@ 0000000180055e80     LIBCMT:winapinls.obj
 0002:00005e90       ??_C@_1M@JAOCLHDH@?$AAa?$AAr?$AA?9?$AAm?$AAa?$AA?$AA@ 0000000180055e90     LIBCMT:winapinls.obj
 0002:00005ea0       ??_C@_1M@JHPMKJIE@?$AAa?$AAr?$AA?9?$AAo?$AAm?$AA?$AA@ 0000000180055ea0     LIBCMT:winapinls.obj
 0002:00005eb0       ??_C@_1M@OEPGHFNH@?$AAa?$AAr?$AA?9?$AAq?$AAa?$AA?$AA@ 0000000180055eb0     LIBCMT:winapinls.obj
 0002:00005ec0       ??_C@_1M@KJDONENM@?$AAa?$AAr?$AA?9?$AAs?$AAa?$AA?$AA@ 0000000180055ec0     LIBCMT:winapinls.obj
 0002:00005ed0       ??_C@_1M@DMJDKLKM@?$AAa?$AAr?$AA?9?$AAs?$AAy?$AA?$AA@ 0000000180055ed0     LIBCMT:winapinls.obj
 0002:00005ee0       ??_C@_1M@OMFIPEDC@?$AAa?$AAr?$AA?9?$AAt?$AAn?$AA?$AA@ 0000000180055ee0     LIBCMT:winapinls.obj
 0002:00005ef0       ??_C@_1M@IHMHGAON@?$AAa?$AAr?$AA?9?$AAy?$AAe?$AA?$AA@ 0000000180055ef0     LIBCMT:winapinls.obj
 0002:00005f00       ??_C@_1BG@KDCPGJGB@?$AAa?$AAz?$AA?9?$AAa?$AAz?$AA?9?$AAc?$AAy?$AAr?$AAl?$AA?$AA@ 0000000180055f00     LIBCMT:winapinls.obj
 0002:00005f18       ??_C@_1BG@IBCKDDOE@?$AAa?$AAz?$AA?9?$AAa?$AAz?$AA?9?$AAl?$AAa?$AAt?$AAn?$AA?$AA@ 0000000180055f18     LIBCMT:winapinls.obj
 0002:00005f30       ??_C@_1M@EGPFDCPD@?$AAb?$AAe?$AA?9?$AAb?$AAy?$AA?$AA@ 0000000180055f30     LIBCMT:winapinls.obj
 0002:00005f40       ??_C@_1M@PCMGMCGC@?$AAb?$AAg?$AA?9?$AAb?$AAg?$AA?$AA@ 0000000180055f40     LIBCMT:winapinls.obj
 0002:00005f50       ??_C@_1M@BJBMFGOB@?$AAb?$AAn?$AA?9?$AAi?$AAn?$AA?$AA@ 0000000180055f50     LIBCMT:winapinls.obj
 0002:00005f60       ??_C@_1BG@EAKMMACD@?$AAb?$AAs?$AA?9?$AAb?$AAa?$AA?9?$AAl?$AAa?$AAt?$AAn?$AA?$AA@ 0000000180055f60     LIBCMT:winapinls.obj
 0002:00005f78       ??_C@_1M@KGADAODK@?$AAc?$AAa?$AA?9?$AAe?$AAs?$AA?$AA@ 0000000180055f78     LIBCMT:winapinls.obj
 0002:00005f88       ??_C@_1M@COAJPDHI@?$AAc?$AAs?$AA?9?$AAc?$AAz?$AA?$AA@ 0000000180055f88     LIBCMT:winapinls.obj
 0002:00005f98       ??_C@_1M@DHBHFONH@?$AAc?$AAy?$AA?9?$AAg?$AAb?$AA?$AA@ 0000000180055f98     LIBCMT:winapinls.obj
 0002:00005fa8       ??_C@_1M@IMGKELGA@?$AAd?$AAa?$AA?9?$AAd?$AAk?$AA?$AA@ 0000000180055fa8     LIBCMT:winapinls.obj
 0002:00005fb8       ??_C@_1M@NNDGDNGA@?$AAd?$AAe?$AA?9?$AAa?$AAt?$AA?$AA@ 0000000180055fb8     LIBCMT:winapinls.obj
 0002:00005fc8       ??_C@_1M@IKDBHEEM@?$AAd?$AAe?$AA?9?$AAc?$AAh?$AA?$AA@ 0000000180055fc8     LIBCMT:winapinls.obj
 0002:00005fd8       ??_C@_1M@GFFOJMCJ@?$AAd?$AAe?$AA?9?$AAd?$AAe?$AA?$AA@ 0000000180055fd8     LIBCMT:winapinls.obj
 0002:00005fe8       ??_C@_1M@MDNLKBPM@?$AAd?$AAe?$AA?9?$AAl?$AAi?$AA?$AA@ 0000000180055fe8     LIBCMT:winapinls.obj
 0002:00005ff8       ??_C@_1M@NJBEEJNL@?$AAd?$AAe?$AA?9?$AAl?$AAu?$AA?$AA@ 0000000180055ff8     LIBCMT:winapinls.obj
 0002:00006008       ??_C@_1O@GNNELBAP@?$AAd?$AAi?$AAv?$AA?9?$AAm?$AAv?$AA?$AA@ 0000000180056008     LIBCMT:winapinls.obj
 0002:00006018       ??_C@_1M@EJLEOGAE@?$AAe?$AAl?$AA?9?$AAg?$AAr?$AA?$AA@ 0000000180056018     LIBCMT:winapinls.obj
 0002:00006028       ??_C@_1M@GMPONJN@?$AAe?$AAn?$AA?9?$AAa?$AAu?$AA?$AA@ 0000000180056028     LIBCMT:winapinls.obj
 0002:00006038       ??_C@_1M@NIDIIPGF@?$AAe?$AAn?$AA?9?$AAb?$AAz?$AA?$AA@ 0000000180056038     LIBCMT:winapinls.obj
 0002:00006048       ??_C@_1M@JEHMIMFO@?$AAe?$AAn?$AA?9?$AAc?$AAa?$AA?$AA@ 0000000180056048     LIBCMT:winapinls.obj
 0002:00006058       ??_C@_1M@IGMJCDLA@?$AAe?$AAn?$AA?9?$AAc?$AAb?$AA?$AA@ 0000000180056058     LIBCMT:winapinls.obj
 0002:00006068       ??_C@_1M@BNFIGBKG@?$AAe?$AAn?$AA?9?$AAg?$AAb?$AA?$AA@ 0000000180056068     LIBCMT:winapinls.obj
 0002:00006078       ??_C@_1M@LKIFDIGP@?$AAe?$AAn?$AA?9?$AAi?$AAe?$AA?$AA@ 0000000180056078     LIBCMT:winapinls.obj
 0002:00006088       ??_C@_1M@PJKFGCCO@?$AAe?$AAn?$AA?9?$AAj?$AAm?$AA?$AA@ 0000000180056088     LIBCMT:winapinls.obj
 0002:00006098       ??_C@_1M@KPPKEPBO@?$AAe?$AAn?$AA?9?$AAn?$AAz?$AA?$AA@ 0000000180056098     LIBCMT:winapinls.obj
 0002:000060a8       ??_C@_1M@GMDGLDOB@?$AAe?$AAn?$AA?9?$AAp?$AAh?$AA?$AA@ 00000001800560a8     LIBCMT:winapinls.obj
 0002:000060b8       ??_C@_1M@ONGIBJNA@?$AAe?$AAn?$AA?9?$AAt?$AAt?$AA?$AA@ 00000001800560b8     LIBCMT:winapinls.obj
 0002:000060c8       ??_C@_1M@LLODPCMM@?$AAe?$AAn?$AA?9?$AAu?$AAs?$AA?$AA@ 00000001800560c8     LIBCMT:winapinls.obj
 0002:000060d8       ??_C@_1M@LAKFNPAN@?$AAe?$AAn?$AA?9?$AAz?$AAa?$AA?$AA@ 00000001800560d8     LIBCMT:winapinls.obj
 0002:000060e8       ??_C@_1M@MFNHNHEO@?$AAe?$AAn?$AA?9?$AAz?$AAw?$AA?$AA@ 00000001800560e8     LIBCMT:winapinls.obj
 0002:000060f8       ??_C@_1M@EJEINPHM@?$AAe?$AAs?$AA?9?$AAa?$AAr?$AA?$AA@ 00000001800560f8     LIBCMT:winapinls.obj
 0002:00006108       ??_C@_1M@GNKPCCJA@?$AAe?$AAs?$AA?9?$AAb?$AAo?$AA?$AA@ 0000000180056108     LIBCMT:winapinls.obj
 0002:00006118       ??_C@_1M@LEEGFONL@?$AAe?$AAs?$AA?9?$AAc?$AAl?$AA?$AA@ 0000000180056118     LIBCMT:winapinls.obj
 0002:00006128       ??_C@_1M@KGPDPBDF@?$AAe?$AAs?$AA?9?$AAc?$AAo?$AA?$AA@ 0000000180056128     LIBCMT:winapinls.obj
 0002:00006138       ??_C@_1M@EIAHOHH@?$AAe?$AAs?$AA?9?$AAc?$AAr?$AA?$AA@ 0000000180056138     LIBCMT:winapinls.obj
 0002:00006148       ??_C@_1M@LLPGMBIN@?$AAe?$AAs?$AA?9?$AAd?$AAo?$AA?$AA@ 0000000180056148     LIBCMT:winapinls.obj
 0002:00006158       ??_C@_1M@DKHMKNJA@?$AAe?$AAs?$AA?9?$AAe?$AAc?$AA?$AA@ 0000000180056158     LIBCMT:winapinls.obj
 0002:00006168       ??_C@_1M@GKGFPKAP@?$AAe?$AAs?$AA?9?$AAe?$AAs?$AA?$AA@ 0000000180056168     LIBCMT:winapinls.obj
 0002:00006178       ??_C@_1M@LKHKGDLN@?$AAe?$AAs?$AA?9?$AAg?$AAt?$AA?$AA@ 0000000180056178     LIBCMT:winapinls.obj
 0002:00006188       ??_C@_1M@HEIIGGJD@?$AAe?$AAs?$AA?9?$AAh?$AAn?$AA?$AA@ 0000000180056188     LIBCMT:winapinls.obj
 0002:00006198       ??_C@_1M@FBDHPPGD@?$AAe?$AAs?$AA?9?$AAm?$AAx?$AA?$AA@ 0000000180056198     LIBCMT:winapinls.obj
 0002:000061a8       ??_C@_1M@DPAGLNDH@?$AAe?$AAs?$AA?9?$AAn?$AAi?$AA?$AA@ 00000001800561a8     LIBCMT:winapinls.obj
 0002:000061b8       ??_C@_1M@MDGOPGDD@?$AAe?$AAs?$AA?9?$AAp?$AAa?$AA?$AA@ 00000001800561b8     LIBCMT:winapinls.obj
 0002:000061c8       ??_C@_1M@EMAMGBGE@?$AAe?$AAs?$AA?9?$AAp?$AAe?$AA?$AA@ 00000001800561c8     LIBCMT:winapinls.obj
 0002:000061d8       ??_C@_1M@IBMCAOEC@?$AAe?$AAs?$AA?9?$AAp?$AAr?$AA?$AA@ 00000001800561d8     LIBCMT:winapinls.obj
 0002:000061e8       ??_C@_1M@FGMDIJED@?$AAe?$AAs?$AA?9?$AAp?$AAy?$AA?$AA@ 00000001800561e8     LIBCMT:winapinls.obj
 0002:000061f8       ??_C@_1M@IIDEOLLL@?$AAe?$AAs?$AA?9?$AAs?$AAv?$AA?$AA@ 00000001800561f8     LIBCMT:winapinls.obj
 0002:00006208       ??_C@_1M@GAOBIPA@?$AAe?$AAs?$AA?9?$AAu?$AAy?$AA?$AA@ 0000000180056208     LIBCMT:winapinls.obj
 0002:00006218       ??_C@_1M@JKFFICHJ@?$AAe?$AAs?$AA?9?$AAv?$AAe?$AA?$AA@ 0000000180056218     LIBCMT:winapinls.obj
 0002:00006228       ??_C@_1M@PNMLOJDF@?$AAe?$AAt?$AA?9?$AAe?$AAe?$AA?$AA@ 0000000180056228     LIBCMT:winapinls.obj
 0002:00006238       ??_C@_1M@GHHLIKEI@?$AAe?$AAu?$AA?9?$AAe?$AAs?$AA?$AA@ 0000000180056238     LIBCMT:winapinls.obj
 0002:00006248       ??_C@_1M@PBNONODE@?$AAf?$AAa?$AA?9?$AAi?$AAr?$AA?$AA@ 0000000180056248     LIBCMT:winapinls.obj
 0002:00006258       ??_C@_1M@JEEHPMIL@?$AAf?$AAi?$AA?9?$AAf?$AAi?$AA?$AA@ 0000000180056258     LIBCMT:winapinls.obj
 0002:00006268       ??_C@_1M@LMDCNDBA@?$AAf?$AAo?$AA?9?$AAf?$AAo?$AA?$AA@ 0000000180056268     LIBCMT:winapinls.obj
 0002:00006278       ??_C@_1M@JKEOHLDK@?$AAf?$AAr?$AA?9?$AAb?$AAe?$AA?$AA@ 0000000180056278     LIBCMT:winapinls.obj
 0002:00006288       ??_C@_1M@NOHADPMI@?$AAf?$AAr?$AA?9?$AAc?$AAa?$AA?$AA@ 0000000180056288     LIBCMT:winapinls.obj
 0002:00006298       ??_C@_1M@KDHIHAEC@?$AAf?$AAr?$AA?9?$AAc?$AAh?$AA?$AA@ 0000000180056298     LIBCMT:winapinls.obj
 0002:000062a8       ??_C@_1M@MMBBFGAK@?$AAf?$AAr?$AA?9?$AAf?$AAr?$AA?$AA@ 00000001800562a8     LIBCMT:winapinls.obj
 0002:000062b8       ??_C@_1M@PAFNENNF@?$AAf?$AAr?$AA?9?$AAl?$AAu?$AA?$AA@ 00000001800562b8     LIBCMT:winapinls.obj
 0002:000062c8       ??_C@_1M@EOHDJGDD@?$AAf?$AAr?$AA?9?$AAm?$AAc?$AA?$AA@ 00000001800562c8     LIBCMT:winapinls.obj
 0002:000062d8       ??_C@_1M@FAPLLOPF@?$AAg?$AAl?$AA?9?$AAe?$AAs?$AA?$AA@ 00000001800562d8     LIBCMT:winapinls.obj
 0002:000062e8       ??_C@_1M@FOPBFLOO@?$AAg?$AAu?$AA?9?$AAi?$AAn?$AA?$AA@ 00000001800562e8     LIBCMT:winapinls.obj
 0002:000062f8       ??_C@_1M@KBMCINPM@?$AAh?$AAe?$AA?9?$AAi?$AAl?$AA?$AA@ 00000001800562f8     LIBCMT:winapinls.obj
 0002:00006308       ??_C@_1M@BBPHKFPJ@?$AAh?$AAi?$AA?9?$AAi?$AAn?$AA?$AA@ 0000000180056308     LIBCMT:winapinls.obj
 0002:00006318       ??_C@_1M@PMBNDPHD@?$AAh?$AAr?$AA?9?$AAb?$AAa?$AA?$AA@ 0000000180056318     LIBCMT:winapinls.obj
 0002:00006328       ??_C@_1M@BPCKOEGE@?$AAh?$AAr?$AA?9?$AAh?$AAr?$AA?$AA@ 0000000180056328     LIBCMT:winapinls.obj
 0002:00006338       ??_C@_1M@GACBMHKE@?$AAh?$AAu?$AA?9?$AAh?$AAu?$AA?$AA@ 0000000180056338     LIBCMT:winapinls.obj
 0002:00006348       ??_C@_1M@MILPAJJC@?$AAh?$AAy?$AA?9?$AAa?$AAm?$AA?$AA@ 0000000180056348     LIBCMT:winapinls.obj
 0002:00006358       ??_C@_1M@BABBICEC@?$AAi?$AAd?$AA?9?$AAi?$AAd?$AA?$AA@ 0000000180056358     LIBCMT:winapinls.obj
 0002:00006368       ??_C@_1M@BIKNHHPF@?$AAi?$AAs?$AA?9?$AAi?$AAs?$AA?$AA@ 0000000180056368     LIBCMT:winapinls.obj
 0002:00006378       ??_C@_1M@NMPCJPHE@?$AAi?$AAt?$AA?9?$AAc?$AAh?$AA?$AA@ 0000000180056378     LIBCMT:winapinls.obj
 0002:00006388       ??_C@_1M@GHKGFEDF@?$AAi?$AAt?$AA?9?$AAi?$AAt?$AA?$AA@ 0000000180056388     LIBCMT:winapinls.obj
 0002:00006398       ??_C@_1M@NIEJCJJA@?$AAj?$AAa?$AA?9?$AAj?$AAp?$AA?$AA@ 0000000180056398     LIBCMT:winapinls.obj
 0002:000063a8       ??_C@_1M@JILFNBIM@?$AAk?$AAa?$AA?9?$AAg?$AAe?$AA?$AA@ 00000001800563a8     LIBCMT:winapinls.obj
 0002:000063b8       ??_C@_1M@PACPMGPH@?$AAk?$AAk?$AA?9?$AAk?$AAz?$AA?$AA@ 00000001800563b8     LIBCMT:winapinls.obj
 0002:000063c8       ??_C@_1M@IELFGMHA@?$AAk?$AAn?$AA?9?$AAi?$AAn?$AA?$AA@ 00000001800563c8     LIBCMT:winapinls.obj
 0002:000063d8       ??_C@_1O@IBBJHCH@?$AAk?$AAo?$AAk?$AA?9?$AAi?$AAn?$AA?$AA@ 00000001800563d8     LIBCMT:winapinls.obj
 0002:000063e8       ??_C@_1M@DMHAEOGC@?$AAk?$AAo?$AA?9?$AAk?$AAr?$AA?$AA@ 00000001800563e8     LIBCMT:winapinls.obj
 0002:000063f8       ??_C@_1M@HBAHBIGA@?$AAk?$AAy?$AA?9?$AAk?$AAg?$AA?$AA@ 00000001800563f8     LIBCMT:winapinls.obj
 0002:00006408       ??_C@_1M@KPMILCJG@?$AAl?$AAt?$AA?9?$AAl?$AAt?$AA?$AA@ 0000000180056408     LIBCMT:winapinls.obj
 0002:00006418       ??_C@_1M@BDEKKCA@?$AAl?$AAv?$AA?9?$AAl?$AAv?$AA?$AA@ 0000000180056418     LIBCMT:winapinls.obj
 0002:00006428       ??_C@_1M@ELCKCCJJ@?$AAm?$AAi?$AA?9?$AAn?$AAz?$AA?$AA@ 0000000180056428     LIBCMT:winapinls.obj
 0002:00006438       ??_C@_1M@CBOOLAPA@?$AAm?$AAk?$AA?9?$AAm?$AAk?$AA?$AA@ 0000000180056438     LIBCMT:winapinls.obj
 0002:00006448       ??_C@_1M@GPHNBJKN@?$AAm?$AAl?$AA?9?$AAi?$AAn?$AA?$AA@ 0000000180056448     LIBCMT:winapinls.obj
 0002:00006458       ??_C@_1M@PABJILIG@?$AAm?$AAn?$AA?9?$AAm?$AAn?$AA?$AA@ 0000000180056458     LIBCMT:winapinls.obj
 0002:00006468       ??_C@_1M@FGBKKIPG@?$AAm?$AAr?$AA?9?$AAi?$AAn?$AA?$AA@ 0000000180056468     LIBCMT:winapinls.obj
 0002:00006478       ??_C@_1M@NDBPDDAL@?$AAm?$AAs?$AA?9?$AAb?$AAn?$AA?$AA@ 0000000180056478     LIBCMT:winapinls.obj
 0002:00006488       ??_C@_1M@OPIHOOPI@?$AAm?$AAs?$AA?9?$AAm?$AAy?$AA?$AA@ 0000000180056488     LIBCMT:winapinls.obj
 0002:00006498       ??_C@_1M@PPDBCNFM@?$AAm?$AAt?$AA?9?$AAm?$AAt?$AA?$AA@ 0000000180056498     LIBCMT:winapinls.obj
 0002:000064a8       ??_C@_1M@KDJDKMDD@?$AAn?$AAb?$AA?9?$AAn?$AAo?$AA?$AA@ 00000001800564a8     LIBCMT:winapinls.obj
 0002:000064b8       ??_C@_1M@KFCFLMJP@?$AAn?$AAl?$AA?9?$AAb?$AAe?$AA?$AA@ 00000001800564b8     LIBCMT:winapinls.obj
 0002:000064c8       ??_C@_1M@KPOPDDGO@?$AAn?$AAl?$AA?9?$AAn?$AAl?$AA?$AA@ 00000001800564c8     LIBCMT:winapinls.obj
 0002:000064d8       ??_C@_1M@LJKPEMLN@?$AAn?$AAn?$AA?9?$AAn?$AAo?$AA?$AA@ 00000001800564d8     LIBCMT:winapinls.obj
 0002:000064e8       ??_C@_1M@BDGHHBFL@?$AAn?$AAs?$AA?9?$AAz?$AAa?$AA?$AA@ 00000001800564e8     LIBCMT:winapinls.obj
 0002:000064f8       ??_C@_1M@IDEHOAP@?$AAp?$AAa?$AA?9?$AAi?$AAn?$AA?$AA@ 00000001800564f8     LIBCMT:winapinls.obj
 0002:00006508       ??_C@_1M@HDBKGOGH@?$AAp?$AAl?$AA?9?$AAp?$AAl?$AA?$AA@ 0000000180056508     LIBCMT:winapinls.obj
 0002:00006518       ??_C@_1M@LJLLCMEH@?$AAp?$AAt?$AA?9?$AAb?$AAr?$AA?$AA@ 0000000180056518     LIBCMT:winapinls.obj
 0002:00006528       ??_C@_1M@NCMONAAL@?$AAp?$AAt?$AA?9?$AAp?$AAt?$AA?$AA@ 0000000180056528     LIBCMT:winapinls.obj
 0002:00006538       ??_C@_1O@EAKMAJDN@?$AAq?$AAu?$AAz?$AA?9?$AAb?$AAo?$AA?$AA@ 0000000180056538     LIBCMT:winapinls.obj
 0002:00006548       ??_C@_1O@BHHPIGDN@?$AAq?$AAu?$AAz?$AA?9?$AAe?$AAc?$AA?$AA@ 0000000180056548     LIBCMT:winapinls.obj
 0002:00006558       ??_C@_1O@GBAPEKMJ@?$AAq?$AAu?$AAz?$AA?9?$AAp?$AAe?$AA?$AA@ 0000000180056558     LIBCMT:winapinls.obj
 0002:00006568       ??_C@_1M@CLGLEFBO@?$AAr?$AAo?$AA?9?$AAr?$AAo?$AA?$AA@ 0000000180056568     LIBCMT:winapinls.obj
 0002:00006578       ??_C@_1M@CEEDODME@?$AAr?$AAu?$AA?9?$AAr?$AAu?$AA?$AA@ 0000000180056578     LIBCMT:winapinls.obj
 0002:00006588       ??_C@_1M@HPKKKMPP@?$AAs?$AAa?$AA?9?$AAi?$AAn?$AA?$AA@ 0000000180056588     LIBCMT:winapinls.obj
 0002:00006598       ??_C@_1M@BKMAIGOJ@?$AAs?$AAe?$AA?9?$AAf?$AAi?$AA?$AA@ 0000000180056598     LIBCMT:winapinls.obj
 0002:000065a8       ??_C@_1M@NDPIFLFI@?$AAs?$AAe?$AA?9?$AAn?$AAo?$AA?$AA@ 00000001800565a8     LIBCMT:winapinls.obj
 0002:000065b8       ??_C@_1M@DANKKHJ@?$AAs?$AAe?$AA?9?$AAs?$AAe?$AA?$AA@ 00000001800565b8     LIBCMT:winapinls.obj
 0002:000065c8       ??_C@_1M@PNBLONPJ@?$AAs?$AAk?$AA?9?$AAs?$AAk?$AA?$AA@ 00000001800565c8     LIBCMT:winapinls.obj
 0002:000065d8       ??_C@_1M@LFMODOAL@?$AAs?$AAl?$AA?9?$AAs?$AAi?$AA?$AA@ 00000001800565d8     LIBCMT:winapinls.obj
 0002:000065e8       ??_C@_1O@DFKOMPG@?$AAs?$AAm?$AAa?$AA?9?$AAn?$AAo?$AA?$AA@ 00000001800565e8     LIBCMT:winapinls.obj
 0002:000065f8       ??_C@_1O@NDKPBNNH@?$AAs?$AAm?$AAa?$AA?9?$AAs?$AAe?$AA?$AA@ 00000001800565f8     LIBCMT:winapinls.obj
 0002:00006608       ??_C@_1O@PLLKBHAB@?$AAs?$AAm?$AAj?$AA?9?$AAn?$AAo?$AA?$AA@ 0000000180056608     LIBCMT:winapinls.obj
 0002:00006618       ??_C@_1O@CLEPOGCA@?$AAs?$AAm?$AAj?$AA?9?$AAs?$AAe?$AA?$AA@ 0000000180056618     LIBCMT:winapinls.obj
 0002:00006628       ??_C@_1O@DLGJGKMK@?$AAs?$AAm?$AAn?$AA?9?$AAf?$AAi?$AA?$AA@ 0000000180056628     LIBCMT:winapinls.obj
 0002:00006638       ??_C@_1O@OJDJGAJC@?$AAs?$AAm?$AAs?$AA?9?$AAf?$AAi?$AA?$AA@ 0000000180056638     LIBCMT:winapinls.obj
 0002:00006648       ??_C@_1M@BOFOGHPB@?$AAs?$AAq?$AA?9?$AAa?$AAl?$AA?$AA@ 0000000180056648     LIBCMT:winapinls.obj
 0002:00006658       ??_C@_1BG@LJBBIPGB@?$AAs?$AAr?$AA?9?$AAb?$AAa?$AA?9?$AAc?$AAy?$AAr?$AAl?$AA?$AA@ 0000000180056658     LIBCMT:winapinls.obj
 0002:00006670       ??_C@_1BG@JLBENFOE@?$AAs?$AAr?$AA?9?$AAb?$AAa?$AA?9?$AAl?$AAa?$AAt?$AAn?$AA?$AA@ 0000000180056670     LIBCMT:winapinls.obj
 0002:00006688       ??_C@_1BG@KODPNHE@?$AAs?$AAr?$AA?9?$AAs?$AAp?$AA?9?$AAc?$AAy?$AAr?$AAl?$AA?$AA@ 0000000180056688     LIBCMT:winapinls.obj
 0002:000066a0       ??_C@_1BG@CIOGKHPB@?$AAs?$AAr?$AA?9?$AAs?$AAp?$AA?9?$AAl?$AAa?$AAt?$AAn?$AA?$AA@ 00000001800566a0     LIBCMT:winapinls.obj
 0002:000066b8       ??_C@_1M@NGFJLMAC@?$AAs?$AAv?$AA?9?$AAf?$AAi?$AA?$AA@ 00000001800566b8     LIBCMT:winapinls.obj
 0002:000066c8       ??_C@_1M@MPJEJAJC@?$AAs?$AAv?$AA?9?$AAs?$AAe?$AA?$AA@ 00000001800566c8     LIBCMT:winapinls.obj
 0002:000066d8       ??_C@_1M@MPNDHLFK@?$AAs?$AAw?$AA?9?$AAk?$AAe?$AA?$AA@ 00000001800566d8     LIBCMT:winapinls.obj
 0002:000066e8       ??_C@_1O@KOHBJJI@?$AAs?$AAy?$AAr?$AA?9?$AAs?$AAy?$AA?$AA@ 00000001800566e8     LIBCMT:winapinls.obj
 0002:000066f8       ??_C@_1M@LDCEFHA@?$AAt?$AAa?$AA?9?$AAi?$AAn?$AA?$AA@ 00000001800566f8     LIBCMT:winapinls.obj
 0002:00006708       ??_C@_1M@CNJOFAK@?$AAt?$AAe?$AA?9?$AAi?$AAn?$AA?$AA@ 0000000180056708     LIBCMT:winapinls.obj
 0002:00006718       ??_C@_1M@GNAECACD@?$AAt?$AAh?$AA?9?$AAt?$AAh?$AA?$AA@ 0000000180056718     LIBCMT:winapinls.obj
 0002:00006728       ??_C@_1M@CHBIHOJO@?$AAt?$AAn?$AA?9?$AAz?$AAa?$AA?$AA@ 0000000180056728     LIBCMT:winapinls.obj
 0002:00006738       ??_C@_1M@GCCMIGPJ@?$AAt?$AAr?$AA?9?$AAt?$AAr?$AA?$AA@ 0000000180056738     LIBCMT:winapinls.obj
 0002:00006748       ??_C@_1M@CELMCNBK@?$AAt?$AAt?$AA?9?$AAr?$AAu?$AA?$AA@ 0000000180056748     LIBCMT:winapinls.obj
 0002:00006758       ??_C@_1M@KLMCELGA@?$AAu?$AAk?$AA?9?$AAu?$AAa?$AA?$AA@ 0000000180056758     LIBCMT:winapinls.obj
 0002:00006768       ??_C@_1M@EPAJJAJF@?$AAu?$AAr?$AA?9?$AAp?$AAk?$AA?$AA@ 0000000180056768     LIBCMT:winapinls.obj
 0002:00006778       ??_C@_1BG@GEGPMCDJ@?$AAu?$AAz?$AA?9?$AAu?$AAz?$AA?9?$AAc?$AAy?$AAr?$AAl?$AA?$AA@ 0000000180056778     LIBCMT:winapinls.obj
 0002:00006790       ??_C@_1BG@EGGKJILM@?$AAu?$AAz?$AA?9?$AAu?$AAz?$AA?9?$AAl?$AAa?$AAt?$AAn?$AA?$AA@ 0000000180056790     LIBCMT:winapinls.obj
 0002:000067a8       ??_C@_1M@GFOCLFF@?$AAv?$AAi?$AA?9?$AAv?$AAn?$AA?$AA@ 00000001800567a8     LIBCMT:winapinls.obj
 0002:000067b8       ??_C@_1M@CPAMEDFI@?$AAx?$AAh?$AA?9?$AAz?$AAa?$AA?$AA@ 00000001800567b8     LIBCMT:winapinls.obj
 0002:000067c8       ??_C@_1O@EBKIFIGN@?$AAz?$AAh?$AA?9?$AAc?$AAh?$AAs?$AA?$AA@ 00000001800567c8     LIBCMT:winapinls.obj
 0002:000067d8       ??_C@_1O@NMHPGANE@?$AAz?$AAh?$AA?9?$AAc?$AAh?$AAt?$AA?$AA@ 00000001800567d8     LIBCMT:winapinls.obj
 0002:000067e8       ??_C@_1M@LPINJOMC@?$AAz?$AAh?$AA?9?$AAc?$AAn?$AA?$AA@ 00000001800567e8     LIBCMT:winapinls.obj
 0002:000067f8       ??_C@_1M@OCJEJODD@?$AAz?$AAh?$AA?9?$AAh?$AAk?$AA?$AA@ 00000001800567f8     LIBCMT:winapinls.obj
 0002:00006808       ??_C@_1M@DNDLJINH@?$AAz?$AAh?$AA?9?$AAm?$AAo?$AA?$AA@ 0000000180056808     LIBCMT:winapinls.obj
 0002:00006818       ??_C@_1M@MBFDNDND@?$AAz?$AAh?$AA?9?$AAs?$AAg?$AA?$AA@ 0000000180056818     LIBCMT:winapinls.obj
 0002:00006828       ??_C@_1M@IMEPLEPE@?$AAz?$AAh?$AA?9?$AAt?$AAw?$AA?$AA@ 0000000180056828     LIBCMT:winapinls.obj
 0002:00006838       ??_C@_1M@BBGHNHJP@?$AAz?$AAu?$AA?9?$AAz?$AAa?$AA?$AA@ 0000000180056838     LIBCMT:winapinls.obj
 0002:00006860       ??_C@_03KHJOGHMM@exp?$AA@  0000000180056860     LIBCMT:fpexcept.obj
 0002:00006864       ??_C@_03JGHBODFD@pow?$AA@  0000000180056864     LIBCMT:fpexcept.obj
 0002:00006868       ??_C@_05HGHHAHAP@log10?$AA@ 0000000180056868     LIBCMT:fpexcept.obj
 0002:00006870       ??_C@_04COOMCNPB@sinh?$AA@ 0000000180056870     LIBCMT:fpexcept.obj
 0002:00006878       ??_C@_04HPJJNFIM@cosh?$AA@ 0000000180056878     LIBCMT:fpexcept.obj
 0002:00006880       ??_C@_04FJHINJAO@tanh?$AA@ 0000000180056880     LIBCMT:fpexcept.obj
 0002:00006888       ??_C@_04FIHNOPOL@asin?$AA@ 0000000180056888     LIBCMT:fpexcept.obj
 0002:00006890       ??_C@_04PDIFKINK@acos?$AA@ 0000000180056890     LIBCMT:fpexcept.obj
 0002:00006898       ??_C@_04MLLJIGOK@atan?$AA@ 0000000180056898     LIBCMT:fpexcept.obj
 0002:000068a0       ??_C@_05KNGEOGJB@atan2?$AA@ 00000001800568a0     LIBCMT:fpexcept.obj
 0002:000068a8       ??_C@_04EIAKFFMI@sqrt?$AA@ 00000001800568a8     LIBCMT:fpexcept.obj
 0002:000068b0       ??_C@_03BLEJJJBH@sin?$AA@  00000001800568b0     LIBCMT:fpexcept.obj
 0002:000068b4       ??_C@_03LALBNOCG@cos?$AA@  00000001800568b4     LIBCMT:fpexcept.obj
 0002:000068b8       ??_C@_03IIINPABG@tan?$AA@  00000001800568b8     LIBCMT:fpexcept.obj
 0002:000068bc       ??_C@_04GFPJNGEK@ceil?$AA@ 00000001800568bc     LIBCMT:fpexcept.obj
 0002:000068c4       ??_C@_05PBJFFIGL@floor?$AA@ 00000001800568c4     LIBCMT:fpexcept.obj
 0002:000068cc       ??_C@_04ODHECPBC@fabs?$AA@ 00000001800568cc     LIBCMT:fpexcept.obj
 0002:000068d4       ??_C@_04EHEDPDJG@modf?$AA@ 00000001800568d4     LIBCMT:fpexcept.obj
 0002:000068dc       ??_C@_05CEJMAHNP@ldexp?$AA@ 00000001800568dc     LIBCMT:fpexcept.obj
 0002:000068e4       ??_C@_05KBKMEMPO@_cabs?$AA@ 00000001800568e4     LIBCMT:fpexcept.obj
 0002:000068ec       ??_C@_04KEPJIHGP@fmod?$AA@ 00000001800568ec     LIBCMT:fpexcept.obj
 0002:000068f4       ??_C@_05GKKHEGJL@frexp?$AA@ 00000001800568f4     LIBCMT:fpexcept.obj
 0002:000068fc       ??_C@_03MJLDFKDL@_y0?$AA@  00000001800568fc     LIBCMT:fpexcept.obj
 0002:00006900       ??_C@_03NAKIGLHK@_y1?$AA@  0000000180056900     LIBCMT:fpexcept.obj
 0002:00006904       ??_C@_03ONILCKOB@_yn?$AA@  0000000180056904     LIBCMT:fpexcept.obj
 0002:00006908       ??_C@_05JGDBENOH@_logb?$AA@ 0000000180056908     LIBCMT:fpexcept.obj
 0002:00006910       ??_C@_0L@KDOEJCKC@_nextafter?$AA@ 0000000180056910     LIBCMT:fpexcept.obj
 0002:00006920       __newctype                 0000000180056920     LIBCMT:ctype.obj
 0002:00006c20       _wctype                    0000000180056c20     LIBCMT:ctype.obj
 0002:00006e30       __newclmap                 0000000180056e30     LIBCMT:ctype.obj
 0002:00006fb0       __newcumap                 0000000180056fb0     LIBCMT:ctype.obj
 0002:00007130       __rg_language_count        0000000180057130     LIBCMT:getqloc.obj
 0002:00007134       __rg_country_count         0000000180057134     LIBCMT:getqloc.obj
 0002:00007140       __lookuptable_s            0000000180057140     LIBCMT:outputs.obj
 0002:000074b8       ??_C@_08EHJDFFNH@__based?$CI?$AA@ 00000001800574b8     LIBCMT:undname.obj
 0002:000074c8       ??_C@_07KOLFKCDI@__cdecl?$AA@ 00000001800574c8     LIBCMT:undname.obj
 0002:000074d0       ??_C@_08GHMPAG@__pascal?$AA@ 00000001800574d0     LIBCMT:undname.obj
 0002:000074e0       ??_C@_09IFJBGAPI@__stdcall?$AA@ 00000001800574e0     LIBCMT:undname.obj
 0002:000074f0       ??_C@_0L@NPHFGOKO@__thiscall?$AA@ 00000001800574f0     LIBCMT:undname.obj
 0002:00007500       ??_C@_0L@JMKHOMEK@__fastcall?$AA@ 0000000180057500     LIBCMT:undname.obj
 0002:00007510       ??_C@_0N@BCKKPABJ@__vectorcall?$AA@ 0000000180057510     LIBCMT:undname.obj
 0002:00007520       ??_C@_09HIJEGCPM@__clrcall?$AA@ 0000000180057520     LIBCMT:undname.obj
 0002:0000752c       ??_C@_06GHPCKEAG@__eabi?$AA@ 000000018005752c     LIBCMT:undname.obj
 0002:00007538       ??_C@_07JOMMBBKO@__ptr64?$AA@ 0000000180057538     LIBCMT:undname.obj
 0002:00007540       ??_C@_0L@PILCLIHE@__restrict?$AA@ 0000000180057540     LIBCMT:undname.obj
 0002:00007550       ??_C@_0M@GFIIJFMG@__unaligned?$AA@ 0000000180057550     LIBCMT:undname.obj
 0002:00007560       ??_C@_09DHDLOLLB@restrict?$CI?$AA@ 0000000180057560     LIBCMT:undname.obj
 0002:0000756c       ??_C@_04NIHEBCM@?5new?$AA@ 000000018005756c     LIBCMT:undname.obj
 0002:00007578       ??_C@_07FPCDHGMM@?5delete?$AA@ 0000000180057578     LIBCMT:undname.obj
 0002:00007580       ??_C@_01NEMOKFLO@?$DN?$AA@ 0000000180057580     LIBCMT:undname.obj
 0002:00007584       ??_C@_02GPIOPFAK@?$DO?$DO?$AA@ 0000000180057584     LIBCMT:undname.obj
 0002:00007588       ??_C@_02FODMEDOG@?$DM?$DM?$AA@ 0000000180057588     LIBCMT:undname.obj
 0002:0000758c       ??_C@_01DCLJPIOD@?$CB?$AA@ 000000018005758c     LIBCMT:undname.obj
 0002:00007590       ??_C@_02EGOFBIJA@?$DN?$DN?$AA@ 0000000180057590     LIBCMT:undname.obj
 0002:00007594       ??_C@_02FDNJECIE@?$CB?$DN?$AA@ 0000000180057594     LIBCMT:undname.obj
 0002:00007598       ??_C@_02GPECMEKF@?$FL?$FN?$AA@ 0000000180057598     LIBCMT:undname.obj
 0002:000075a0       ??_C@_08LHJFAFGD@operator?$AA@ 00000001800575a0     LIBCMT:undname.obj
 0002:000075ac       ??_C@_02HBOOOICD@?9?$DO?$AA@ 00000001800575ac     LIBCMT:undname.obj
 0002:000075b0       ??_C@_01NBENCBCI@?$CK?$AA@ 00000001800575b0     LIBCMT:undname.obj
 0002:000075b4       ??_C@_02ECNGHCIF@?$CL?$CL?$AA@ 00000001800575b4     LIBCMT:undname.obj
 0002:000075b8       ??_C@_02BAABKJLB@?9?9?$AA@ 00000001800575b8     LIBCMT:undname.obj
 0002:000075bc       ??_C@_01JOAMLHOP@?9?$AA@   00000001800575bc     LIBCMT:undname.obj
 0002:000075c0       ??_C@_01MIFGBAGJ@?$CL?$AA@ 00000001800575c0     LIBCMT:undname.obj
 0002:000075c4       ??_C@_01HNPIGOCE@?$CG?$AA@ 00000001800575c4     LIBCMT:undname.obj
 0002:000075c8       ??_C@_03MNHNFDLC@?9?$DO?$CK?$AA@ 00000001800575c8     LIBCMT:undname.obj
 0002:000075cc       ??_C@_01FGNFDNOH@?$CF?$AA@ 00000001800575cc     LIBCMT:undname.obj
 0002:000075d0       ??_C@_01MNNFJEPP@?$DM?$AA@ 00000001800575d0     LIBCMT:undname.obj
 0002:000075d4       ??_C@_02EHCHHCKH@?$DM?$DN?$AA@ 00000001800575d4     LIBCMT:undname.obj
 0002:000075d8       ??_C@_01PPODPGHN@?$DO?$AA@ 00000001800575d8     LIBCMT:undname.obj
 0002:000075dc       ??_C@_02EEKDKGMJ@?$DO?$DN?$AA@ 00000001800575dc     LIBCMT:undname.obj
 0002:000075e0       ??_C@_01IHBHIGKO@?0?$AA@   00000001800575e0     LIBCMT:undname.obj
 0002:000075e4       ??_C@_02HCKGKOFO@?$CI?$CJ?$AA@ 00000001800575e4     LIBCMT:undname.obj
 0002:000075e8       ??_C@_01PJKLJHI@?$HO?$AA@  00000001800575e8     LIBCMT:undname.obj
 0002:000075ec       ??_C@_01JKBOJNNK@?$FO?$AA@ 00000001800575ec     LIBCMT:undname.obj
 0002:000075f0       ??_C@_01DNKMNLPK@?$HM?$AA@ 00000001800575f0     LIBCMT:undname.obj
 0002:000075f4       ??_C@_02PPKAJPJL@?$CG?$CG?$AA@ 00000001800575f4     LIBCMT:undname.obj
 0002:000075f8       ??_C@_02NONPIBCD@?$HM?$HM?$AA@ 00000001800575f8     LIBCMT:undname.obj
 0002:000075fc       ??_C@_02FPIMKNGF@?$CK?$DN?$AA@ 00000001800575fc     LIBCMT:undname.obj
 0002:00007600       ??_C@_02FOEOMHFC@?$CL?$DN?$AA@ 0000000180057600     LIBCMT:undname.obj
 0002:00007604       ??_C@_02FKMDLLOA@?9?$DN?$AA@ 0000000180057604     LIBCMT:undname.obj
 0002:00007608       ??_C@_02FJEHGPIO@?1?$DN?$AA@ 0000000180057608     LIBCMT:undname.obj
 0002:0000760c       ??_C@_02FENAOKFI@?$CF?$DN?$AA@ 000000018005760c     LIBCMT:undname.obj
 0002:00007610       ??_C@_03IKFCCPFF@?$DO?$DO?$DN?$AA@ 0000000180057610     LIBCMT:undname.obj
 0002:00007614       ??_C@_03CDNPDDLA@?$DM?$DM?$DN?$AA@ 0000000180057614     LIBCMT:undname.obj
 0002:00007618       ??_C@_02FGJGFEAB@?$CG?$DN?$AA@ 0000000180057618     LIBCMT:undname.obj
 0002:0000761c       ??_C@_02DHLNPPGH@?$HM?$DN?$AA@ 000000018005761c     LIBCMT:undname.obj
 0002:00007620       ??_C@_02MHEGNOJ@?$FO?$DN?$AA@ 0000000180057620     LIBCMT:undname.obj
 0002:00007628       ??_C@_09IFPLHPGF@?$GAvftable?8?$AA@ 0000000180057628     LIBCMT:undname.obj
 0002:00007638       ??_C@_09BLBHBJP@?$GAvbtable?8?$AA@ 0000000180057638     LIBCMT:undname.obj
 0002:00007648       ??_C@_07FEEIOKP@?$GAvcall?8?$AA@ 0000000180057648     LIBCMT:undname.obj
 0002:00007650       ??_C@_08LLFFHHDJ@?$GAtypeof?8?$AA@ 0000000180057650     LIBCMT:undname.obj
 0002:00007660       ??_C@_0BF@KDPPACIK@?$GAlocal?5static?5guard?8?$AA@ 0000000180057660     LIBCMT:undname.obj
 0002:00007678       ??_C@_08OBABFOLI@?$GAstring?8?$AA@ 0000000180057678     LIBCMT:undname.obj
 0002:00007688       ??_C@_0BD@JDLKDPAB@?$GAvbase?5destructor?8?$AA@ 0000000180057688     LIBCMT:undname.obj
 0002:000076a0       ??_C@_0BN@DEGPLNFK@?$GAvector?5deleting?5destructor?8?$AA@ 00000001800576a0     LIBCMT:undname.obj
 0002:000076c0       ??_C@_0BO@OBMKPJIG@?$GAdefault?5constructor?5closure?8?$AA@ 00000001800576c0     LIBCMT:undname.obj
 0002:000076e0       ??_C@_0BN@IMDCHIKM@?$GAscalar?5deleting?5destructor?8?$AA@ 00000001800576e0     LIBCMT:undname.obj
 0002:00007700       ??_C@_0BO@PFGOCPJJ@?$GAvector?5constructor?5iterator?8?$AA@ 0000000180057700     LIBCMT:undname.obj
 0002:00007720       ??_C@_0BN@LFPFMEDL@?$GAvector?5destructor?5iterator?8?$AA@ 0000000180057720     LIBCMT:undname.obj
 0002:00007740       ??_C@_0CE@IKBNEHA@?$GAvector?5vbase?5constructor?5iterat@ 0000000180057740     LIBCMT:undname.obj
 0002:00007768       ??_C@_0BL@NILFHHPC@?$GAvirtual?5displacement?5map?8?$AA@ 0000000180057768     LIBCMT:undname.obj
 0002:00007788       ??_C@_0CB@JONCMFFK@?$GAeh?5vector?5constructor?5iterator?8@ 0000000180057788     LIBCMT:undname.obj
 0002:000077b0       ??_C@_0CA@GCEOPDGL@?$GAeh?5vector?5destructor?5iterator?8?$AA@ 00000001800577b0     LIBCMT:undname.obj
 0002:000077d0       ??_C@_0CH@OOJPLCPH@?$GAeh?5vector?5vbase?5constructor?5ite@ 00000001800577d0     LIBCMT:undname.obj
 0002:000077f8       ??_C@_0BL@LLKPOHJI@?$GAcopy?5constructor?5closure?8?$AA@ 00000001800577f8     LIBCMT:undname.obj
 0002:00007818       ??_C@_0BA@KBCDOMBN@?$GAudt?5returning?8?$AA@ 0000000180057818     LIBCMT:undname.obj
 0002:00007828       ??_C@_03KLGMFNMG@?$GAEH?$AA@ 0000000180057828     LIBCMT:undname.obj
 0002:0000782c       ??_C@_05KHLCHHI@?$GARTTI?$AA@ 000000018005782c     LIBCMT:undname.obj
 0002:00007838       ??_C@_0BA@KKLDJDLB@?$GAlocal?5vftable?8?$AA@ 0000000180057838     LIBCMT:undname.obj
 0002:00007848       ??_C@_0CE@IIHCMGGL@?$GAlocal?5vftable?5constructor?5closu@ 0000000180057848     LIBCMT:undname.obj
 0002:0000786c       ??_C@_06FHBGPFGH@?5new?$FL?$FN?$AA@ 000000018005786c     LIBCMT:undname.obj
 0002:00007878       ??_C@_09LBNFPBCA@?5delete?$FL?$FN?$AA@ 0000000180057878     LIBCMT:undname.obj
 0002:00007888       ??_C@_0P@HJKNJFNN@?$GAomni?5callsig?8?$AA@ 0000000180057888     LIBCMT:undname.obj
 0002:00007898       ??_C@_0BL@CNOONJFP@?$GAplacement?5delete?5closure?8?$AA@ 0000000180057898     LIBCMT:undname.obj
 0002:000078b8       ??_C@_0BN@CKNJLHMB@?$GAplacement?5delete?$FL?$FN?5closure?8?$AA@ 00000001800578b8     LIBCMT:undname.obj
 0002:000078d8       ??_C@_0CG@CFDHKGGD@?$GAmanaged?5vector?5constructor?5iter@ 00000001800578d8     LIBCMT:undname.obj
 0002:00007900       ??_C@_0CF@IMGKMJNO@?$GAmanaged?5vector?5destructor?5itera@ 0000000180057900     LIBCMT:undname.obj
 0002:00007928       ??_C@_0CG@HLDDJMAG@?$GAeh?5vector?5copy?5constructor?5iter@ 0000000180057928     LIBCMT:undname.obj
 0002:00007950       ??_C@_0CM@FCBBDIGB@?$GAeh?5vector?5vbase?5copy?5constructo@ 0000000180057950     LIBCMT:undname.obj
 0002:00007980       ??_C@_0BL@CLIPGLGB@?$GAdynamic?5initializer?5for?5?8?$AA@ 0000000180057980     LIBCMT:undname.obj
 0002:000079a0       ??_C@_0CB@PDBIFEP@?$GAdynamic?5atexit?5destructor?5for?5?8@ 00000001800579a0     LIBCMT:undname.obj
 0002:000079c8       ??_C@_0CD@CGAJBKEJ@?$GAvector?5copy?5constructor?5iterato@ 00000001800579c8     LIBCMT:undname.obj
 0002:000079f0       ??_C@_0CJ@GJELGAMM@?$GAvector?5vbase?5copy?5constructor?5i@ 00000001800579f0     LIBCMT:undname.obj
 0002:00007a20       ??_C@_0CL@FGIJHLCE@?$GAmanaged?5vector?5copy?5constructor@ 0000000180057a20     LIBCMT:undname.obj
 0002:00007a50       ??_C@_0BM@PMGGMLDN@?$GAlocal?5static?5thread?5guard?8?$AA@ 0000000180057a50     LIBCMT:undname.obj
 0002:00007a70       ??_C@_0BC@DAFEJGAK@?5Type?5Descriptor?8?$AA@ 0000000180057a70     LIBCMT:undname.obj
 0002:00007a88       ??_C@_0BM@LDKODKLH@?5Base?5Class?5Descriptor?5at?5?$CI?$AA@ 0000000180057a88     LIBCMT:undname.obj
 0002:00007aa8       ??_C@_0BD@LGICGFMM@?5Base?5Class?5Array?8?$AA@ 0000000180057aa8     LIBCMT:undname.obj
 0002:00007ac0       ??_C@_0BN@MECKDCOJ@?5Class?5Hierarchy?5Descriptor?8?$AA@ 0000000180057ac0     LIBCMT:undname.obj
 0002:00007ae0       ??_C@_0BK@CFCOFLF@?5Complete?5Object?5Locator?8?$AA@ 0000000180057ae0     LIBCMT:undname.obj
 0002:00007b00       ??_C@_0M@HHGEPIBF@CreateFile2?$AA@ 0000000180057b00     LIBCMT:wopen.obj
 0002:00007b10       ??_C@_1BA@BALFACEM@?$AAC?$AAO?$AAN?$AAO?$AAU?$AAT?$AA$?$AA?$AA@ 0000000180057b10     LIBCMT:initcon.obj
 0002:00007b20       ??_C@_06PGGFOGJG@1?$CDSNAN?$AA@ 0000000180057b20     LIBCMT:x10fout.obj
 0002:00007b28       ??_C@_05PHHOCPM@1?$CDIND?$AA@ 0000000180057b28     LIBCMT:x10fout.obj
 0002:00007b30       ??_C@_05DNEBIAHO@1?$CDINF?$AA@ 0000000180057b30     LIBCMT:x10fout.obj
 0002:00007b38       ??_C@_06IMKFLFPG@1?$CDQNAN?$AA@ 0000000180057b38     LIBCMT:x10fout.obj
 0002:00007b40       ??_C@_1DG@OKCGPKIB@?$AAp?$AAe?$AAr?$AAs?$AAi?$AAs?$AAt?$AAe?$AAn?$AAt?$AA?$CI?$AA?$CJ?$AA?4?$AAI?$AAs?$AAN?$AAe?$AAa?$AAr?$AAD?$AAe?$AAa?$AAt?$AAh?$AA?$CI?$AA?$CJ?$AA?$AA@ 0000000180057b40     batch.obj
 0002:00007b78       ??_C@_1CO@EGNPJLKI@?$AAp?$AAe?$AAr?$AAs?$AAi?$AAs?$AAt?$AAe?$AAn?$AAt?$AA?$CI?$AA?$CJ?$AA?4?$AAI?$AAs?$AAE?$AAm?$AAp?$AAt?$AAy?$AA?$CI?$AA?$CJ?$AA?$AA@ 0000000180057b78     batch.obj
 0002:00007ba8       ??_C@_1DA@FBGAEOIO@?$AA?$CB?$AAp?$AAe?$AAr?$AAs?$AAi?$AAs?$AAt?$AAe?$AAn?$AAt?$AA?$CI?$AA?$CJ?$AA?4?$AAI?$AAs?$AAE?$AAm?$AAp?$AAt?$AAy?$AA?$CI?$AA?$CJ?$AA?$AA@ 0000000180057ba8     batch.obj
 0002:00007bd8       ??_C@_1CO@JCKLEFMA@?$AA?$CB?$AAp?$AAe?$AAr?$AAs?$AAi?$AAs?$AAt?$AAe?$AAn?$AAt?$AA?$CI?$AA?$CJ?$AA?4?$AAI?$AAs?$AAW?$AAe?$AAa?$AAk?$AA?$CI?$AA?$CJ?$AA?$AA@ 0000000180057bd8     batch.obj
 0002:00007c08       ??_C@_1BE@GMLLOIPJ@?$AAr?$AAe?$AAf?$AAs?$AA_?$AA?5?$AA?$DO?$AA?5?$AA0?$AA?$AA@ 0000000180057c08     batch.obj
 0002:00007c20       ??_C@_1CC@GBFLAAPF@?$AAw?$AAr?$AAa?$AAp?$AA?9?$AA?$DO?$AAr?$AAe?$AAf?$AAs?$AA_?$AA?5?$AA?$DN?$AA?$DN?$AA?5?$AA0?$AA?$AA@ 0000000180057c20     batch.obj
 0002:00007c48       ??_C@_0BA@JFNIOLAK@string?5too?5long?$AA@ 0000000180057c48     batch.obj
 0002:00007c60       ??_C@_1MG@FMMCAGGP@?$AAc?$AA?3?$AA?2?$AAu?$AAs?$AAe?$AAr?$AAs?$AA?2?$AAa?$AAd?$AAm?$AAi?$AAn?$AAi?$AAs?$AAt?$AAr?$AAa?$AAt?$AAo?$AAr?$AA?2?$AAd?$AAe?$AAs?$AAk?$AAt?$AAo?$AAp?$AA?2?$AAs@ 0000000180057c60     batch.obj
 0002:00007d30       ??_C@_1EC@MGGLMBLC@?$AAo?$AAb?$AAj?$AAe?$AAc?$AAt?$AA?9?$AA?$DO?$AAI?$AAn?$AAt?$AAe?$AAr?$AAn?$AAa?$AAl?$AAF?$AAi?$AAe?$AAl?$AAd?$AAC?$AAo?$AAu?$AAn?$AAt?$AA?$CI?$AA?$CJ?$AA?5?$AA?$DO?$AA?5?$AA0@ 0000000180057d30     batch.obj
 0002:00007d78       ??_C@_1DI@ELDBKNAK@?$AAw?$AAr?$AAa?$AAp?$AA?9?$AA?$DO?$AAh?$AAa?$AAn?$AAd?$AAl?$AAe?$AA_?$AA?4?$AAI?$AAs?$AAN?$AAe?$AAa?$AAr?$AAD?$AAe?$AAa?$AAt?$AAh?$AA?$CI?$AA?$CJ?$AA?$AA@ 0000000180057d78     batch.obj
 0002:00007db0       ??_C@_05KLBHAINL@Batch?$AA@ 0000000180057db0     batch.obj
 0002:00007db8       ??_C@_03KMONJGDG@put?$AA@  0000000180057db8     batch.obj
 0002:00007dbc       ??_C@_03ONKLGNNH@del?$AA@  0000000180057dbc     batch.obj
 0002:00007dc0       ??_C@_05MEHLAELG@clear?$AA@ 0000000180057dc0     batch.obj
 0002:00007dc8       ??_C@_05NGFEDHGN@write?$AA@ 0000000180057dc8     batch.obj
 0002:00007dd0       ??_C@_04JNABKDKF@sync?$AA@ 0000000180057dd0     batch.obj
 0002:00007dd8       ??_C@_05KMLLANON@batch?$AA@ 0000000180057dd8     batch.obj
 0002:00007de0       ??_C@_0BI@CFPLBAOH@invalid?5string?5position?$AA@ 0000000180057de0     batch.obj
 0002:00007df8       ??_C@_1CE@LNAGEONJ@?$AA?$CB?$AAo?$AAb?$AAj?$AAe?$AAc?$AAt?$AA?4?$AAI?$AAs?$AAE?$AAm?$AAp?$AAt?$AAy?$AA?$CI?$AA?$CJ?$AA?$AA@ 0000000180057df8     batch.obj
 0002:00007e20       ??_7ObjectWrap@Nan@@6B@    0000000180057e20     batch.obj
 0002:00007e38       ??_7Batch@leveldown@@6B@   0000000180057e38     batch.obj
 0002:00007e50       ??_7BatchWriteWorker@leveldown@@6B@ 0000000180057e50     batch_async.obj
 0002:00007e80       ??_7AsyncWorker@Nan@@6B@   0000000180057e80     batch_async.obj
 0002:00007eb0       ??_7AsyncWorker@leveldown@@6B@ 0000000180057eb0     batch_async.obj
 0002:00007ee0       ??_7Database@leveldown@@6B@ 0000000180057ee0     database.obj
 0002:00007f00       ??_C@_1KO@EJKMIIHF@?$AAC?$AA?3?$AA?2?$AAU?$AAs?$AAe?$AAr?$AAs?$AA?2?$AAA?$AAd?$AAm?$AAi?$AAn?$AAi?$AAs?$AAt?$AAr?$AAa?$AAt?$AAo?$AAr?$AA?2?$AAD?$AAe?$AAs?$AAk?$AAt?$AAo?$AAp?$AA?2?$AAs@ 0000000180057f00     database.obj
 0002:00007fb0       ??_C@_1BO@OPFMAOCA@?$AAl?$AAe?$AAn?$AA?5?$AA?$DM?$AA?$DN?$AA?5?$AAI?$AAN?$AAT?$AA_?$AAM?$AAA?$AAX?$AA?$AA@ 0000000180057fb0     database.obj
 0002:00007fd0       ??_C@_1BE@CKDJNAPC@?$AAs?$AAt?$AAr?$AA_?$AA?5?$AA?$CB?$AA?$DN?$AA?5?$AA0?$AA?$AA@ 0000000180057fd0     database.obj
 0002:00007fe8       ??_C@_08HDBDMMBI@Database?$AA@ 0000000180057fe8     database.obj
 0002:00007ff4       ??_C@_04PMOCAHAA@open?$AA@ 0000000180057ff4     database.obj
 0002:00007ffc       ??_C@_05LBOHBHFK@close?$AA@ 0000000180057ffc     database.obj
 0002:00008004       ??_C@_03HNAFFKGA@get?$AA@  0000000180058004     database.obj
 0002:00008008       ??_C@_0BA@ICBLEBO@approximateSize?$AA@ 0000000180058008     database.obj
 0002:00008018       ??_C@_0M@NBNLNHMA@getProperty?$AA@ 0000000180058018     database.obj
 0002:00008028       ??_C@_08EAMFHCBD@iterator?$AA@ 0000000180058028     database.obj
 0002:00008038       ??_C@_0CE@HHBAOMKC@open?$CI?$CJ?5requires?5a?5callback?5argum@ 0000000180058038     database.obj
 0002:00008060       ??_C@_0BA@IMLMMIHB@createIfMissing?$AA@ 0000000180058060     database.obj
 0002:00008070       ??_C@_0O@CKMGLPGG@errorIfExists?$AA@ 0000000180058070     database.obj
 0002:00008080       ??_C@_0M@DGJEMLOB@compression?$AA@ 0000000180058080     database.obj
 0002:00008090       ??_C@_09KLMIPJNI@cacheSize?$AA@ 0000000180058090     database.obj
 0002:000080a0       ??_C@_0BA@DHJKOGAG@writeBufferSize?$AA@ 00000001800580a0     database.obj
 0002:000080b0       ??_C@_09NKOHFFHE@blockSize?$AA@ 00000001800580b0     database.obj
 0002:000080c0       ??_C@_0N@OEAPABBL@maxOpenFiles?$AA@ 00000001800580c0     database.obj
 0002:000080d0       ??_C@_0BF@KEFIBIAB@blockRestartInterval?$AA@ 00000001800580d0     database.obj
 0002:000080e8       ??_C@_08PBOCEOLL@database?$AA@ 00000001800580e8     database.obj
 0002:000080f8       ??_C@_0CF@NPLBOPGM@close?$CI?$CJ?5requires?5a?5callback?5argu@ 00000001800580f8     database.obj
 0002:00008120       ??_C@_03JBJLGPFL@end?$AA@  0000000180058120     database.obj
 0002:00008128       ??_C@_0CD@OPCHGGCC@put?$CI?$CJ?5requires?5a?5callback?5argume@ 0000000180058128     database.obj
 0002:00008150       ??_C@_0CD@IGCCFGHB@get?$CI?$CJ?5requires?5a?5callback?5argume@ 0000000180058150     database.obj
 0002:00008178       ??_C@_08KDGACIGK@asBuffer?$AA@ 0000000180058178     database.obj
 0002:00008188       ??_C@_09KBFNDMIM@fillCache?$AA@ 0000000180058188     database.obj
 0002:00008198       ??_C@_0CD@LINPOKAD@del?$CI?$CJ?5requires?5a?5callback?5argume@ 0000000180058198     database.obj
 0002:000081c0       ??_C@_0CF@CIMGFFEN@batch?$CI?$CJ?5requires?5a?5callback?5argu@ 00000001800581c0     database.obj
 0002:000081e8       ??_C@_03ICHNJLJF@key?$AA@  00000001800581e8     database.obj
 0002:000081ec       ??_C@_04GPMDFGEJ@type?$AA@ 00000001800581ec     database.obj
 0002:000081f4       ??_C@_05MFEJDJP@value?$AA@ 00000001800581f4     database.obj
 0002:00008200       ??_C@_0CP@IOHKLPIB@approximateSize?$CI?$CJ?5requires?5a?5cal@ 0000000180058200     database.obj
 0002:00008230       ??_C@_0CD@DMCOACFB@Fatal?5Error?5in?5Database?3?3Iterato@ 0000000180058230     database.obj
 0002:00008258       ??_C@_0BE@JONHPENG@map?1set?$DMT?$DO?5too?5long?$AA@ 0000000180058258     database.obj
 0002:00008270       ??_C@_1FM@LOELJOFK@?$AAs?$AAi?$AAz?$AAe?$AA?5?$AA?$DM?$AA?$DN?$AA?5?$AAi?$AAm?$AAp?$AA?3?$AA?3?$AAk?$AAM?$AAa?$AAx?$AAL?$AAe?$AAn?$AAg?$AAt?$AAh?$AA?5?$AA?$CG?$AA?$CG?$AA?5?$AA?$CC?$AAt?$AAo?$AAo?$AA?5@ 0000000180058270     database_async.obj
 0002:000082cc       ??_C@_05FAGFPHJG@start?$AA@ 00000001800582cc     database_async.obj
 0002:000082d8       ??_7ReadWorker@leveldown@@6B@ 00000001800582d8     database_async.obj
 0002:00008308       ??_7IOWorker@leveldown@@6B@ 0000000180058308     database_async.obj
 0002:00008338       ??_7DeleteWorker@leveldown@@6B@ 0000000180058338     database_async.obj
 0002:00008368       ??_7WriteWorker@leveldown@@6B@ 0000000180058368     database_async.obj
 0002:00008398       ??_7OpenWorker@leveldown@@6B@ 0000000180058398     database_async.obj
 0002:000083c8       ??_7ApproximateSizeWorker@leveldown@@6B@ 00000001800583c8     database_async.obj
 0002:000083f8       ??_7BatchWorker@leveldown@@6B@ 00000001800583f8     database_async.obj
 0002:00008428       ??_7CloseWorker@leveldown@@6B@ 0000000180058428     database_async.obj
 0002:00008458       ??_C@_0CE@FOALBICH@next?$CI?$CJ?5requires?5a?5callback?5argum@ 0000000180058458     iterator.obj
 0002:00008480       ??_C@_0CD@IJEBAALJ@end?$CI?$CJ?5requires?5a?5callback?5argume@ 0000000180058480     iterator.obj
 0002:000084a8       ??_C@_08MCDEPALA@Iterator?$AA@ 00000001800584a8     iterator.obj
 0002:000084b4       ??_C@_04EDECCOGL@seek?$AA@ 00000001800584b4     iterator.obj
 0002:000084bc       ??_C@_04CJGEDOF@next?$AA@  00000001800584bc     iterator.obj
 0002:000084c8       ??_C@_07KOIEOCCE@reverse?$AA@ 00000001800584c8     iterator.obj
 0002:000084d0       ??_C@_05GADAOHMC@limit?$AA@ 00000001800584d0     iterator.obj
 0002:000084d8       ??_C@_0O@PLFAGPJD@highWaterMark?$AA@ 00000001800584d8     iterator.obj
 0002:000084e8       ??_C@_02KCAKIFL@lt?$AA@    00000001800584e8     iterator.obj
 0002:000084ec       ??_C@_03OEDJDHDG@lte?$AA@  00000001800584ec     iterator.obj
 0002:000084f0       ??_C@_02GHFEHLK@gt?$AA@    00000001800584f0     iterator.obj
 0002:000084f4       ??_C@_03DDDILADH@gte?$AA@  00000001800584f4     iterator.obj
 0002:000084f8       ??_C@_04IEPFDAGF@keys?$AA@ 00000001800584f8     iterator.obj
 0002:00008500       ??_C@_06GEKOPAHD@values?$AA@ 0000000180058500     iterator.obj
 0002:00008508       ??_C@_0M@MOFCCECG@keyAsBuffer?$AA@ 0000000180058508     iterator.obj
 0002:00008518       ??_C@_0O@ECAICMIE@valueAsBuffer?$AA@ 0000000180058518     iterator.obj
 0002:00008528       ??_C@_0BD@OLBABOEK@vector?$DMT?$DO?5too?5long?$AA@ 0000000180058528     iterator.obj
 0002:00008540       ??_7Iterator@leveldown@@6B@ 0000000180058540     iterator.obj
 0002:00008558       ??_7NextWorker@leveldown@@6B@ 0000000180058558     iterator_async.obj
 0002:00008588       ??_7EndWorker@leveldown@@6B@ 0000000180058588     iterator_async.obj
 0002:000085b8       ??_C@_07OKFGPCEA@destroy?$AA@ 00000001800585b8     leveldown.obj
 0002:000085c0       ??_C@_06GBBKOEBI@repair?$AA@ 00000001800585c0     leveldown.obj
 0002:000085c8       ??_C@_09KIOKINMM@leveldown?$AA@ 00000001800585c8     leveldown.obj
 0002:000085d8       ??_C@_0BE@BKDFJCMI@?4?4?2src?2leveldown?4cc?$AA@ 00000001800585d8     leveldown.obj
 0002:000085f0       ??_7RepairWorker@leveldown@@6B@ 00000001800585f0     leveldown_async.obj
 0002:00008620       ??_7DestroyWorker@leveldown@@6B@ 0000000180058620     leveldown_async.obj
 0002:00008650       ??_C@_08HCOMDCCD@iojs?4exe?$AA@ 0000000180058650     win_delay_load_hook.obj
 0002:00008660       ??_C@_08JDDNMFDB@node?4exe?$AA@ 0000000180058660     win_delay_load_hook.obj
 0002:00008670       ??_7SequentialFile@leveldb@@6B@ 0000000180058670     leveldb:env.obj
 0002:00008670       ??_7Handler@WriteBatch@leveldb@@6B@ 0000000180058670     leveldb:write_batch.obj
 0002:00008688       ??_7MemTableInserter@?A0xfa83a6e3@leveldb@@6B@ 0000000180058688     leveldb:write_batch.obj
 0002:000086a0       ??_C@_00CNPNBAHC@?$AA@     00000001800586a0     leveldb:write_batch.obj
 0002:000086b0       ??_C@_1OI@ELFPDGHI@?$AAC?$AA?3?$AA?2?$AAU?$AAs?$AAe?$AAr?$AAs?$AA?2?$AAA?$AAd?$AAm?$AAi?$AAn?$AAi?$AAs?$AAt?$AAr?$AAa?$AAt?$AAo?$AAr?$AA?2?$AAD?$AAe?$AAs?$AAk?$AAt?$AAo?$AAp?$AA?2?$AAs@ 00000001800586b0     leveldb:write_batch.obj
 0002:00008798       ??_C@_1BG@NADKCJKJ@?$AAn?$AA?5?$AA?$DM?$AA?5?$AAs?$AAi?$AAz?$AAe?$AA?$CI?$AA?$CJ?$AA?$AA@ 0000000180058798     leveldb:write_batch.obj
 0002:000087b0       ??_C@_1BI@LMLGEHCA@?$AAn?$AA?5?$AA?$DM?$AA?$DN?$AA?5?$AAs?$AAi?$AAz?$AAe?$AA?$CI?$AA?$CJ?$AA?$AA@ 00000001800587b0     leveldb:write_batch.obj
 0002:000087c8       ??_C@_0CB@MFAPGBPB@malformed?5WriteBatch?5?$CItoo?5small?$CJ@ 00000001800587c8     leveldb:write_batch.obj
 0002:000087f0       ??_C@_0BD@KFCDGH@bad?5WriteBatch?5Put?$AA@ 00000001800587f0     leveldb:write_batch.obj
 0002:00008808       ??_C@_0BG@NCNAMDPJ@bad?5WriteBatch?5Delete?$AA@ 0000000180058808     leveldb:write_batch.obj
 0002:00008820       ??_C@_0BH@MHGNFOAB@unknown?5WriteBatch?5tag?$AA@ 0000000180058820     leveldb:write_batch.obj
 0002:00008838       ??_C@_0BL@GDAJGIHJ@WriteBatch?5has?5wrong?5count?$AA@ 0000000180058838     leveldb:write_batch.obj
 0002:00008860       ??_C@_1EC@EIAIFPOJ@?$AAl?$AAe?$AAv?$AAe?$AAl?$AAd?$AAb?$AA?9?$AA1?$AA?4?$AA1?$AA8?$AA?4?$AA0?$AA?2?$AAd?$AAb?$AA?2?$AAw?$AAr?$AAi?$AAt?$AAe?$AA_?$AAb?$AAa?$AAt?$AAc?$AAh?$AA?4?$AAc?$AAc@ 0000000180058860     leveldb:write_batch.obj
 0002:000088a8       ??_C@_1DI@BGNOMHCM@?$AAs?$AAr?$AAc?$AA?9?$AA?$DO?$AAr?$AAe?$AAp?$AA_?$AA?4?$AAs?$AAi?$AAz?$AAe?$AA?$CI?$AA?$CJ?$AA?5?$AA?$DO?$AA?$DN?$AA?5?$AAk?$AAH?$AAe?$AAa?$AAd?$AAe?$AAr?$AA?$AA@ 00000001800588a8     leveldb:write_batch.obj
 0002:000088e0       ??_C@_1DM@HDEGIPOI@?$AAl?$AAe?$AAv?$AAe?$AAl?$AAd?$AAb?$AA?9?$AA1?$AA?4?$AA1?$AA8?$AA?4?$AA0?$AA?2?$AAu?$AAt?$AAi?$AAl?$AA?2?$AAs?$AAt?$AAa?$AAt?$AAu?$AAs?$AA?4?$AAc?$AAc?$AA?$AA@ 00000001800588e0     leveldb:status.obj
 0002:00008920       ??_C@_1BI@DNJOCBDA@?$AAc?$AAo?$AAd?$AAe?$AA?5?$AA?$CB?$AA?$DN?$AA?5?$AAk?$AAO?$AAk?$AA?$AA@ 0000000180058920     leveldb:status.obj
 0002:00008938       ??_C@_02GIPFHKNO@OK?$AA@   0000000180058938     leveldb:status.obj
 0002:00008940       ??_C@_0L@HKDIDHFG@NotFound?3?5?$AA@ 0000000180058940     leveldb:status.obj
 0002:00008950       ??_C@_0N@KDKDJABO@Corruption?3?5?$AA@ 0000000180058950     leveldb:status.obj
 0002:00008960       ??_C@_0BC@IFMBLDI@Not?5implemented?3?5?$AA@ 0000000180058960     leveldb:status.obj
 0002:00008978       ??_C@_0BD@JMODGJIE@Invalid?5argument?3?5?$AA@ 0000000180058978     leveldb:status.obj
 0002:00008990       ??_C@_0L@BHAHLIIP@IO?5error?3?5?$AA@ 0000000180058990     leveldb:status.obj
 0002:000089a0       ??_C@_0BD@MHNAFLBE@Unknown?5code?$CI?$CFd?$CJ?3?5?$AA@ 00000001800589a0     leveldb:status.obj
 0002:000089b8       ??_C@_1DK@GIOCKMOI@?$AAl?$AAe?$AAv?$AAe?$AAl?$AAd?$AAb?$AA?9?$AA1?$AA?4?$AA1?$AA8?$AA?4?$AA0?$AA?2?$AAu?$AAt?$AAi?$AAl?$AA?2?$AAc?$AAa?$AAc?$AAh?$AAe?$AA?4?$AAc?$AAc?$AA?$AA@ 00000001800589b8     leveldb:cache.obj
 0002:000089f8       ??_C@_1CA@DEHIGIIA@?$AAe?$AAl?$AAe?$AAm?$AAs?$AA_?$AA?5?$AA?$DN?$AA?$DN?$AA?5?$AAc?$AAo?$AAu?$AAn?$AAt?$AA?$AA@ 00000001800589f8     leveldb:cache.obj
 0002:00008a18       ??_C@_1BK@NGJLMDHI@?$AAe?$AA?9?$AA?$DO?$AAr?$AAe?$AAf?$AAs?$AA?5?$AA?$DN?$AA?$DN?$AA?5?$AA1?$AA?$AA@ 0000000180058a18     leveldb:cache.obj
 0002:00008a38       ??_C@_1BI@HFHCLOOL@?$AAe?$AA?9?$AA?$DO?$AAr?$AAe?$AAf?$AAs?$AA?5?$AA?$DO?$AA?5?$AA0?$AA?$AA@ 0000000180058a38     leveldb:cache.obj
 0002:00008a50       ??_7Cache@leveldb@@6B@     0000000180058a50     leveldb:cache.obj
 0002:00008a88       ??_7ShardedLRUCache@?A0x90ee7a33@leveldb@@6B@ 0000000180058a88     leveldb:cache.obj
 0002:00008ac0       ??_C@_0BM@ELMIHIHJ@leveldb?4BuiltinBloomFilter2?$AA@ 0000000180058ac0     leveldb:bloom.obj
 0002:00008ae0       ??_7Source@snappy@@6B@     0000000180058ae0     snappy:snappy.obj
 0002:00008ae0       ??_7FilterPolicy@leveldb@@6B@ 0000000180058ae0     leveldb:bloom.obj
 0002:00008b00       ??_7BloomFilterPolicy@?A0xf6456aac@leveldb@@6B@ 0000000180058b00     leveldb:bloom.obj
 0002:00008b20       ??_7SnapshotImpl@leveldb@@6B@ 0000000180058b20     leveldb:db_impl.obj
 0002:00008b28       ??_7DB@leveldb@@6B@        0000000180058b28     leveldb:db_impl.obj
 0002:00008b80       ??_7InternalKeyComparator@leveldb@@6B@ 0000000180058b80     leveldb:db_impl.obj
 0002:00008ba8       ??_7Comparator@leveldb@@6B@ 0000000180058ba8     leveldb:db_impl.obj
 0002:00008ba8       ??_7WritableFile@leveldb@@6B@ 0000000180058ba8     leveldb:env.obj
 0002:00008bd0       ??_7DBImpl@leveldb@@6B@    0000000180058bd0     leveldb:db_impl.obj
 0002:00008c28       ??_7FileLock@leveldb@@6B@  0000000180058c28     leveldb:env.obj
 0002:00008c28       ??_7Snapshot@leveldb@@6B@  0000000180058c28     leveldb:db_impl.obj
 0002:00008c30       ??_7LogReporter@?1??RecoverLogFile@DBImpl@leveldb@@AEAA?AVStatus@3@_KPEAVVersionEdit@3@PEA_K@Z@6B@ 0000000180058c30     leveldb:db_impl.obj
 0002:00008c40       ??_7InternalFilterPolicy@leveldb@@6B@ 0000000180058c40     leveldb:db_impl.obj
 0002:00008c60       ??_C@_02DPKJAMEF@?$CFd?$AA@ 0000000180058c60     leveldb:db_impl.obj
 0002:00008c70       ??_C@_1NE@HAJLGGLJ@?$AAC?$AA?3?$AA?2?$AAU?$AAs?$AAe?$AAr?$AAs?$AA?2?$AAA?$AAd?$AAm?$AAi?$AAn?$AAi?$AAs?$AAt?$AAr?$AAa?$AAt?$AAo?$AAr?$AA?2?$AAD?$AAe?$AAs?$AAk?$AAt?$AAo?$AAp?$AA?2?$AAs@ 0000000180058c70     leveldb:db_impl.obj
 0002:00008d48       ??_C@_1DC@KFNEGKGI@?$AAi?$AAn?$AAt?$AAe?$AAr?$AAn?$AAa?$AAl?$AA_?$AAk?$AAe?$AAy?$AA?4?$AAs?$AAi?$AAz?$AAe?$AA?$CI?$AA?$CJ?$AA?5?$AA?$DO?$AA?$DN?$AA?5?$AA8?$AA?$AA@ 0000000180058d48     leveldb:db_impl.obj
 0002:00008d80       ??_C@_1NE@PNAFNKEG@?$AAC?$AA?3?$AA?2?$AAU?$AAs?$AAe?$AAr?$AAs?$AA?2?$AAA?$AAd?$AAm?$AAi?$AAn?$AAi?$AAs?$AAt?$AAr?$AAa?$AAt?$AAo?$AAr?$AA?2?$AAD?$AAe?$AAs?$AAk?$AAt?$AAo?$AAp?$AA?2?$AAs@ 0000000180058d80     leveldb:db_impl.obj
 0002:00008e58       ??_C@_1CC@BBPCDAAO@?$AAs?$AA?9?$AA?$DO?$AAl?$AAi?$AAs?$AAt?$AA_?$AA?5?$AA?$DN?$AA?$DN?$AA?5?$AAt?$AAh?$AAi?$AAs?$AA?$AA@ 0000000180058e58     leveldb:db_impl.obj
 0002:00008e80       ??_C@_1NE@FDDHNIGE@?$AAC?$AA?3?$AA?2?$AAU?$AAs?$AAe?$AAr?$AAs?$AA?2?$AAA?$AAd?$AAm?$AAi?$AAn?$AAi?$AAs?$AAt?$AAr?$AAa?$AAt?$AAo?$AAr?$AA?2?$AAD?$AAe?$AAs?$AAk?$AAt?$AAo?$AAp?$AA?2?$AAs@ 0000000180058e80     leveldb:db_impl.obj
 0002:00008f58       ??_C@_1BG@HPOMICMF@?$AAr?$AAe?$AAf?$AAs?$AA_?$AA?5?$AA?$DO?$AA?$DN?$AA?5?$AA0?$AA?$AA@ 0000000180058f58     leveldb:db_impl.obj
 0002:00008f70       ??_C@_1NK@OIFKALAJ@?$AAC?$AA?3?$AA?2?$AAU?$AAs?$AAe?$AAr?$AAs?$AA?2?$AAA?$AAd?$AAm?$AAi?$AAn?$AAi?$AAs?$AAt?$AAr?$AAa?$AAt?$AAo?$AAr?$AA?2?$AAD?$AAe?$AAs?$AAk?$AAt?$AAo?$AAp?$AA?2?$AAs@ 0000000180058f70     leveldb:db_impl.obj
 0002:00009050       ??_C@_1CI@ONGMKBKI@?$AAs?$AA?5?$AA?$DO?$AA?$DN?$AA?5?$AAl?$AAa?$AAs?$AAt?$AA_?$AAs?$AAe?$AAq?$AAu?$AAe?$AAn?$AAc?$AAe?$AA_?$AA?$AA@ 0000000180059050     leveldb:db_impl.obj
 0002:00009078       ??_C@_0BC@JALOIKCP@Ignoring?5error?5?$CFs?$AA@ 0000000180059078     leveldb:db_impl.obj
 0002:00009090       ??_C@_0BG@JFOLEODH@Delete?5type?$DN?$CFd?5?$CD?$CFlld?6?$AA@ 0000000180059090     leveldb:db_impl.obj
 0002:000090a8       ??_C@_01KMDKNFGN@?1?$AA@   00000001800590a8     leveldb:db_impl.obj
 0002:000090b0       ??_C@_1DK@PFAOANLP@?$AAl?$AAe?$AAv?$AAe?$AAl?$AAd?$AAb?$AA?9?$AA1?$AA?4?$AA1?$AA8?$AA?4?$AA0?$AA?2?$AAd?$AAb?$AA?2?$AAd?$AAb?$AA_?$AAi?$AAm?$AAp?$AAl?$AA?4?$AAc?$AAc?$AA?$AA@ 00000001800590b0     leveldb:db_impl.obj
 0002:000090f0       ??_C@_1CC@ILLOLGKN@?$AAd?$AAb?$AA_?$AAl?$AAo?$AAc?$AAk?$AA_?$AA?5?$AA?$DN?$AA?$DN?$AA?5?$AAN?$AAU?$AAL?$AAL?$AA?$AA@ 00000001800590f0     leveldb:db_impl.obj
 0002:00009118       ??_C@_0CM@NJBPDBKJ@does?5not?5exist?5?$CIcreate_if_missin@ 0000000180059118     leveldb:db_impl.obj
 0002:00009148       ??_C@_0CB@JKAIOEMM@exists?5?$CIerror_if_exists?5is?5true?$CJ@ 0000000180059148     leveldb:db_impl.obj
 0002:00009170       ??_C@_0BH@FNAANBPD@?$CFd?5missing?5files?$DL?5e?4g?4?$AA@ 0000000180059170     leveldb:db_impl.obj
 0002:00009188       ??_C@_0BF@KNKOMAKO@Recovering?5log?5?$CD?$CFllu?$AA@ 0000000180059188     leveldb:db_impl.obj
 0002:000091a0       ??_C@_0BF@JFEJNHOC@log?5record?5too?5small?$AA@ 00000001800591a0     leveldb:db_impl.obj
 0002:000091b8       ??_C@_0BC@HAHNELHF@?$CIignoring?5error?$CJ?5?$AA@ 00000001800591b8     leveldb:db_impl.obj
 0002:000091d0       ??_C@_0BM@IEECBMAN@?$CFs?$CFs?3?5dropping?5?$CFd?5bytes?$DL?5?$CFs?$AA@ 00000001800591d0     leveldb:db_impl.obj
 0002:000091f0       ??_C@_0BN@COCEKI@Level?90?5table?5?$CD?$CFllu?3?5started?$AA@ 00000001800591f0     leveldb:db_impl.obj
 0002:00009210       ??_C@_0CD@DPCIKGHP@Level?90?5table?5?$CD?$CFllu?3?5?$CFlld?5bytes?5@ 0000000180059210     leveldb:db_impl.obj
 0002:00009238       ??_C@_1BK@IGFHJPED@?$AAi?$AAm?$AAm?$AA_?$AA?5?$AA?$CB?$AA?$DN?$AA?5?$AAN?$AAU?$AAL?$AAL?$AA?$AA@ 0000000180059238     leveldb:db_impl.obj
 0002:00009258       ??_C@_0CH@IOLOKLFC@Deleting?5DB?5during?5memtable?5comp@ 0000000180059258     leveldb:db_impl.obj
 0002:00009280       ??_C@_1BG@FBALNOAJ@?$AAl?$AAe?$AAv?$AAe?$AAl?$AA?5?$AA?$DO?$AA?$DN?$AA?5?$AA0?$AA?$AA@ 0000000180059280     leveldb:db_impl.obj
 0002:00009298       ??_C@_1DO@HOBCOBHH@?$AAl?$AAe?$AAv?$AAe?$AAl?$AA?5?$AA?$CL?$AA?5?$AA1?$AA?5?$AA?$DM?$AA?5?$AAc?$AAo?$AAn?$AAf?$AAi?$AAg?$AA?3?$AA?3?$AAk?$AAN?$AAu?$AAm?$AAL?$AAe?$AAv?$AAe?$AAl?$AAs?$AA?$AA@ 0000000180059298     leveldb:db_impl.obj
 0002:000092d8       ??_C@_1DC@OJMHCMCP@?$AAb?$AAg?$AA_?$AAc?$AAo?$AAm?$AAp?$AAa?$AAc?$AAt?$AAi?$AAo?$AAn?$AA_?$AAs?$AAc?$AAh?$AAe?$AAd?$AAu?$AAl?$AAe?$AAd?$AA_?$AA?$AA@ 00000001800592d8     leveldb:db_impl.obj
 0002:0000930c       ??_C@_05CEHBFNBN@?$CIend?$CJ?$AA@ 000000018005930c     leveldb:db_impl.obj
 0002:00009318       ??_C@_07JPGNPAEF@?$CIbegin?$CJ?$AA@ 0000000180059318     leveldb:db_impl.obj
 0002:00009320       ??_C@_0DO@LGGFBPLI@Manual?5compaction?5at?5level?9?$CFd?5fr@ 0000000180059320     leveldb:db_impl.obj
 0002:00009360       ??_C@_1DG@BKJODJLI@?$AAc?$AA?9?$AA?$DO?$AAn?$AAu?$AAm?$AA_?$AAi?$AAn?$AAp?$AAu?$AAt?$AA_?$AAf?$AAi?$AAl?$AAe?$AAs?$AA?$CI?$AA0?$AA?$CJ?$AA?5?$AA?$DN?$AA?$DN?$AA?5?$AA1?$AA?$AA@ 0000000180059360     leveldb:db_impl.obj
 0002:00009398       ??_C@_0CL@LBPMNBCM@Moved?5?$CD?$CFlld?5to?5level?9?$CFd?5?$CFlld?5byt@ 0000000180059398     leveldb:db_impl.obj
 0002:000093c8       ??_C@_0BF@JOIADNEO@Compaction?5error?3?5?$CFs?$AA@ 00000001800593c8     leveldb:db_impl.obj
 0002:000093e0       ??_C@_1DC@KCAEGKPC@?$AAc?$AAo?$AAm?$AAp?$AAa?$AAc?$AAt?$AA?9?$AA?$DO?$AAo?$AAu?$AAt?$AAf?$AAi?$AAl?$AAe?$AA?5?$AA?$DN?$AA?$DN?$AA?5?$AAN?$AAU?$AAL?$AAL?$AA?$AA@ 00000001800593e0     leveldb:db_impl.obj
 0002:00009418       ??_C@_1CA@NDGIODEB@?$AAc?$AAo?$AAm?$AAp?$AAa?$AAc?$AAt?$AA?5?$AA?$CB?$AA?$DN?$AA?5?$AAN?$AAU?$AAL?$AAL?$AA?$AA@ 0000000180059418     leveldb:db_impl.obj
 0002:00009438       ??_C@_1DC@FHGJPBE@?$AAc?$AAo?$AAm?$AAp?$AAa?$AAc?$AAt?$AA?9?$AA?$DO?$AAb?$AAu?$AAi?$AAl?$AAd?$AAe?$AAr?$AA?5?$AA?$DN?$AA?$DN?$AA?5?$AAN?$AAU?$AAL?$AAL?$AA?$AA@ 0000000180059438     leveldb:db_impl.obj
 0002:00009470       ??_C@_1DC@ODABIHKE@?$AAc?$AAo?$AAm?$AAp?$AAa?$AAc?$AAt?$AA?9?$AA?$DO?$AAo?$AAu?$AAt?$AAf?$AAi?$AAl?$AAe?$AA?5?$AA?$CB?$AA?$DN?$AA?5?$AAN?$AAU?$AAL?$AAL?$AA?$AA@ 0000000180059470     leveldb:db_impl.obj
 0002:000094a8       ??_C@_1DC@EEHDHCEC@?$AAc?$AAo?$AAm?$AAp?$AAa?$AAc?$AAt?$AA?9?$AA?$DO?$AAb?$AAu?$AAi?$AAl?$AAd?$AAe?$AAr?$AA?5?$AA?$CB?$AA?$DN?$AA?5?$AAN?$AAU?$AAL?$AAL?$AA?$AA@ 00000001800594a8     leveldb:db_impl.obj
 0002:000094e0       ??_C@_1CG@KJIIHBA@?$AAo?$AAu?$AAt?$AAp?$AAu?$AAt?$AA_?$AAn?$AAu?$AAm?$AAb?$AAe?$AAr?$AA?5?$AA?$CB?$AA?$DN?$AA?5?$AA0?$AA?$AA@ 00000001800594e0     leveldb:db_impl.obj
 0002:00009508       ??_C@_0CN@OLFAHAMO@Generated?5table?5?$CD?$CFllu?3?5?$CFlld?5keys@ 0000000180059508     leveldb:db_impl.obj
 0002:00009538       ??_C@_0CM@JOHCMPNB@Compacted?5?$CFd?$EA?$CFd?5?$CL?5?$CFd?$EA?$CFd?5files?5?$DN?$DO@ 0000000180059538     leveldb:db_impl.obj
 0002:00009568       ??_C@_0BP@GPNCHHBE@Compacting?5?$CFd?$EA?$CFd?5?$CL?5?$CFd?$EA?$CFd?5files?$AA@ 0000000180059568     leveldb:db_impl.obj
 0002:00009590       ??_C@_1HG@ECCOJIDM@?$AAv?$AAe?$AAr?$AAs?$AAi?$AAo?$AAn?$AAs?$AA_?$AA?9?$AA?$DO?$AAN?$AAu?$AAm?$AAL?$AAe?$AAv?$AAe?$AAl?$AAF?$AAi?$AAl?$AAe?$AAs?$AA?$CI?$AAc?$AAo?$AAm?$AAp?$AAa?$AAc?$AAt@ 0000000180059590     leveldb:db_impl.obj
 0002:00009608       ??_C@_0BO@HDOHHFLN@Deleting?5DB?5during?5compaction?$AA@ 0000000180059608     leveldb:db_impl.obj
 0002:00009628       ??_C@_0BB@GIEMGFNH@compacted?5to?3?5?$CFs?$AA@ 0000000180059628     leveldb:db_impl.obj
 0002:00009640       ??_C@_1CE@COAOCGAO@?$AA?$CB?$AAw?$AAr?$AAi?$AAt?$AAe?$AAr?$AAs?$AA_?$AA?4?$AAe?$AAm?$AAp?$AAt?$AAy?$AA?$CI?$AA?$CJ?$AA?$AA@ 0000000180059640     leveldb:db_impl.obj
 0002:00009668       ??_C@_1BO@PMNIFHIJ@?$AAr?$AAe?$AAs?$AAu?$AAl?$AAt?$AA?5?$AA?$CB?$AA?$DN?$AA?5?$AAN?$AAU?$AAL?$AAL?$AA?$AA@ 0000000180059668     leveldb:db_impl.obj
 0002:00009690       ??_C@_1EO@NFIJBALM@?$AAW?$AAr?$AAi?$AAt?$AAe?$AAB?$AAa?$AAt?$AAc?$AAh?$AAI?$AAn?$AAt?$AAe?$AAr?$AAn?$AAa?$AAl?$AA?3?$AA?3?$AAC?$AAo?$AAu?$AAn?$AAt?$AA?$CI?$AAr?$AAe?$AAs?$AAu?$AAl?$AAt@ 0000000180059690     leveldb:db_impl.obj
 0002:000096e0       ??_C@_0CD@OHHDGDOO@Current?5memtable?5full?$DL?5waiting?4?4@ 00000001800596e0     leveldb:db_impl.obj
 0002:00009708       ??_C@_0BP@GEAHKBIC@Too?5many?5L0?5files?$DL?5waiting?4?4?4?6?$AA@ 0000000180059708     leveldb:db_impl.obj
 0002:00009730       ??_C@_1EA@HKFFNOJN@?$AAv?$AAe?$AAr?$AAs?$AAi?$AAo?$AAn?$AAs?$AA_?$AA?9?$AA?$DO?$AAP?$AAr?$AAe?$AAv?$AAL?$AAo?$AAg?$AAN?$AAu?$AAm?$AAb?$AAe?$AAr?$AA?$CI?$AA?$CJ?$AA?5?$AA?$DN?$AA?$DN?$AA?5?$AA0?$AA?$AA@ 0000000180059730     leveldb:db_impl.obj
 0002:00009770       ??_C@_08EEPJKALM@leveldb?4?$AA@ 0000000180059770     leveldb:db_impl.obj
 0002:00009780       ??_C@_0BD@BJKCBABH@num?9files?9at?9level?$AA@ 0000000180059780     leveldb:db_impl.obj
 0002:00009794       ??_C@_05BLKJBNOD@stats?$AA@ 0000000180059794     leveldb:db_impl.obj
 0002:000097a0       ??_C@_0JC@FBIEFEEE@?5?5?5?5?5?5?5?5?5?5?5?5?5?5?5?5?5?5?5?5?5?5?5?5?5?5?5?5?5?5?5C@ 00000001800597a0     leveldb:db_impl.obj
 0002:00009838       ??_C@_0CB@CPHKKDC@?$CF3d?5?$CF8d?5?$CF8?40f?5?$CF9?40f?5?$CF8?40f?5?$CF9?40f?6@ 0000000180059838     leveldb:db_impl.obj
 0002:00009860       ??_C@_08PBIEOFJN@sstables?$AA@ 0000000180059860     leveldb:db_impl.obj
 0002:00009870       ??_C@_0BC@KBDMBKEH@deque?$DMT?$DO?5too?5long?$AA@ 0000000180059870     leveldb:db_impl.obj
 0002:00009890       ??_C@_0FN@FKGADHBF@?$CK?$CK?$CK?$CK?5Repaired?5leveldb?5?$CFs?$DL?5recove@ 0000000180059890     leveldb:repair.obj
 0002:000098f0       ??_C@_0BG@OHLKFIFI@repair?5found?5no?5files?$AA@ 00000001800598f0     leveldb:repair.obj
 0002:00009908       ??_C@_0CJ@EOKELPDO@Log?5?$CD?$CFllu?3?5ignoring?5conversion?5e@ 0000000180059908     leveldb:repair.obj
 0002:00009938       ??_C@_0BH@EOEMDKLP@Log?5?$CD?$CFllu?3?5ignoring?5?$CFs?$AA@ 0000000180059938     leveldb:repair.obj
 0002:00009950       ??_C@_0CK@CMDCKOFJ@Log?5?$CD?$CFllu?3?5?$CFd?5ops?5saved?5to?5Table@ 0000000180059950     leveldb:repair.obj
 0002:00009980       ??_C@_0BJ@JPIJNMOF@Table?5?$CD?$CFllu?3?5dropped?3?5?$CFs?$AA@ 0000000180059980     leveldb:repair.obj
 0002:000099a0       ??_C@_0BP@CLHNPLFM@Table?5?$CD?$CFllu?3?5unparsable?5key?5?$CFs?$AA@ 00000001800599a0     leveldb:repair.obj
 0002:000099c0       ??_C@_0BL@NILBKKHO@Table?5?$CD?$CFllu?3?5?$CFd?5entries?5?$CFs?$AA@ 00000001800599c0     leveldb:repair.obj
 0002:000099e0       ??_C@_0CB@LEFFGEHF@Table?5?$CD?$CFllu?3?5?$CFd?5entries?5repaired@ 00000001800599e0     leveldb:repair.obj
 0002:00009a04       ??_C@_05JKKEPOFN@?1lost?$AA@ 0000000180059a04     leveldb:repair.obj
 0002:00009a10       ??_C@_0BC@ONAGHBGP@Archiving?5?$CFs?3?5?$CFs?6?$AA@ 0000000180059a10     leveldb:repair.obj
 0002:00009a28       ??_C@_0CB@ONPMNLMB@Log?5?$CD?$CFllu?3?5dropping?5?$CFd?5bytes?$DL?5?$CFs@ 0000000180059a28     leveldb:repair.obj
 0002:00009a50       ??_7LogReporter@?1??ConvertLogToTable@Repairer@?A0xa008de00@leveldb@@AEAA?AVStatus@4@_K@Z@6B@ 0000000180059a50     leveldb:repair.obj
 0002:00009a60       ??_7MemTableIterator@leveldb@@6B@ 0000000180059a60     leveldb:memtable.obj
 0002:00009ab0       ??_C@_1NC@KJMHEBMA@?$AAC?$AA?3?$AA?2?$AAU?$AAs?$AAe?$AAr?$AAs?$AA?2?$AAA?$AAd?$AAm?$AAi?$AAn?$AAi?$AAs?$AAt?$AAr?$AAa?$AAt?$AAo?$AAr?$AA?2?$AAD?$AAe?$AAs?$AAk?$AAt?$AAo?$AAp?$AA?2?$AAs@ 0000000180059ab0     leveldb:memtable.obj
 0002:00009b88       ??_C@_1BE@FMOLJMJA@?$AAb?$AAy?$AAt?$AAe?$AAs?$AA?5?$AA?$DO?$AA?5?$AA0?$AA?$AA@ 0000000180059b88     leveldb:memtable.obj
 0002:00009ba0       ??_C@_1DM@BLEOBKMD@?$AAl?$AAe?$AAv?$AAe?$AAl?$AAd?$AAb?$AA?9?$AA1?$AA?4?$AA1?$AA8?$AA?4?$AA0?$AA?2?$AAd?$AAb?$AA?2?$AAm?$AAe?$AAm?$AAt?$AAa?$AAb?$AAl?$AAe?$AA?4?$AAc?$AAc?$AA?$AA@ 0000000180059ba0     leveldb:memtable.obj
 0002:00009be0       ??_C@_1BG@JENLDJMG@?$AAr?$AAe?$AAf?$AAs?$AA_?$AA?5?$AA?$DN?$AA?$DN?$AA?5?$AA0?$AA?$AA@ 0000000180059be0     leveldb:memtable.obj
 0002:00009c00       ??_C@_1EI@EDGMFDOF@?$AA?$CI?$AAp?$AA?5?$AA?$CL?$AA?5?$AAv?$AAa?$AAl?$AA_?$AAs?$AAi?$AAz?$AAe?$AA?$CJ?$AA?5?$AA?9?$AA?5?$AAb?$AAu?$AAf?$AA?5?$AA?$DN?$AA?$DN?$AA?5?$AAe?$AAn?$AAc?$AAo?$AAd?$AAe?$AAd?$AA_@ 0000000180059c00     leveldb:memtable.obj
 0002:00009c50       ??_C@_1NE@FHMPABMG@?$AAC?$AA?3?$AA?2?$AAU?$AAs?$AAe?$AAr?$AAs?$AA?2?$AAA?$AAd?$AAm?$AAi?$AAn?$AAi?$AAs?$AAt?$AAr?$AAa?$AAt?$AAo?$AAr?$AA?2?$AAD?$AAe?$AAs?$AAk?$AAt?$AAo?$AAp?$AA?2?$AAs@ 0000000180059c50     leveldb:memtable.obj
 0002:00009d30       ??_C@_1EC@PIHPBHJD@?$AAx?$AA?5?$AA?$DN?$AA?$DN?$AA?5?$AAN?$AAU?$AAL?$AAL?$AA?5?$AA?$HM?$AA?$HM?$AA?5?$AA?$CB?$AAE?$AAq?$AAu?$AAa?$AAl?$AA?$CI?$AAk?$AAe?$AAy?$AA?0?$AA?5?$AAx?$AA?9?$AA?$DO?$AAk?$AAe?$AAy?$AA?$CJ@ 0000000180059d30     leveldb:memtable.obj
 0002:00009d78       ??_C@_1BA@PLJALMOI@?$AAV?$AAa?$AAl?$AAi?$AAd?$AA?$CI?$AA?$CJ?$AA?$AA@ 0000000180059d78     leveldb:memtable.obj
 0002:00009d88       ??_C@_1O@OOEGIONJ@?$AAn?$AA?5?$AA?$DO?$AA?$DN?$AA?5?$AA0?$AA?$AA@ 0000000180059d88     leveldb:memtable.obj
 0002:00009d98       ??_C@_1BG@MDOPMIMK@?$AAh?$AAe?$AAi?$AAg?$AAh?$AAt?$AA?5?$AA?$DO?$AA?5?$AA0?$AA?$AA@ 0000000180059d98     leveldb:memtable.obj
 0002:00009db0       ??_C@_1CK@ECEBNFHB@?$AAh?$AAe?$AAi?$AAg?$AAh?$AAt?$AA?5?$AA?$DM?$AA?$DN?$AA?5?$AAk?$AAM?$AAa?$AAx?$AAH?$AAe?$AAi?$AAg?$AAh?$AAt?$AA?$AA@ 0000000180059db0     leveldb:memtable.obj
 0002:00009de0       ??_C@_1FA@EOIGNBHK@?$AAx?$AA?5?$AA?$DN?$AA?$DN?$AA?5?$AAh?$AAe?$AAa?$AAd?$AA_?$AA?5?$AA?$HM?$AA?$HM?$AA?5?$AAc?$AAo?$AAm?$AAp?$AAa?$AAr?$AAe?$AA_?$AA?$CI?$AAx?$AA?9?$AA?$DO?$AAk?$AAe?$AAy?$AA?0?$AA?5?$AAk@ 0000000180059de0     leveldb:memtable.obj
 0002:00009e30       ??_C@_04FCIJFPNK@?$CFllu?$AA@ 0000000180059e30     leveldb:logging.obj
 0002:00009e38       ??_C@_06FIJELGDL@?2x?$CF02x?$AA@ 0000000180059e38     leveldb:logging.obj
 0002:00009e40       ??_C@_0L@DNJAJHIC@?1?$CF06llu?4?$CFs?$AA@ 0000000180059e40     leveldb:filename.obj
 0002:00009e50       ??_C@_1DM@LJAHOFGE@?$AAl?$AAe?$AAv?$AAe?$AAl?$AAd?$AAb?$AA?9?$AA1?$AA?4?$AA1?$AA8?$AA?4?$AA0?$AA?2?$AAd?$AAb?$AA?2?$AAf?$AAi?$AAl?$AAe?$AAn?$AAa?$AAm?$AAe?$AA?4?$AAc?$AAc?$AA?$AA@ 0000000180059e50     leveldb:filename.obj
 0002:00009e90       ??_C@_1BG@HIOOOGME@?$AAn?$AAu?$AAm?$AAb?$AAe?$AAr?$AA?5?$AA?$DO?$AA?5?$AA0?$AA?$AA@ 0000000180059e90     leveldb:filename.obj
 0002:00009ea8       ??_C@_03MGHMBJCF@log?$AA@  0000000180059ea8     leveldb:filename.obj
 0002:00009eac       ??_C@_03LHFOACIB@ldb?$AA@  0000000180059eac     leveldb:filename.obj
 0002:00009eb0       ??_C@_03LKNFEFGK@sst?$AA@  0000000180059eb0     leveldb:filename.obj
 0002:00009eb8       ??_C@_0BB@IIHLHEJO@?1MANIFEST?9?$CF06llu?$AA@ 0000000180059eb8     leveldb:filename.obj
 0002:00009ed0       ??_C@_08JJMNAAPP@?1CURRENT?$AA@ 0000000180059ed0     leveldb:filename.obj
 0002:00009edc       ??_C@_05IHOCLBML@?1LOCK?$AA@ 0000000180059edc     leveldb:filename.obj
 0002:00009ee4       ??_C@_05LFMHCBHD@dbtmp?$AA@ 0000000180059ee4     leveldb:filename.obj
 0002:00009eec       ??_C@_04GPHAEEIN@?1LOG?$AA@ 0000000180059eec     leveldb:filename.obj
 0002:00009ef8       ??_C@_08MHHKKEBC@?1LOG?4old?$AA@ 0000000180059ef8     leveldb:filename.obj
 0002:00009f08       ??_C@_07EHKOIGEK@CURRENT?$AA@ 0000000180059f08     leveldb:filename.obj
 0002:00009f10       ??_C@_04GPIFAJG@LOCK?$AA@  0000000180059f10     leveldb:filename.obj
 0002:00009f18       ??_C@_03MLIHNEFJ@LOG?$AA@  0000000180059f18     leveldb:filename.obj
 0002:00009f20       ??_C@_07BJBJCCKH@LOG?4old?$AA@ 0000000180059f20     leveldb:filename.obj
 0002:00009f28       ??_C@_09IIGJKOCP@MANIFEST?9?$AA@ 0000000180059f28     leveldb:filename.obj
 0002:00009f34       ??_C@_04FPOLKAEB@?4log?$AA@ 0000000180059f34     leveldb:filename.obj
 0002:00009f3c       ??_C@_04CDECPMAO@?4sst?$AA@ 0000000180059f3c     leveldb:filename.obj
 0002:00009f44       ??_C@_04COMJLLOF@?4ldb?$AA@ 0000000180059f44     leveldb:filename.obj
 0002:00009f4c       ??_C@_06GOLBNGP@?4dbtmp?$AA@ 0000000180059f4c     leveldb:filename.obj
 0002:00009f60       ??_C@_1EG@OBCHJDD@?$AAc?$AAo?$AAn?$AAt?$AAe?$AAn?$AAt?$AAs?$AA?4?$AAs?$AAt?$AAa?$AAr?$AAt?$AAs?$AA_?$AAw?$AAi?$AAt?$AAh?$AA?$CI?$AAd?$AAb?$AAn?$AAa?$AAm?$AAe?$AA?5?$AA?$CL?$AA?5?$AA?$CC?$AA?1@ 0000000180059f60     leveldb:filename.obj
 0002:00009fa8       ??_C@_01EEMJAFIK@?6?$AA@   0000000180059fa8     leveldb:filename.obj
 0002:00009fb0       ??_C@_0BL@EMJHPPE@leveldb?4BytewiseComparator?$AA@ 0000000180059fb0     leveldb:comparator.obj
 0002:00009fd0       ??_C@_1EE@OGOKBAAE@?$AAl?$AAe?$AAv?$AAe?$AAl?$AAd?$AAb?$AA?9?$AA1?$AA?4?$AA1?$AA8?$AA?4?$AA0?$AA?2?$AAu?$AAt?$AAi?$AAl?$AA?2?$AAc?$AAo?$AAm?$AAp?$AAa?$AAr?$AAa?$AAt?$AAo?$AAr?$AA?4?$AAc@ 0000000180059fd0     leveldb:comparator.obj
 0002:0000a018       ??_C@_1DG@FGMFBCBA@?$AAC?$AAo?$AAm?$AAp?$AAa?$AAr?$AAe?$AA?$CI?$AA?$CK?$AAs?$AAt?$AAa?$AAr?$AAt?$AA?0?$AA?5?$AAl?$AAi?$AAm?$AAi?$AAt?$AA?$CJ?$AA?5?$AA?$DM?$AA?5?$AA0?$AA?$AA@ 000000018005a018     leveldb:comparator.obj
 0002:0000a050       ??_7BytewiseComparatorImpl@?A0x7411232b@leveldb@@6B@ 000000018005a050     leveldb:comparator.obj
 0002:0000a078       ??_C@_1BM@KMFKCCNG@?$AA?$CB?$AAr?$AAe?$AAp?$AA_?$AA?4?$AAe?$AAm?$AAp?$AAt?$AAy?$AA?$CI?$AA?$CJ?$AA?$AA@ 000000018005a078     leveldb:version_set.obj
 0002:0000a0a0       ??_C@_1EC@DCNDNIAD@?$AAl?$AAe?$AAv?$AAe?$AAl?$AAd?$AAb?$AA?9?$AA1?$AA?4?$AA1?$AA8?$AA?4?$AA0?$AA?2?$AAd?$AAb?$AA?2?$AAv?$AAe?$AAr?$AAs?$AAi?$AAo?$AAn?$AA_?$AAs?$AAe?$AAt?$AA?4?$AAc?$AAc@ 000000018005a0a0     leveldb:version_set.obj
 0002:0000a0e8       ??_C@_1BI@CNGMBHMD@?$AAf?$AA?9?$AA?$DO?$AAr?$AAe?$AAf?$AAs?$AA?5?$AA?$DO?$AA?5?$AA0?$AA?$AA@ 000000018005a0e8     leveldb:version_set.obj
 0002:0000a100       ??_C@_0CJ@IEJCNHMD@FileReader?5invoked?5with?5unexpect@ 000000018005a100     leveldb:version_set.obj
 0002:0000a130       ??_C@_0BD@CBCIGOLN@corrupted?5key?5for?5?$AA@ 000000018005a130     leveldb:version_set.obj
 0002:0000a150       ??_C@_1EA@FLNPCEIK@?$AAt?$AAh?$AAi?$AAs?$AA?5?$AA?$CB?$AA?$DN?$AA?5?$AA?$CG?$AAv?$AAs?$AAe?$AAt?$AA_?$AA?9?$AA?$DO?$AAd?$AAu?$AAm?$AAm?$AAy?$AA_?$AAv?$AAe?$AAr?$AAs?$AAi?$AAo?$AAn?$AAs?$AA_?$AA?$AA@ 000000018005a150     leveldb:version_set.obj
 0002:0000a190       ??_C@_1BG@MHFAOFKA@?$AAr?$AAe?$AAf?$AAs?$AA_?$AA?5?$AA?$DO?$AA?$DN?$AA?5?$AA1?$AA?$AA@ 000000018005a190     leveldb:version_set.obj
 0002:0000a1a8       ??_C@_1DG@MMMOKGNK@?$AAl?$AAe?$AAv?$AAe?$AAl?$AA?5?$AA?$DM?$AA?5?$AAc?$AAo?$AAn?$AAf?$AAi?$AAg?$AA?3?$AA?3?$AAk?$AAN?$AAu?$AAm?$AAL?$AAe?$AAv?$AAe?$AAl?$AAs?$AA?$AA@ 000000018005a1a8     leveldb:version_set.obj
 0002:0000a1e0       ??_C@_0L@FDBHLPMB@?9?9?9?5level?5?$AA@ 000000018005a1e0     leveldb:version_set.obj
 0002:0000a1ec       ??_C@_05OIOCPKAF@?5?9?9?9?6?$AA@ 000000018005a1ec     leveldb:version_set.obj
 0002:0000a1f4       ??_C@_01OHGJGJJP@?$FL?$AA@ 000000018005a1f4     leveldb:version_set.obj
 0002:0000a1f8       ??_C@_04BPKGLAKD@?5?4?4?5?$AA@ 000000018005a1f8     leveldb:version_set.obj
 0002:0000a200       ??_C@_02JODFHDIE@?$FN?6?$AA@ 000000018005a200     leveldb:version_set.obj
 0002:0000a208       ??_C@_0CM@FHNAJAEB@overlapping?5ranges?5in?5same?5level@ 000000018005a208     leveldb:version_set.obj
 0002:0000a240       ??_C@_1JE@HCNLKCGH@?$AAv?$AAs?$AAe?$AAt?$AA_?$AA?9?$AA?$DO?$AAi?$AAc?$AAm?$AAp?$AA_?$AA?4?$AAC?$AAo?$AAm?$AAp?$AAa?$AAr?$AAe?$AA?$CI?$AA?$CI?$AA?$CK?$AAf?$AAi?$AAl?$AAe?$AAs?$AA?$CJ?$AA?$FL?$AAf?$AAi@ 000000018005a240     leveldb:version_set.obj
 0002:0000a2e0       ??_C@_1FE@GBNPOGE@?$AAd?$AAu?$AAm?$AAm?$AAy?$AA_?$AAv?$AAe?$AAr?$AAs?$AAi?$AAo?$AAn?$AAs?$AA_?$AA?4?$AAn?$AAe?$AAx?$AAt?$AA_?$AA?5?$AA?$DN?$AA?$DN?$AA?5?$AA?$CG?$AAd?$AAu?$AAm?$AAm?$AAy?$AA_@ 000000018005a2e0     leveldb:version_set.obj
 0002:0000a338       ??_C@_1BM@NFJIGFM@?$AAv?$AA?9?$AA?$DO?$AAr?$AAe?$AAf?$AAs?$AA_?$AA?5?$AA?$DN?$AA?$DN?$AA?5?$AA0?$AA?$AA@ 000000018005a338     leveldb:version_set.obj
 0002:0000a358       ??_C@_1BM@JJKEPPON@?$AAv?$AA?5?$AA?$CB?$AA?$DN?$AA?5?$AAc?$AAu?$AAr?$AAr?$AAe?$AAn?$AAt?$AA_?$AA?$AA@ 000000018005a358     leveldb:version_set.obj
 0002:0000a380       ??_C@_1EC@IADDIGKK@?$AAe?$AAd?$AAi?$AAt?$AA?9?$AA?$DO?$AAl?$AAo?$AAg?$AA_?$AAn?$AAu?$AAm?$AAb?$AAe?$AAr?$AA_?$AA?5?$AA?$DO?$AA?$DN?$AA?5?$AAl?$AAo?$AAg?$AA_?$AAn?$AAu?$AAm?$AAb?$AAe?$AAr?$AA_@ 000000018005a380     leveldb:version_set.obj
 0002:0000a3d0       ??_C@_1EM@MPOGPGGG@?$AAe?$AAd?$AAi?$AAt?$AA?9?$AA?$DO?$AAl?$AAo?$AAg?$AA_?$AAn?$AAu?$AAm?$AAb?$AAe?$AAr?$AA_?$AA?5?$AA?$DM?$AA?5?$AAn?$AAe?$AAx?$AAt?$AA_?$AAf?$AAi?$AAl?$AAe?$AA_?$AAn?$AAu@ 000000018005a3d0     leveldb:version_set.obj
 0002:0000a420       ??_C@_1DC@PINEBDGE@?$AAd?$AAe?$AAs?$AAc?$AAr?$AAi?$AAp?$AAt?$AAo?$AAr?$AA_?$AAf?$AAi?$AAl?$AAe?$AA_?$AA?5?$AA?$DN?$AA?$DN?$AA?5?$AAN?$AAU?$AAL?$AAL?$AA?$AA@ 000000018005a420     leveldb:version_set.obj
 0002:0000a458       ??_C@_0BE@DKHKMIK@MANIFEST?5write?3?5?$CFs?6?$AA@ 000000018005a458     leveldb:version_set.obj
 0002:0000a470       ??_C@_0CH@CCOOCHFI@CURRENT?5file?5does?5not?5end?5with?5n@ 000000018005a470     leveldb:version_set.obj
 0002:0000a498       ??_C@_0CF@KGCIEFG@?5does?5not?5match?5existing?5compara@ 000000018005a498     leveldb:version_set.obj
 0002:0000a4c0       ??_C@_0CF@COGGNJLO@no?5meta?9nextfile?5entry?5in?5descri@ 000000018005a4c0     leveldb:version_set.obj
 0002:0000a4e8       ??_C@_0CG@IGKKJHJ@no?5meta?9lognumber?5entry?5in?5descr@ 000000018005a4e8     leveldb:version_set.obj
 0002:0000a510       ??_C@_0CM@EPLOMKKC@no?5last?9sequence?9number?5entry?5in@ 000000018005a510     leveldb:version_set.obj
 0002:0000a540       ??_C@_0BO@IEHPFKHC@files?$FL?5?$CFd?5?$CFd?5?$CFd?5?$CFd?5?$CFd?5?$CFd?5?$CFd?5?$FN?$AA@ 000000018005a540     leveldb:version_set.obj
 0002:0000a560       ??_C@_1CA@JINEDNOH@?$AA?$CB?$AAi?$AAn?$AAp?$AAu?$AAt?$AAs?$AA?4?$AAe?$AAm?$AAp?$AAt?$AAy?$AA?$CI?$AA?$CJ?$AA?$AA@ 000000018005a560     leveldb:version_set.obj
 0002:0000a580       ??_C@_1BK@PFCADICL@?$AAn?$AAu?$AAm?$AA?5?$AA?$DM?$AA?$DN?$AA?5?$AAs?$AAp?$AAa?$AAc?$AAe?$AA?$AA@ 000000018005a580     leveldb:version_set.obj
 0002:0000a5a0       ??_C@_1DK@BFAOJEHK@?$AAl?$AAe?$AAv?$AAe?$AAl?$AA?$CL?$AA1?$AA?5?$AA?$DM?$AA?5?$AAc?$AAo?$AAn?$AAf?$AAi?$AAg?$AA?3?$AA?3?$AAk?$AAN?$AAu?$AAm?$AAL?$AAe?$AAv?$AAe?$AAl?$AAs?$AA?$AA@ 000000018005a5a0     leveldb:version_set.obj
 0002:0000a5e0       ??_C@_1CO@OHHPEOEH@?$AA?$CB?$AAc?$AA?9?$AA?$DO?$AAi?$AAn?$AAp?$AAu?$AAt?$AAs?$AA_?$AA?$FL?$AA0?$AA?$FN?$AA?4?$AAe?$AAm?$AAp?$AAt?$AAy?$AA?$CI?$AA?$CJ?$AA?$AA@ 000000018005a5e0     leveldb:version_set.obj
 0002:0000a610       ??_C@_0DN@MPCOPHAH@Expanding?$EA?$CFd?5?$CFd?$CL?$CFd?5?$CI?$CFld?$CL?$CFld?5byte@ 000000018005a610     leveldb:version_set.obj
 0002:0000a650       ??_7LogReporter@?1??Recover@VersionSet@leveldb@@QEAA?AVStatus@3@XZ@6B@ 000000018005a650     leveldb:version_set.obj
 0002:0000a660       ??_7LevelFileNumIterator@Version@leveldb@@6B@ 000000018005a660     leveldb:version_set.obj
 0002:0000a6b0       ??_C@_1DK@JADGOFCE@?$AAl?$AAe?$AAv?$AAe?$AAl?$AAd?$AAb?$AA?9?$AA1?$AA?4?$AA1?$AA8?$AA?4?$AA0?$AA?2?$AAd?$AAb?$AA?2?$AAd?$AAb?$AA_?$AAi?$AAt?$AAe?$AAr?$AA?4?$AAc?$AAc?$AA?$AA@ 000000018005a6b0     leveldb:db_iter.obj
 0002:0000a6f0       ??_C@_1O@ILGKFDHK@?$AAv?$AAa?$AAl?$AAi?$AAd?$AA_?$AA?$AA@ 000000018005a6f0     leveldb:db_iter.obj
 0002:0000a700       ??_C@_0CB@GFNBEPN@corrupted?5internal?5key?5in?5DBIter@ 000000018005a700     leveldb:db_iter.obj
 0002:0000a728       ??_C@_1BO@CNPCPKOP@?$AAi?$AAt?$AAe?$AAr?$AA_?$AA?9?$AA?$DO?$AAV?$AAa?$AAl?$AAi?$AAd?$AA?$CI?$AA?$CJ?$AA?$AA@ 000000018005a728     leveldb:db_iter.obj
 0002:0000a748       ??_C@_1CO@EMDFNHEA@?$AAd?$AAi?$AAr?$AAe?$AAc?$AAt?$AAi?$AAo?$AAn?$AA_?$AA?5?$AA?$DN?$AA?$DN?$AA?5?$AAk?$AAF?$AAo?$AAr?$AAw?$AAa?$AAr?$AAd?$AA?$AA@ 000000018005a748     leveldb:db_iter.obj
 0002:0000a778       ??_C@_1CO@NJNJHGA@?$AAd?$AAi?$AAr?$AAe?$AAc?$AAt?$AAi?$AAo?$AAn?$AA_?$AA?5?$AA?$DN?$AA?$DN?$AA?5?$AAk?$AAR?$AAe?$AAv?$AAe?$AAr?$AAs?$AAe?$AA?$AA@ 000000018005a778     leveldb:db_iter.obj
 0002:0000a7a8       ??_7DBIter@?A0xe8051e8b@leveldb@@6B@ 000000018005a7a8     leveldb:db_iter.obj
 0002:0000a7f8       ??_C@_1DM@DABBMLG@?$AAl?$AAe?$AAv?$AAe?$AAl?$AAd?$AAb?$AA?9?$AA1?$AA?4?$AA1?$AA8?$AA?4?$AA0?$AA?2?$AAd?$AAb?$AA?2?$AAd?$AAb?$AAf?$AAo?$AAr?$AAm?$AAa?$AAt?$AA?4?$AAc?$AAc?$AA?$AA@ 000000018005a7f8     leveldb:dbformat.obj
 0002:0000a838       ??_C@_1DE@LFLGLKMI@?$AAs?$AAe?$AAq?$AA?5?$AA?$DM?$AA?$DN?$AA?5?$AAk?$AAM?$AAa?$AAx?$AAS?$AAe?$AAq?$AAu?$AAe?$AAn?$AAc?$AAe?$AAN?$AAu?$AAm?$AAb?$AAe?$AAr?$AA?$AA@ 000000018005a838     leveldb:dbformat.obj
 0002:0000a870       ??_C@_1CO@MKPIOOCL@?$AAt?$AA?5?$AA?$DM?$AA?$DN?$AA?5?$AAk?$AAV?$AAa?$AAl?$AAu?$AAe?$AAT?$AAy?$AAp?$AAe?$AAF?$AAo?$AAr?$AAS?$AAe?$AAe?$AAk?$AA?$AA@ 000000018005a870     leveldb:dbformat.obj
 0002:0000a8a0       ??_C@_0O@NKEDPHCJ@?8?5?$EA?5?$CFllu?5?3?5?$CFd?$AA@ 000000018005a8a0     leveldb:dbformat.obj
 0002:0000a8b0       ??_C@_01GEODFPGF@?8?$AA@   000000018005a8b0     leveldb:dbformat.obj
 0002:0000a8b4       ??_C@_05MODCJBFL@?$CIbad?$CJ?$AA@ 000000018005a8b4     leveldb:dbformat.obj
 0002:0000a8c0       ??_C@_0BO@PEHHCKBL@leveldb?4InternalKeyComparator?$AA@ 000000018005a8c0     leveldb:dbformat.obj
 0002:0000a8e0       ??_C@_1DO@GBOLJMAG@?$AAt?$AAh?$AAi?$AAs?$AA?9?$AA?$DO?$AAC?$AAo?$AAm?$AAp?$AAa?$AAr?$AAe?$AA?$CI?$AA?$CK?$AAs?$AAt?$AAa?$AAr?$AAt?$AA?0?$AA?5?$AAt?$AAm?$AAp?$AA?$CJ?$AA?5?$AA?$DM?$AA?5?$AA0?$AA?$AA@ 000000018005a8e0     leveldb:dbformat.obj
 0002:0000a920       ??_C@_1DM@DCNNJMDC@?$AAt?$AAh?$AAi?$AAs?$AA?9?$AA?$DO?$AAC?$AAo?$AAm?$AAp?$AAa?$AAr?$AAe?$AA?$CI?$AAt?$AAm?$AAp?$AA?0?$AA?5?$AAl?$AAi?$AAm?$AAi?$AAt?$AA?$CJ?$AA?5?$AA?$DM?$AA?5?$AA0?$AA?$AA@ 000000018005a920     leveldb:dbformat.obj
 0002:0000a960       ??_C@_1DK@GCDCDFNA@?$AAt?$AAh?$AAi?$AAs?$AA?9?$AA?$DO?$AAC?$AAo?$AAm?$AAp?$AAa?$AAr?$AAe?$AA?$CI?$AA?$CK?$AAk?$AAe?$AAy?$AA?0?$AA?5?$AAt?$AAm?$AAp?$AA?$CJ?$AA?5?$AA?$DM?$AA?5?$AA0?$AA?$AA@ 000000018005a960     leveldb:dbformat.obj
 0002:0000a9a0       ??_C@_1EC@PPIMGNHF@?$AAl?$AAe?$AAv?$AAe?$AAl?$AAd?$AAb?$AA?9?$AA1?$AA?4?$AA1?$AA8?$AA?4?$AA0?$AA?2?$AAt?$AAa?$AAb?$AAl?$AAe?$AA?2?$AAi?$AAt?$AAe?$AAr?$AAa?$AAt?$AAo?$AAr?$AA?4?$AAc?$AAc@ 000000018005a9a0     leveldb:iterator.obj
 0002:0000a9e8       ??_C@_1BK@LGKPOBNP@?$AAf?$AAu?$AAn?$AAc?$AA?5?$AA?$CB?$AA?$DN?$AA?5?$AAN?$AAU?$AAL?$AAL?$AA?$AA@ 000000018005a9e8     leveldb:iterator.obj
 0002:0000aa08       ??_C@_1M@HLGKFCJM@?$AAf?$AAa?$AAl?$AAs?$AAe?$AA?$AA@ 000000018005aa08     leveldb:iterator.obj
 0002:0000aa18       ??_7EmptyIterator@?A0xa6d30bd7@leveldb@@6B@ 000000018005aa18     leveldb:iterator.obj
 0002:0000aa68       ??_7Iterator@leveldb@@6B@  000000018005aa68     leveldb:iterator.obj
 0002:0000aac0       ??_C@_1OK@CILALEEE@?$AAC?$AA?3?$AA?2?$AAU?$AAs?$AAe?$AAr?$AAs?$AA?2?$AAA?$AAd?$AAm?$AAi?$AAn?$AAi?$AAs?$AAt?$AAr?$AAa?$AAt?$AAo?$AAr?$AA?2?$AAD?$AAe?$AAs?$AAk?$AAt?$AAo?$AAp?$AA?2?$AAs@ 000000018005aac0     leveldb:merger.obj
 0002:0000abb0       ??_C@_1M@IDPMFHAK@?$AAi?$AAt?$AAe?$AAr?$AA_?$AA?$AA@ 000000018005abb0     leveldb:merger.obj
 0002:0000abc0       ??_C@_1DO@DCANNOPI@?$AAl?$AAe?$AAv?$AAe?$AAl?$AAd?$AAb?$AA?9?$AA1?$AA?4?$AA1?$AA8?$AA?4?$AA0?$AA?2?$AAt?$AAa?$AAb?$AAl?$AAe?$AA?2?$AAm?$AAe?$AAr?$AAg?$AAe?$AAr?$AA?4?$AAc?$AAc?$AA?$AA@ 000000018005abc0     leveldb:merger.obj
 0002:0000ac00       ??_7MergingIterator@?A0xa6fe79a5@leveldb@@6B@ 000000018005ac00     leveldb:merger.obj
 0002:0000ac50       ??_C@_1DK@ICDHALMF@?$AAl?$AAe?$AAv?$AAe?$AAl?$AAd?$AAb?$AA?9?$AA1?$AA?4?$AA1?$AA8?$AA?4?$AA0?$AA?2?$AAd?$AAb?$AA?2?$AAb?$AAu?$AAi?$AAl?$AAd?$AAe?$AAr?$AA?4?$AAc?$AAc?$AA?$AA@ 000000018005ac50     leveldb:builder.obj
 0002:0000ac90       ??_C@_1CI@OJIKACPE@?$AAm?$AAe?$AAt?$AAa?$AA?9?$AA?$DO?$AAf?$AAi?$AAl?$AAe?$AA_?$AAs?$AAi?$AAz?$AAe?$AA?5?$AA?$DO?$AA?5?$AA0?$AA?$AA@ 000000018005ac90     leveldb:builder.obj
 0002:0000acb8       ??_7Reporter@Reader@log@leveldb@@6B@ 000000018005acb8     leveldb:db_impl.obj
 0002:0000acb8       ??_7Logger@leveldb@@6B@    000000018005acb8     leveldb:env.obj
 0002:0000acb8       ??_7RandomAccessFile@leveldb@@6B@ 000000018005acb8     leveldb:env.obj
 0002:0000acc8       ??_7Env@leveldb@@6B@       000000018005acc8     leveldb:env.obj
 0002:0000ad60       ??_C@_1EM@IIMOLIEO@?$AAl?$AAe?$AAv?$AAe?$AAl?$AAd?$AAb?$AA?9?$AA1?$AA?4?$AA1?$AA8?$AA?4?$AA0?$AA?2?$AAt?$AAa?$AAb?$AAl?$AAe?$AA?2?$AAt?$AAa?$AAb?$AAl?$AAe?$AA_?$AAb?$AAu?$AAi?$AAl?$AAd@ 000000018005ad60     leveldb:table_builder.obj
 0002:0000adb0       ??_C@_1BK@JKHHIBHD@?$AAr?$AAe?$AAp?$AA_?$AA?9?$AA?$DO?$AAc?$AAl?$AAo?$AAs?$AAe?$AAd?$AA?$AA@ 000000018005adb0     leveldb:table_builder.obj
 0002:0000add0       ??_C@_1HI@DFHNJDEL@?$AAr?$AA?9?$AA?$DO?$AAo?$AAp?$AAt?$AAi?$AAo?$AAn?$AAs?$AA?4?$AAc?$AAo?$AAm?$AAp?$AAa?$AAr?$AAa?$AAt?$AAo?$AAr?$AA?9?$AA?$DO?$AAC?$AAo?$AAm?$AAp?$AAa?$AAr?$AAe?$AA?$CI?$AAk@ 000000018005add0     leveldb:table_builder.obj
 0002:0000ae48       ??_C@_1BG@IBLAONHD@?$AA?$CB?$AAr?$AA?9?$AA?$DO?$AAc?$AAl?$AAo?$AAs?$AAe?$AAd?$AA?$AA@ 000000018005ae48     leveldb:table_builder.obj
 0002:0000ae60       ??_C@_1DA@OEOPKHIF@?$AA?$CB?$AAr?$AA?9?$AA?$DO?$AAp?$AAe?$AAn?$AAd?$AAi?$AAn?$AAg?$AA_?$AAi?$AAn?$AAd?$AAe?$AAx?$AA_?$AAe?$AAn?$AAt?$AAr?$AAy?$AA?$AA@ 000000018005ae60     leveldb:table_builder.obj
 0002:0000ae90       ??_C@_1CM@CLNKMFCM@?$AAr?$AA?9?$AA?$DO?$AAd?$AAa?$AAt?$AAa?$AA_?$AAb?$AAl?$AAo?$AAc?$AAk?$AA?4?$AAe?$AAm?$AAp?$AAt?$AAy?$AA?$CI?$AA?$CJ?$AA?$AA@ 000000018005ae90     leveldb:table_builder.obj
 0002:0000aec0       ??_C@_07LBJJLLJB@filter?4?$AA@ 000000018005aec0     leveldb:table_builder.obj
 0002:0000aec8       ??_C@_19IHNNBDHG@?$AAo?$AAk?$AA?$CI?$AA?$CJ?$AA?$AA@ 000000018005aec8     leveldb:table_builder.obj
 0002:0000aee0       ??_C@_1EA@IEMGNPDM@?$AAl?$AAe?$AAv?$AAe?$AAl?$AAd?$AAb?$AA?9?$AA1?$AA?4?$AA1?$AA8?$AA?4?$AA0?$AA?2?$AAd?$AAb?$AA?2?$AAl?$AAo?$AAg?$AA_?$AAw?$AAr?$AAi?$AAt?$AAe?$AAr?$AA?4?$AAc?$AAc?$AA?$AA@ 000000018005aee0     leveldb:log_writer.obj
 0002:0000af20       ??_C@_06GCJDCAIB@?$AA?$AA?$AA?$AA?$AA?$AA?$AA@ 000000018005af20     leveldb:log_writer.obj
 0002:0000af28       ??_C@_1BM@CNNDPEKL@?$AAl?$AAe?$AAf?$AAt?$AAo?$AAv?$AAe?$AAr?$AA?5?$AA?$DO?$AA?$DN?$AA?5?$AA0?$AA?$AA@ 000000018005af28     leveldb:log_writer.obj
 0002:0000af48       ??_C@_1BI@FDOLHBGL@?$AAn?$AA?5?$AA?$DM?$AA?$DN?$AA?5?$AA0?$AAx?$AAf?$AAf?$AAf?$AAf?$AA?$AA@ 000000018005af48     leveldb:log_writer.obj
 0002:0000af60       ??_C@_1FM@IPGLDLLO@?$AAk?$AAB?$AAl?$AAo?$AAc?$AAk?$AAS?$AAi?$AAz?$AAe?$AA?5?$AA?9?$AA?5?$AAb?$AAl?$AAo?$AAc?$AAk?$AA_?$AAo?$AAf?$AAf?$AAs?$AAe?$AAt?$AA_?$AA?5?$AA?9?$AA?5?$AAk?$AAH?$AAe@ 000000018005af60     leveldb:log_writer.obj
 0002:0000afc0       ??_C@_1FM@DLHCNMNA@?$AAb?$AAl?$AAo?$AAc?$AAk?$AA_?$AAo?$AAf?$AAf?$AAs?$AAe?$AAt?$AA_?$AA?5?$AA?$CL?$AA?5?$AAk?$AAH?$AAe?$AAa?$AAd?$AAe?$AAr?$AAS?$AAi?$AAz?$AAe?$AA?5?$AA?$CL?$AA?5?$AAn?$AA?5@ 000000018005afc0     leveldb:log_writer.obj
 0002:0000b020       ??_C@_0BO@FGDDGPEJ@partial?5record?5without?5end?$CI1?$CJ?$AA@ 000000018005b020     leveldb:log_reader.obj
 0002:0000b040       ??_C@_0CG@BJOOPHDE@missing?5start?5of?5fragmented?5reco@ 000000018005b040     leveldb:log_reader.obj
 0002:0000b068       ??_C@_0BO@FEHFNBBA@partial?5record?5without?5end?$CI2?$CJ?$AA@ 000000018005b068     leveldb:log_reader.obj
 0002:0000b088       ??_C@_0BK@HJELPHBF@error?5in?5middle?5of?5record?$AA@ 000000018005b088     leveldb:log_reader.obj
 0002:0000b0a8       ??_C@_0CG@BLKIEJGN@missing?5start?5of?5fragmented?5reco@ 000000018005b0a8     leveldb:log_reader.obj
 0002:0000b0d0       ??_C@_0BC@PHFEKIH@bad?5record?5length?$AA@ 000000018005b0d0     leveldb:log_reader.obj
 0002:0000b0e8       ??_C@_0BH@MDNCILIC@unknown?5record?5type?5?$CFu?$AA@ 000000018005b0e8     leveldb:log_reader.obj
 0002:0000b100       ??_C@_0BC@BAPADOCP@checksum?5mismatch?$AA@ 000000018005b100     leveldb:log_reader.obj
 0002:0000b118       ??_C@_1BM@KCLNGDCP@?$AAt?$AAa?$AAb?$AAl?$AAe?$AA?5?$AA?$DN?$AA?$DN?$AA?5?$AAN?$AAU?$AAL?$AAL?$AA?$AA@ 000000018005b118     leveldb:table_cache.obj
 0002:0000b140       ??_C@_1EC@HHHBCADC@?$AAl?$AAe?$AAv?$AAe?$AAl?$AAd?$AAb?$AA?9?$AA1?$AA?4?$AA1?$AA8?$AA?4?$AA0?$AA?2?$AAd?$AAb?$AA?2?$AAt?$AAa?$AAb?$AAl?$AAe?$AA_?$AAc?$AAa?$AAc?$AAh?$AAe?$AA?4?$AAc?$AAc@ 000000018005b140     leveldb:table_cache.obj
 0002:0000b188       ??_C@_0BA@JKPGFGGN@comparator?5name?$AA@ 000000018005b188     leveldb:version_edit.obj
 0002:0000b198       ??_C@_0BE@OIMELLME@previous?5log?5number?$AA@ 000000018005b198     leveldb:version_edit.obj
 0002:0000b1b0       ??_C@_0L@MNAKOCL@log?5number?$AA@ 000000018005b1b0     leveldb:version_edit.obj
 0002:0000b1c0       ??_C@_0BF@IEBCCJCO@last?5sequence?5number?$AA@ 000000018005b1c0     leveldb:version_edit.obj
 0002:0000b1d8       ??_C@_0BB@CFPAIGNM@next?5file?5number?$AA@ 000000018005b1d8     leveldb:version_edit.obj
 0002:0000b1f0       ??_C@_0N@KHDKBPGC@deleted?5file?$AA@ 000000018005b1f0     leveldb:version_edit.obj
 0002:0000b200       ??_C@_0BD@GHIHLOIC@compaction?5pointer?$AA@ 000000018005b200     leveldb:version_edit.obj
 0002:0000b218       ??_C@_0M@NDAIKBNL@unknown?5tag?$AA@ 000000018005b218     leveldb:version_edit.obj
 0002:0000b228       ??_C@_0P@IFJKGILN@new?9file?5entry?$AA@ 000000018005b228     leveldb:version_edit.obj
 0002:0000b238       ??_C@_0M@OFNLEEDF@VersionEdit?$AA@ 000000018005b238     leveldb:version_edit.obj
 0002:0000b248       ??_C@_0M@MPAGAHDJ@invalid?5tag?$AA@ 000000018005b248     leveldb:version_edit.obj
 0002:0000b254       ??_C@_01CLKCMJKC@?5?$AA@   000000018005b254     leveldb:version_edit.obj
 0002:0000b258       ??_C@_13FPGAJAPJ@?$AA?2?$AA?$AA@ 000000018005b258     leveldb:env_win.obj
 0002:0000b260       ??_C@_0BF@OJNGPDJN@Append?3?5cannot?5write?$AA@ 000000018005b260     leveldb:env_win.obj
 0002:0000b278       ??_C@_0BC@JFFNKLNA@Invalid?5file?5name?$AA@ 000000018005b278     leveldb:env_win.obj
 0002:0000b290       ??_C@_0BL@MCEMBBLK@Destroying?5Env?3?3Default?$CI?$CJ?6?$AA@ 000000018005b290     leveldb:env_win.obj
 0002:0000b2b0       ??_C@_0M@FNDMMKMH@DeleteFile?5?$AA@ 000000018005b2b0     leveldb:env_win.obj
 0002:0000b2bc       ??_C@_13BBDEGPLJ@?$AA?$CK?$AA?$AA@ 000000018005b2bc     leveldb:env_win.obj
 0002:0000b2c0       ??_C@_0M@IEPECJOK@RenameFile?5?$AA@ 000000018005b2c0     leveldb:env_win.obj
 0002:0000b2d0       ??_C@_0N@DCPDIALN@GetFileSize?5?$AA@ 000000018005b2d0     leveldb:env_win.obj
 0002:0000b2e0       ??_C@_0BL@OKNINABO@Could?5not?5close?5lock?5file?4?$AA@ 000000018005b2e0     leveldb:env_win.obj
 0002:0000b300       ??_C@_09CLLHBIAK@LockFile?5?$AA@ 000000018005b300     leveldb:env_win.obj
 0002:0000b30c       ??_C@_02BKFDOEMK@wt?$AA@   000000018005b30c     leveldb:env_win.obj
 0002:0000b310       ??_C@_0BJ@LBHFIONJ@Can?8t?5get?5test?5directory?$AA@ 000000018005b310     leveldb:env_win.obj
 0002:0000b330       ??_7WinLogger@leveldb@@6B@ 000000018005b330     leveldb:env_win.obj
 0002:0000b340       ??_7WinEnv@?A0x02d65cfe@leveldb@@6B@ 000000018005b340     leveldb:env_win.obj
 0002:0000b3d8       ??_7WinWritableFile@leveldb@@6B@ 000000018005b3d8     leveldb:env_win.obj
 0002:0000b400       ??_7WinSequentialFile@leveldb@@6B@ 000000018005b400     leveldb:env_win.obj
 0002:0000b418       ??_7WinRandomAccessFile@leveldb@@6B@ 000000018005b418     leveldb:env_win.obj
 0002:0000b428       ??_7WinFileLock@?A0x02d65cfe@leveldb@@6B@ 000000018005b428     leveldb:env_win.obj
 0002:0000b430       ??_C@_1GO@HAPHDGIH@?$AA?$CI?$AAr?$AAe?$AAi?$AAn?$AAt?$AAe?$AAr?$AAp?$AAr?$AAe?$AAt?$AA_?$AAc?$AAa?$AAs?$AAt?$AA?$DM?$AAu?$AAi?$AAn?$AAt?$AAp?$AAt?$AAr?$AA_?$AAt?$AA?$DO?$AA?$CI?$AAr?$AAe?$AAs@ 000000018005b430     leveldb:arena.obj
 0002:0000b4a0       ??_C@_1DK@LMMNADCL@?$AAl?$AAe?$AAv?$AAe?$AAl?$AAd?$AAb?$AA?9?$AA1?$AA?4?$AA1?$AA8?$AA?4?$AA0?$AA?2?$AAu?$AAt?$AAi?$AAl?$AA?2?$AAa?$AAr?$AAe?$AAn?$AAa?$AA?4?$AAc?$AAc?$AA?$AA@ 000000018005b4a0     leveldb:arena.obj
 0002:0000b4e0       ??_C@_0CD@MFPEIJCL@file?5is?5too?5short?5to?5be?5an?5sstab@ 000000018005b4e0     leveldb:table.obj
 0002:0000b510       ??_C@_1FG@BCENEMMP@?$AAl?$AAe?$AAv?$AAe?$AAl?$AAd?$AAb?$AA?9?$AA1?$AA?4?$AA1?$AA8?$AA?4?$AA0?$AA?2?$AAt?$AAa?$AAb?$AAl?$AAe?$AA?2?$AAt?$AAw?$AAo?$AA_?$AAl?$AAe?$AAv?$AAe?$AAl?$AA_?$AAi@ 000000018005b510     leveldb:two_level_iterator.obj
 0002:0000b568       ??_7TwoLevelIterator@?A0x38b2ba23@leveldb@@6B@ 000000018005b568     leveldb:two_level_iterator.obj
 0002:0000b5c0       ??_C@_1EK@GOLGIJPH@?$AAl?$AAe?$AAv?$AAe?$AAl?$AAd?$AAb?$AA?9?$AA1?$AA?4?$AA1?$AA8?$AA?4?$AA0?$AA?2?$AAt?$AAa?$AAb?$AAl?$AAe?$AA?2?$AAf?$AAi?$AAl?$AAt?$AAe?$AAr?$AA_?$AAb?$AAl?$AAo?$AAc@ 000000018005b5c0     leveldb:filter_block.obj
 0002:0000b610       ??_C@_1EO@PGEBFJEE@?$AAf?$AAi?$AAl?$AAt?$AAe?$AAr?$AA_?$AAi?$AAn?$AAd?$AAe?$AAx?$AA?5?$AA?$DO?$AA?$DN?$AA?5?$AAf?$AAi?$AAl?$AAt?$AAe?$AAr?$AA_?$AAo?$AAf?$AAf?$AAs?$AAe?$AAt?$AAs?$AA_?$AA?4@ 000000018005b610     leveldb:filter_block.obj
 0002:0000b660       ??_C@_1DO@MONFBBKM@?$AAl?$AAe?$AAv?$AAe?$AAl?$AAd?$AAb?$AA?9?$AA1?$AA?4?$AA1?$AA8?$AA?4?$AA0?$AA?2?$AAt?$AAa?$AAb?$AAl?$AAe?$AA?2?$AAf?$AAo?$AAr?$AAm?$AAa?$AAt?$AA?4?$AAc?$AAc?$AA?$AA@ 000000018005b660     leveldb:format.obj
 0002:0000b6a0       ??_C@_1EG@ILPAOCBE@?$AAs?$AAi?$AAz?$AAe?$AA_?$AA?5?$AA?$CB?$AA?$DN?$AA?5?$AA?$HO?$AAs?$AAt?$AAa?$AAt?$AAi?$AAc?$AA_?$AAc?$AAa?$AAs?$AAt?$AA?$DM?$AAu?$AAi?$AAn?$AAt?$AA6?$AA4?$AA_?$AAt?$AA?$DO?$AA?$CI@ 000000018005b6a0     leveldb:format.obj
 0002:0000b6f0       ??_C@_1EK@NLBLPNKC@?$AAo?$AAf?$AAf?$AAs?$AAe?$AAt?$AA_?$AA?5?$AA?$CB?$AA?$DN?$AA?5?$AA?$HO?$AAs?$AAt?$AAa?$AAt?$AAi?$AAc?$AA_?$AAc?$AAa?$AAs?$AAt?$AA?$DM?$AAu?$AAi?$AAn?$AAt?$AA6?$AA4?$AA_?$AAt@ 000000018005b6f0     leveldb:format.obj
 0002:0000b740       ??_C@_1FM@OOADEKPA@?$AAd?$AAs?$AAt?$AA?9?$AA?$DO?$AAs?$AAi?$AAz?$AAe?$AA?$CI?$AA?$CJ?$AA?5?$AA?$DN?$AA?$DN?$AA?5?$AAo?$AAr?$AAi?$AAg?$AAi?$AAn?$AAa?$AAl?$AA_?$AAs?$AAi?$AAz?$AAe?$AA?5?$AA?$CL?$AA?5?$AAk@ 000000018005b740     leveldb:format.obj
 0002:0000b7a0       ??_C@_0BB@COHNLJFI@bad?5block?5handle?$AA@ 000000018005b7a0     leveldb:format.obj
 0002:0000b7b8       ??_C@_0BF@ILLMDOOF@truncated?5block?5read?$AA@ 000000018005b7b8     leveldb:format.obj
 0002:0000b7d0       ??_C@_0CC@LKCDIABI@not?5an?5sstable?5?$CIbad?5magic?5number@ 000000018005b7d0     leveldb:format.obj
 0002:0000b7f8       ??_C@_0CE@CAOEIAMG@corrupted?5compressed?5block?5conte@ 000000018005b7f8     leveldb:format.obj
 0002:0000b820       ??_C@_0BI@GPFPFKGA@block?5checksum?5mismatch?$AA@ 000000018005b820     leveldb:format.obj
 0002:0000b838       ??_C@_0P@MDODGMKN@bad?5block?5type?$AA@ 000000018005b838     leveldb:format.obj
 0002:0000b850       ??_C@_1EM@IDPFPGBC@?$AAl?$AAe?$AAv?$AAe?$AAl?$AAd?$AAb?$AA?9?$AA1?$AA?4?$AA1?$AA8?$AA?4?$AA0?$AA?2?$AAt?$AAa?$AAb?$AAl?$AAe?$AA?2?$AAb?$AAl?$AAo?$AAc?$AAk?$AA_?$AAb?$AAu?$AAi?$AAl?$AAd@ 000000018005b850     leveldb:block_builder.obj
 0002:0000b8a0       ??_C@_1BG@EOCCOFML@?$AA?$CB?$AAf?$AAi?$AAn?$AAi?$AAs?$AAh?$AAe?$AAd?$AA_?$AA?$AA@ 000000018005b8a0     leveldb:block_builder.obj
 0002:0000b8c0       ??_C@_1EK@CDMOINIK@?$AAo?$AAp?$AAt?$AAi?$AAo?$AAn?$AAs?$AA?9?$AA?$DO?$AAb?$AAl?$AAo?$AAc?$AAk?$AA_?$AAr?$AAe?$AAs?$AAt?$AAa?$AAr?$AAt?$AA_?$AAi?$AAn?$AAt?$AAe?$AAr?$AAv?$AAa?$AAl?$AA?5@ 000000018005b8c0     leveldb:block_builder.obj
 0002:0000b910       ??_C@_1JE@IDLNCLOC@?$AAb?$AAu?$AAf?$AAf?$AAe?$AAr?$AA_?$AA?4?$AAe?$AAm?$AAp?$AAt?$AAy?$AA?$CI?$AA?$CJ?$AA?5?$AA?$HM?$AA?$HM?$AA?5?$AAo?$AAp?$AAt?$AAi?$AAo?$AAn?$AAs?$AA_?$AA?9?$AA?$DO?$AAc?$AAo?$AAm@ 000000018005b910     leveldb:block_builder.obj
 0002:0000b9b0       ??_C@_1FK@EBPNECBO@?$AAc?$AAo?$AAu?$AAn?$AAt?$AAe?$AAr?$AA_?$AA?5?$AA?$DM?$AA?$DN?$AA?5?$AAo?$AAp?$AAt?$AAi?$AAo?$AAn?$AAs?$AA_?$AA?9?$AA?$DO?$AAb?$AAl?$AAo?$AAc?$AAk?$AA_?$AAr?$AAe?$AAs?$AAt@ 000000018005b9b0     leveldb:block_builder.obj
 0002:0000ba10       ??_C@_1DA@HKBPACGM@?$AAS?$AAl?$AAi?$AAc?$AAe?$AA?$CI?$AAl?$AAa?$AAs?$AAt?$AA_?$AAk?$AAe?$AAy?$AA_?$AA?$CJ?$AA?5?$AA?$DN?$AA?$DN?$AA?5?$AAk?$AAe?$AAy?$AA?$AA@ 000000018005ba10     leveldb:block_builder.obj
 0002:0000cc60       ??_C@_0CJ@PLBDDMCE@?$CF04d?1?$CF02d?1?$CF02d?9?$CF02d?3?$CF02d?3?$CF02d?4?$CF0@ 000000018005cc60     leveldb:win_logger.obj
 0002:0000cc90       ??_C@_1BG@HMMENFBB@?$AAp?$AA?5?$AA?$DM?$AA?$DN?$AA?5?$AAl?$AAi?$AAm?$AAi?$AAt?$AA?$AA@ 000000018005cc90     leveldb:win_logger.obj
 0002:0000cca8       ??_C@_1DC@PJGPOLEE@?$AAp?$AAo?$AAr?$AAt?$AA?9?$AAl?$AAi?$AAb?$AAu?$AAv?$AA?2?$AAw?$AAi?$AAn?$AA_?$AAl?$AAo?$AAg?$AAg?$AAe?$AAr?$AA?4?$AAc?$AAc?$AA?$AA@ 000000018005cca8     leveldb:win_logger.obj
 0002:0000cce0       ??_C@_1DM@MKEGOCDA@?$AAl?$AAe?$AAv?$AAe?$AAl?$AAd?$AAb?$AA?9?$AA1?$AA?4?$AA1?$AA8?$AA?4?$AA0?$AA?2?$AAt?$AAa?$AAb?$AAl?$AAe?$AA?2?$AAb?$AAl?$AAo?$AAc?$AAk?$AA?4?$AAc?$AAc?$AA?$AA@ 000000018005cce0     leveldb:block.obj
 0002:0000cd20       ??_C@_1CM@KILDAMOA@?$AAi?$AAn?$AAd?$AAe?$AAx?$AA?5?$AA?$DM?$AA?5?$AAn?$AAu?$AAm?$AA_?$AAr?$AAe?$AAs?$AAt?$AAa?$AAr?$AAt?$AAs?$AA_?$AA?$AA@ 000000018005cd20     leveldb:block.obj
 0002:0000cd50       ??_C@_0BD@CHEKDAPJ@bad?5entry?5in?5block?$AA@ 000000018005cd50     leveldb:block.obj
 0002:0000cd68       ??_C@_1CE@HBCAJAAP@?$AAn?$AAu?$AAm?$AA_?$AAr?$AAe?$AAs?$AAt?$AAa?$AAr?$AAt?$AAs?$AA_?$AA?5?$AA?$DO?$AA?5?$AA0?$AA?$AA@ 000000018005cd68     leveldb:block.obj
 0002:0000cd90       ??_C@_0BD@NJCNHDLE@bad?5block?5contents?$AA@ 000000018005cd90     leveldb:block.obj
 0002:0000cda8       ??_7Iter@Block@leveldb@@6B@ 000000018005cda8     leveldb:block.obj
 0002:0000cdf8       ??_C@_1BG@GNOBELO@?$AAv?$AAa?$AAl?$AAu?$AAe?$AA?5?$AA?$DN?$AA?$DN?$AA?5?$AA1?$AA?$AA@ 000000018005cdf8     snappy:snappy.obj
 0002:0000ce10       ??_C@_1OC@LODELFEJ@?$AAc?$AA?3?$AA?2?$AAu?$AAs?$AAe?$AAr?$AAs?$AA?2?$AAa?$AAd?$AAm?$AAi?$AAn?$AAi?$AAs?$AAt?$AAr?$AAa?$AAt?$AAo?$AAr?$AA?2?$AAd?$AAe?$AAs?$AAk?$AAt?$AAo?$AAp?$AA?2?$AAs@ 000000018005ce10     snappy:snappy.obj
 0002:0000cef8       ??_C@_1BO@HOKEIBLG@?$AAs?$AA2?$AA_?$AAl?$AAi?$AAm?$AAi?$AAt?$AA?5?$AA?$DO?$AA?$DN?$AA?5?$AAs?$AA2?$AA?$AA@ 000000018005cef8     snappy:snappy.obj
 0002:0000cf20       ??_C@_1NG@DJDOGEDI@?$AAc?$AA?3?$AA?2?$AAu?$AAs?$AAe?$AAr?$AAs?$AA?2?$AAa?$AAd?$AAm?$AAi?$AAn?$AAi?$AAs?$AAt?$AAr?$AAa?$AAt?$AAo?$AAr?$AA?2?$AAd?$AAe?$AAs?$AAk?$AAt?$AAo?$AAp?$AA?2?$AAs@ 000000018005cf20     snappy:snappy.obj
 0002:0000cff8       ??_C@_1BA@GMKHALLP@?$AAl?$AAe?$AAn?$AA?5?$AA?$DO?$AA?5?$AA0?$AA?$AA@ 000000018005cff8     snappy:snappy.obj
 0002:0000d008       ??_C@_1CO@DAHGPIIM@?$AAs?$AAn?$AAa?$AAp?$AAp?$AAy?$AA?9?$AA1?$AA?4?$AA1?$AA?4?$AA1?$AA?2?$AAs?$AAn?$AAa?$AAp?$AAp?$AAy?$AA?4?$AAc?$AAc?$AA?$AA@ 000000018005d008     snappy:snappy.obj
 0002:0000d038       ??_C@_1BG@LEKFPFJI@?$AAc?$AAo?$AAu?$AAn?$AAt?$AA?5?$AA?$DM?$AA?$DN?$AA?5?$AA4?$AA?$AA@ 000000018005d038     snappy:snappy.obj
 0002:0000d050       ??_C@_1BG@IHIONFJH@?$AAc?$AAo?$AAu?$AAn?$AAt?$AA?5?$AA?$DO?$AA?$DN?$AA?5?$AA1?$AA?$AA@ 000000018005d050     snappy:snappy.obj
 0002:0000d068       ??_C@_1BC@GPKOEOMP@?$AAl?$AAe?$AAn?$AA?5?$AA?$DO?$AA?$DN?$AA?5?$AA4?$AA?$AA@ 000000018005d068     snappy:snappy.obj
 0002:0000d080       ??_C@_1BE@DLMJINK@?$AAl?$AAe?$AAn?$AA?5?$AA?$DM?$AA?$DN?$AA?5?$AA6?$AA4?$AA?$AA@ 000000018005d080     snappy:snappy.obj
 0002:0000d098       ??_C@_1CA@JFBFPAMB@?$AAl?$AAe?$AAn?$AA_?$AAm?$AAi?$AAn?$AAu?$AAs?$AA_?$AA4?$AA?5?$AA?$DM?$AA?5?$AA8?$AA?$AA@ 000000018005d098     snappy:snappy.obj
 0002:0000d0b8       ??_C@_1BO@PPEGDPPA@?$AAo?$AAf?$AAf?$AAs?$AAe?$AAt?$AA?5?$AA?$DM?$AA?5?$AA6?$AA5?$AA5?$AA3?$AA6?$AA?$AA@ 000000018005d0b8     snappy:snappy.obj
 0002:0000d0e0       ??_C@_1EK@FEBNOKCP@?$AA?$CI?$AAt?$AAa?$AAb?$AAl?$AAe?$AA_?$AAs?$AAi?$AAz?$AAe?$AA?5?$AA?$CG?$AA?5?$AA?$CI?$AAt?$AAa?$AAb?$AAl?$AAe?$AA_?$AAs?$AAi?$AAz?$AAe?$AA?5?$AA?9?$AA?5?$AA1?$AA?$CJ?$AA?$CJ?$AA?5@ 000000018005d0e0     snappy:snappy.obj
 0002:0000d130       ??_C@_1DC@OPGIIANN@?$AAi?$AAn?$AAp?$AAu?$AAt?$AA_?$AAs?$AAi?$AAz?$AAe?$AA?5?$AA?$DM?$AA?$DN?$AA?5?$AAk?$AAB?$AAl?$AAo?$AAc?$AAk?$AAS?$AAi?$AAz?$AAe?$AA?$AA@ 000000018005d130     snappy:snappy.obj
 0002:0000d168       ??_C@_1BO@POBPHOCK@?$AAn?$AAe?$AAx?$AAt?$AA_?$AAe?$AAm?$AAi?$AAt?$AA?5?$AA?$DM?$AA?5?$AAi?$AAp?$AA?$AA@ 000000018005d168     snappy:snappy.obj
 0002:0000d190       ??_C@_1HA@CGBFNEOD@?$AAs?$AAt?$AAa?$AAt?$AAi?$AAc?$AA_?$AAc?$AAa?$AAs?$AAt?$AA?$DM?$AAi?$AAn?$AAt?$AA?$DO?$AA?$CI?$AAk?$AAu?$AAi?$AAn?$AAt?$AA3?$AA2?$AAm?$AAa?$AAx?$AA?5?$AA?$DO?$AA?$DO?$AA?5?$AAs@ 000000018005d190     snappy:snappy.obj
 0002:0000d200       ??_C@_1CK@LPFHJPBE@?$AAc?$AAa?$AAn?$AAd?$AAi?$AAd?$AAa?$AAt?$AAe?$AA?5?$AA?$DO?$AA?$DN?$AA?5?$AAb?$AAa?$AAs?$AAe?$AA_?$AAi?$AAp?$AA?$AA@ 000000018005d200     snappy:snappy.obj
 0002:0000d230       ??_C@_1DA@JPFPEEHF@?$AAh?$AAa?$AAs?$AAh?$AA?5?$AA?$DN?$AA?$DN?$AA?5?$AAH?$AAa?$AAs?$AAh?$AA?$CI?$AAi?$AAp?$AA?0?$AA?5?$AAs?$AAh?$AAi?$AAf?$AAt?$AA?$CJ?$AA?$AA@ 000000018005d230     snappy:snappy.obj
 0002:0000d260       ??_C@_1DC@OIJJOGJB@?$AAn?$AAe?$AAx?$AAt?$AA_?$AAe?$AAm?$AAi?$AAt?$AA?5?$AA?$CL?$AA?5?$AA1?$AA6?$AA?5?$AA?$DM?$AA?$DN?$AA?5?$AAi?$AAp?$AA_?$AAe?$AAn?$AAd?$AA?$AA@ 000000018005d260     snappy:snappy.obj
 0002:0000d298       ??_C@_1BO@NJGNGDBA@?$AAc?$AAa?$AAn?$AAd?$AAi?$AAd?$AAa?$AAt?$AAe?$AA?5?$AA?$DM?$AA?5?$AAi?$AAp?$AA?$AA@ 000000018005d298     snappy:snappy.obj
 0002:0000d2c0       ??_C@_1EM@HJJPEPBA@?$AA0?$AA?5?$AA?$DN?$AA?$DN?$AA?5?$AAm?$AAe?$AAm?$AAc?$AAm?$AAp?$AA?$CI?$AAb?$AAa?$AAs?$AAe?$AA?0?$AA?5?$AAc?$AAa?$AAn?$AAd?$AAi?$AAd?$AAa?$AAt?$AAe?$AA?0?$AA?5?$AAm?$AAa?$AAt@ 000000018005d2c0     snappy:snappy.obj
 0002:0000d310       ??_C@_1BO@NMEHIMPL@?$AAi?$AAp?$AA?5?$AA?$DM?$AA?5?$AAi?$AAp?$AA_?$AAl?$AAi?$AAm?$AAi?$AAt?$AA_?$AA?$AA@ 000000018005d310     snappy:snappy.obj
 0002:0000d330       ??_C@_1BI@HPFPGA@?$AAi?$AAp?$AA_?$AA?5?$AA?$DN?$AA?$DN?$AA?5?$AAN?$AAU?$AAL?$AAL?$AA?$AA@ 000000018005d330     snappy:snappy.obj
 0002:0000d348       ??_C@_1BO@IALOIOFH@?$AAn?$AAb?$AAu?$AAf?$AA?5?$AA?$DN?$AA?$DN?$AA?5?$AAn?$AAe?$AAe?$AAd?$AAe?$AAd?$AA?$AA@ 000000018005d348     snappy:snappy.obj
 0002:0000d368       ??_C@_1DG@CJMIIFFC@?$AAn?$AAe?$AAe?$AAd?$AAe?$AAd?$AA?5?$AA?$DM?$AA?$DN?$AA?5?$AAs?$AAi?$AAz?$AAe?$AAo?$AAf?$AA?$CI?$AAs?$AAc?$AAr?$AAa?$AAt?$AAc?$AAh?$AA_?$AA?$CJ?$AA?$AA@ 000000018005d368     snappy:snappy.obj
 0002:0000d3a0       ??_C@_1DE@GIPLEENC@?$AAb?$AAy?$AAt?$AAe?$AAs?$AA_?$AAr?$AAe?$AAa?$AAd?$AA?5?$AA?$DN?$AA?$DN?$AA?5?$AAn?$AAu?$AAm?$AA_?$AAt?$AAo?$AA_?$AAr?$AAe?$AAa?$AAd?$AA?$AA@ 000000018005d3a0     snappy:snappy.obj
 0002:0000d3d8       ??_C@_1CG@MOFADOEH@?$AAf?$AAr?$AAa?$AAg?$AAm?$AAe?$AAn?$AAt?$AA_?$AAs?$AAi?$AAz?$AAe?$AA?5?$AA?$CB?$AA?$DN?$AA?5?$AA0?$AA?$AA@ 000000018005d3d8     snappy:snappy.obj
 0002:0000d400       ??_C@_1BI@NKMBJCOD@?$AAo?$AAp?$AA?5?$AA?$DO?$AA?$DN?$AA?5?$AAb?$AAa?$AAs?$AAe?$AA_?$AA?$AA@ 000000018005d400     snappy:snappy.obj
 0002:0000d418       ??_C@_1CI@LJPILCOO@?$AAl?$AAi?$AAt?$AAe?$AAr?$AAa?$AAl?$AA_?$AAl?$AAe?$AAn?$AAg?$AAt?$AAh?$AA?5?$AA?$DM?$AA?5?$AA6?$AA1?$AA?$AA@ 000000018005d418     snappy:snappy.obj
 0002:0000d440       ??_7Sink@snappy@@6B@       000000018005d440     snappy:snappy.obj
 0002:0000d458       ??_7UncheckedByteArraySink@snappy@@6B@ 000000018005d458     snappy:snappy.obj
 0002:0000d470       ??_7ByteArraySource@snappy@@6B@ 000000018005d470     snappy:snappy.obj
 0002:0000d818       __real@3eb0000000000000    000000018005d818     batch.obj
 0002:0000d820       __real@3fd0000000000000    000000018005d820     batch.obj
 0002:0000d828       __real@3ff0000000000000    000000018005d828     batch.obj
 0002:0000d830       __real@401b999999999999    000000018005d830     batch.obj
 0002:0000d838       __real@4024000000000000    000000018005d838     batch.obj
 0002:0000d840       __real@412e848000000000    000000018005d840     batch.obj
 0002:0000d848       __real@4164000000000000    000000018005d848     batch.obj
 0002:0000d850       __real@43e0000000000000    000000018005d850     batch.obj
 0002:0000d858       __real@43f0000000000000    000000018005d858     batch.obj
 0002:0000d860       __real@bff0000000000000    000000018005d860     batch.obj
 0002:00012190       _load_config_used          0000000180062190     LIBCMT:loadcfg.obj
 0002:00012288       ??_R1A@?0A@EA@exception@std@@8 0000000180062288     libcpmt:xthrow.obj
 0002:000122b0       ??_R3exception@std@@8      00000001800622b0     libcpmt:xthrow.obj
 0002:000122c8       ??_R2exception@std@@8      00000001800622c8     libcpmt:xthrow.obj
 0002:000122d8       ??_R4bad_alloc@std@@6B@    00000001800622d8     libcpmt:xthrow.obj
 0002:00012300       ??_R3bad_alloc@std@@8      0000000180062300     libcpmt:xthrow.obj
 0002:00012318       ??_R2bad_alloc@std@@8      0000000180062318     libcpmt:xthrow.obj
 0002:00012330       ??_R1A@?0A@EA@bad_alloc@std@@8 0000000180062330     libcpmt:xthrow.obj
 0002:00012358       ??_R4logic_error@std@@6B@  0000000180062358     libcpmt:xthrow.obj
 0002:00012380       ??_R3logic_error@std@@8    0000000180062380     libcpmt:xthrow.obj
 0002:00012398       ??_R2logic_error@std@@8    0000000180062398     libcpmt:xthrow.obj
 0002:000123b0       ??_R1A@?0A@EA@logic_error@std@@8 00000001800623b0     libcpmt:xthrow.obj
 0002:000123d8       ??_R4length_error@std@@6B@ 00000001800623d8     libcpmt:xthrow.obj
 0002:00012400       ??_R3length_error@std@@8   0000000180062400     libcpmt:xthrow.obj
 0002:00012418       ??_R2length_error@std@@8   0000000180062418     libcpmt:xthrow.obj
 0002:00012438       ??_R1A@?0A@EA@length_error@std@@8 0000000180062438     libcpmt:xthrow.obj
 0002:00012460       ??_R4out_of_range@std@@6B@ 0000000180062460     libcpmt:xthrow.obj
 0002:00012488       ??_R3out_of_range@std@@8   0000000180062488     libcpmt:xthrow.obj
 0002:000124a0       ??_R2out_of_range@std@@8   00000001800624a0     libcpmt:xthrow.obj
 0002:000124c0       ??_R1A@?0A@EA@out_of_range@std@@8 00000001800624c0     libcpmt:xthrow.obj
 0002:000124e8       ??_R4type_info@@6B@        00000001800624e8     LIBCMT:typinfo.obj
 0002:00012510       ??_R3type_info@@8          0000000180062510     LIBCMT:typinfo.obj
 0002:00012528       ??_R2type_info@@8          0000000180062528     LIBCMT:typinfo.obj
 0002:00012538       ??_R1A@?0A@EA@type_info@@8 0000000180062538     LIBCMT:typinfo.obj
 0002:00012560       ??_R4exception@std@@6B@    0000000180062560     LIBCMT:stdexcpt.obj
 0002:00012588       ??_R4bad_exception@std@@6B@ 0000000180062588     LIBCMT:frame.obj
 0002:000125b0       ??_R3bad_exception@std@@8  00000001800625b0     LIBCMT:frame.obj
 0002:000125c8       ??_R2bad_exception@std@@8  00000001800625c8     LIBCMT:frame.obj
 0002:000125e0       ??_R1A@?0A@EA@bad_exception@std@@8 00000001800625e0     LIBCMT:frame.obj
 0002:00012608       __rtc_iaa                  0000000180062608     LIBCMT:initsect.obj
 0002:00012610       __rtc_izz                  0000000180062610     LIBCMT:initsect.obj
 0002:00012618       __rtc_taa                  0000000180062618     LIBCMT:initsect.obj
 0002:00012620       __rtc_tzz                  0000000180062620     LIBCMT:initsect.obj
 0002:0001e5e8       _TI2?AVbad_alloc@std@@     000000018006e5e8     libcpmt:xthrow.obj
 0002:0001e608       _CTA2?AVbad_alloc@std@@    000000018006e608     libcpmt:xthrow.obj
 0002:0001e620       _CT??_R0?AVbad_alloc@std@@@8??0bad_alloc@std@@QEAA@AEBV01@@Z24 000000018006e620     libcpmt:xthrow.obj
 0002:0001e648       _CT??_R0?AVexception@std@@@8??0exception@std@@QEAA@AEBV01@@Z24 000000018006e648     libcpmt:xthrow.obj
 0002:0001e670       _CT??_R0?AVlogic_error@std@@@8??0logic_error@std@@QEAA@AEBV01@@Z24 000000018006e670     libcpmt:xthrow.obj
 0002:0001e698       _TI3?AVlength_error@std@@  000000018006e698     libcpmt:xthrow.obj
 0002:0001e6b8       _CTA3?AVlength_error@std@@ 000000018006e6b8     libcpmt:xthrow.obj
 0002:0001e6d8       _CT??_R0?AVlength_error@std@@@8??0length_error@std@@QEAA@AEBV01@@Z24 000000018006e6d8     libcpmt:xthrow.obj
 0002:0001e700       _TI3?AVout_of_range@std@@  000000018006e700     libcpmt:xthrow.obj
 0002:0001e720       _CTA3?AVout_of_range@std@@ 000000018006e720     libcpmt:xthrow.obj
 0002:0001e740       _CT??_R0?AVout_of_range@std@@@8??0out_of_range@std@@QEAA@AEBV01@@Z24 000000018006e740     libcpmt:xthrow.obj
 0002:0001e768       _TI2?AVbad_exception@std@@ 000000018006e768     LIBCMT:frame.obj
 0002:0001e788       _CTA2?AVbad_exception@std@@ 000000018006e788     LIBCMT:frame.obj
 0002:0001e7a0       _CT??_R0?AVbad_exception@std@@@8??0bad_exception@std@@QEAA@AEBV01@@Z24 000000018006e7a0     LIBCMT:frame.obj
 0002:0001e7c4       __DELAY_IMPORT_DESCRIPTOR_node_exe 000000018006e7c4     node:node.exe
 0002:0001e7e4       __NULL_DELAY_IMPORT_DESCRIPTOR 000000018006e7e4     node:node.exe
 0002:0001eaa0       \177node_NULL_THUNK_DATA_DLN 000000018006eaa0     node:node.exe
 0002:0001fca0       \177node_NULL_THUNK_DATA_DLB 000000018006fca0     node:node.exe
 0002:0001ff98       __IMPORT_DESCRIPTOR_KERNEL32 000000018006ff98     kernel32:KERNEL32.dll
 0002:0001ffac       __NULL_IMPORT_DESCRIPTOR   000000018006ffac     kernel32:KERNEL32.dll
 0003:00000068       __abort_behavior           0000000180071068     LIBCMT:abort.obj
 0003:00000070       _iob                       0000000180071070     LIBCMT:_file.obj
 0003:000005a0       _fltused                   00000001800715a0     LIBCMT:fpinit.obj
 0003:000005a4       _ldused                    00000001800715a4     LIBCMT:fpinit.obj
 0003:000005a8       __security_cookie          00000001800715a8     LIBCMT:gs_cookie.obj
 0003:000005b0       __security_cookie_complement 00000001800715b0     LIBCMT:gs_cookie.obj
 0003:000005b8       __isa_available            00000001800715b8     LIBCMT:cpu_disp.obj
 0003:000005bc       __isa_enabled              00000001800715bc     LIBCMT:cpu_disp.obj
 0003:000005d0       _mbctype                   00000001800715d0     LIBCMT:mbctype.obj
 0003:000006e0       _mbcasemap                 00000001800716e0     LIBCMT:mbctype.obj
 0003:000007e0       __initialmbcinfo           00000001800717e0     LIBCMT:mbctype.obj
 0003:00000b00       __ptmbcinfo                0000000180071b00     LIBCMT:mbctype.obj
 0003:00000b08       __flsindex                 0000000180071b08     LIBCMT:tidtable.obj
 0003:00000b0c       __mb_cur_max               0000000180071b0c     LIBCMT:nlsdata.obj
 0003:00000b10       __wclocalestr              0000000180071b10     LIBCMT:nlsdata.obj
 0003:00000b20       __lc_time_c                0000000180071b20     LIBCMT:nlsdata.obj
 0003:00000de0       __ptlocinfo                0000000180071de0     LIBCMT:nlsdata.obj
 0003:00000df0       __initiallocinfo           0000000180071df0     LIBCMT:nlsdata.obj
 0003:00000f48       __globallocalestatus       0000000180071f48     LIBCMT:glstatus.obj
 0003:00000f60       __badioinfo                0000000180071f60     LIBCMT:ioinit.obj
 0003:00000fc0       __nullstring               0000000180071fc0     LIBCMT:output.obj
 0003:00000fc8       __wnullstring              0000000180071fc8     LIBCMT:output.obj
 0003:00001210       _sys_nerr                  0000000180072210     LIBCMT:syserr.obj
 0003:00001220       _cfltcvt_tab               0000000180072220     LIBCMT:cmiscdat.obj
 0003:00001440       _matherr_flag              0000000180072440     LIBCMT:matherr.obj
 0003:00001450       __lconv_c                  0000000180072450     LIBCMT:lconv.obj
 0003:000014e8       __lconv_static_decimal     00000001800724e8     LIBCMT:lconv.obj
 0003:000014ec       __lconv_static_W_decimal   00000001800724ec     LIBCMT:lconv.obj
 0003:000014f0       __lconv                    00000001800724f0     LIBCMT:lconv.obj
 0003:000014f8       _pctype                    00000001800724f8     LIBCMT:ctype.obj
 0003:00001500       _pwctype                   0000000180072500     LIBCMT:ctype.obj
 0003:00001510       _d_inf                     0000000180072510     LIBCMT:util.obj
 0003:00001518       _d_ind                     0000000180072518     LIBCMT:util.obj
 0003:00001520       _d_max                     0000000180072520     LIBCMT:util.obj
 0003:00001528       _d_min                     0000000180072528     LIBCMT:util.obj
 0003:00001530       _d_mzero                   0000000180072530     LIBCMT:util.obj
 0003:00001540       _confh                     0000000180072540     LIBCMT:initcon.obj
 0003:00001580       _lookuptrailbytes          0000000180072580     LIBCMT:read.obj
 0003:00001680       _pow10pos                  0000000180072680     LIBCMT:constpow.obj
 0003:000017e0       _pow10neg                  00000001800727e0     LIBCMT:constpow.obj
 0003:00001940       _HUGE                      0000000180072940     LIBCMT:huge.obj
 0003:00001990       __pfnDliNotifyHook2        0000000180072990     win_delay_load_hook.obj
 0003:00001998       ??_R0?AVbad_alloc@std@@@8  0000000180072998     libcpmt:xthrow.obj
 0003:000019c0       ??_R0?AVexception@std@@@8  00000001800729c0     libcpmt:xthrow.obj
 0003:000019e8       ??_R0?AVlogic_error@std@@@8 00000001800729e8     libcpmt:xthrow.obj
 0003:00001a10       ??_R0?AVlength_error@std@@@8 0000000180072a10     libcpmt:xthrow.obj
 0003:00001a38       ??_R0?AVout_of_range@std@@@8 0000000180072a38     libcpmt:xthrow.obj
 0003:00001a60       ??_R0?AVtype_info@@@8      0000000180072a60     LIBCMT:typinfo.obj
 0003:00001a80       ??_R0?AVbad_exception@std@@@8 0000000180072a80     LIBCMT:frame.obj
 0003:00001aa8       __imp_?Length@Buffer@node@@YA_KV?$Local@VObject@v8@@@v8@@@Z 0000000180072aa8     node:node.exe
 0003:00001ab0       __imp_?Data@Buffer@node@@YAPEADV?$Local@VObject@v8@@@v8@@@Z 0000000180072ab0     node:node.exe
 0003:00001ab8       __imp_?HasInstance@Buffer@node@@YA_NV?$Local@VValue@v8@@@v8@@@Z 0000000180072ab8     node:node.exe
 0003:00001ac0       __imp_?HasInstance@Buffer@node@@YA_NV?$Local@VObject@v8@@@v8@@@Z 0000000180072ac0     node:node.exe
 0003:00001ac8       __imp_?MakeCallback@node@@YA?AV?$Local@VValue@v8@@@v8@@PEAVIsolate@3@V?$Local@VObject@v8@@@3@V?$Local@VFunction@v8@@@3@HPEAV23@@Z 0000000180072ac8     node:node.exe
 0003:00001ad0       __imp_uv_default_loop      0000000180072ad0     node:node.exe
 0003:00001ad8       __imp_?New@Signature@v8@@SA?AV?$Local@VSignature@v8@@@2@PEAVIsolate@2@V?$Local@VFunctionTemplate@v8@@@2@@Z 0000000180072ad8     node:node.exe
 0003:00001ae0       __imp_?Global@Context@v8@@QEAA?AV?$Local@VObject@v8@@@2@XZ 0000000180072ae0     node:node.exe
 0003:00001ae8       __imp_?ToLocalEmpty@V8@v8@@CAXXZ 0000000180072ae8     node:node.exe
 0003:00001af0       __imp_?ClearWeak@V8@v8@@CAPEAXPEAPEAVObject@internal@2@@Z 0000000180072af0     node:node.exe
 0003:00001af8       __imp_?MakeWeak@V8@v8@@CAXPEAPEAVObject@internal@2@PEAXP6AXAEBV?$WeakCallbackInfo@X@2@@ZW4WeakCallbackType@2@@Z 0000000180072af8     node:node.exe
 0003:00001b00       __imp_?DisposeGlobal@V8@v8@@CAXPEAPEAVObject@internal@2@@Z 0000000180072b00     node:node.exe
 0003:00001b08       __imp_?GlobalizeReference@V8@v8@@CAPEAPEAVObject@internal@2@PEAVIsolate@42@PEAPEAV342@@Z 0000000180072b08     node:node.exe
 0003:00001b10       __imp_?Escape@EscapableHandleScope@v8@@AEAAPEAPEAVObject@internal@2@PEAPEAV342@@Z 0000000180072b10     node:node.exe
 0003:00001b18       __imp_??0EscapableHandleScope@v8@@QEAA@PEAVIsolate@1@@Z 0000000180072b18     node:node.exe
 0003:00001b20       __imp_?BooleanValue@Value@v8@@QEBA_NXZ 0000000180072b20     node:node.exe
 0003:00001b28       __imp_?IsObject@Value@v8@@QEBA_NXZ 0000000180072b28     node:node.exe
 0003:00001b30       __imp_?SetClassName@FunctionTemplate@v8@@QEAAXV?$Local@VString@v8@@@2@@Z 0000000180072b30     node:node.exe
 0003:00001b38       __imp_?PrototypeTemplate@FunctionTemplate@v8@@QEAA?AV?$Local@VObjectTemplate@v8@@@2@XZ 0000000180072b38     node:node.exe
 0003:00001b40       __imp_?InstanceTemplate@FunctionTemplate@v8@@QEAA?AV?$Local@VObjectTemplate@v8@@@2@XZ 0000000180072b40     node:node.exe
 0003:00001b48       __imp_?GetFunction@FunctionTemplate@v8@@QEAA?AV?$Local@VFunction@v8@@@2@XZ 0000000180072b48     node:node.exe
 0003:00001b50       __imp_?New@FunctionTemplate@v8@@SA?AV?$Local@VFunctionTemplate@v8@@@2@PEAVIsolate@2@P6AXAEBV?$FunctionCallbackInfo@VValue@v8@@@2@@ZV?$Local@VValue@v8@@@2@V?$Local@VSignature@v8@@@2@HW4ConstructorBehavior@2@@Z 0000000180072b50     node:node.exe
 0003:00001b58       __imp_?NewFromUtf8@String@v8@@SA?AV?$MaybeLocal@VString@v8@@@2@PEAVIsolate@2@PEBDW4NewStringType@2@H@Z 0000000180072b58     node:node.exe
 0003:00001b60       __imp_?WriteUtf8@String@v8@@QEBAHPEADHPEAHH@Z 0000000180072b60     node:node.exe
 0003:00001b68       __imp_?Utf8Length@String@v8@@QEBAHXZ 0000000180072b68     node:node.exe
 0003:00001b70       __imp_?CreateHandle@HandleScope@v8@@KAPEAPEAVObject@internal@2@PEAVIsolate@42@PEAV342@@Z 0000000180072b70     node:node.exe
 0003:00001b78       __imp_?CreateHandle@HandleScope@v8@@CAPEAPEAVObject@internal@2@PEAVHeapObject@42@PEAV342@@Z 0000000180072b78     node:node.exe
 0003:00001b80       __imp_??1HandleScope@v8@@QEAA@XZ 0000000180072b80     node:node.exe
 0003:00001b88       __imp_??0HandleScope@v8@@QEAA@PEAVIsolate@1@@Z 0000000180072b88     node:node.exe
 0003:00001b90       __imp_?SlowGetAlignedPointerFromInternalField@Object@v8@@AEAAPEAXH@Z 0000000180072b90     node:node.exe
 0003:00001b98       __imp_?SlowGetInternalField@Object@v8@@AEAA?AV?$Local@VValue@v8@@@2@H@Z 0000000180072b98     node:node.exe
 0003:00001ba0       __imp_?New@Object@v8@@SA?AV?$Local@VObject@v8@@@2@PEAVIsolate@2@@Z 0000000180072ba0     node:node.exe
 0003:00001ba8       __imp_?SetAlignedPointerInInternalField@Object@v8@@QEAAXHPEAX@Z 0000000180072ba8     node:node.exe
 0003:00001bb0       __imp_?SetInternalField@Object@v8@@QEAAXHV?$Local@VValue@v8@@@2@@Z 0000000180072bb0     node:node.exe
 0003:00001bb8       __imp_?InternalFieldCount@Object@v8@@QEAAHXZ 0000000180072bb8     node:node.exe
 0003:00001bc0       __imp_?Has@Object@v8@@QEAA_NV?$Local@VValue@v8@@@2@@Z 0000000180072bc0     node:node.exe
 0003:00001bc8       __imp_?Get@Object@v8@@QEAA?AV?$Local@VValue@v8@@@2@V32@@Z 0000000180072bc8     node:node.exe
 0003:00001bd0       __imp_?Set@Object@v8@@QEAA_NV?$Local@VValue@v8@@@2@0@Z 0000000180072bd0     node:node.exe
 0003:00001bd8       __imp_?Set@Object@v8@@QEAA?AV?$Maybe@_N@2@V?$Local@VContext@v8@@@2@IV?$Local@VValue@v8@@@2@@Z 0000000180072bd8     node:node.exe
 0003:00001be0       __imp_?Set@Template@v8@@QEAAXV?$Local@VName@v8@@@2@V?$Local@VData@v8@@@2@W4PropertyAttribute@2@@Z 0000000180072be0     node:node.exe
 0003:00001be8       __imp_?SetInternalFieldCount@ObjectTemplate@v8@@QEAAXH@Z 0000000180072be8     node:node.exe
 0003:00001bf0       __imp_?NewInstance@ObjectTemplate@v8@@QEAA?AV?$MaybeLocal@VObject@v8@@@2@V?$Local@VContext@v8@@@2@@Z 0000000180072bf0     node:node.exe
 0003:00001bf8       __imp_?New@ObjectTemplate@v8@@SA?AV?$Local@VObjectTemplate@v8@@@2@PEAVIsolate@2@V?$Local@VFunctionTemplate@v8@@@2@@Z 0000000180072bf8     node:node.exe
 0003:00001c00       __imp_?NewInstance@Function@v8@@QEBA?AV?$Local@VObject@v8@@@2@HQEAV?$Local@VValue@v8@@@2@@Z 0000000180072c00     node:node.exe
 0003:00001c08       __imp_?GetCurrentContext@Isolate@v8@@QEAA?AV?$Local@VContext@v8@@@2@XZ 0000000180072c08     node:node.exe
 0003:00001c10       __imp_?GetCurrent@Isolate@v8@@SAPEAV12@XZ 0000000180072c10     node:node.exe
 0003:00001c18       __imp_?Value@External@v8@@QEBAPEAXXZ 0000000180072c18     node:node.exe
 0003:00001c20       __imp_?New@External@v8@@SA?AV?$Local@VExternal@v8@@@2@PEAVIsolate@2@PEAX@Z 0000000180072c20     node:node.exe
 0003:00001c28       __imp_uv_queue_work        0000000180072c28     node:node.exe
 0003:00001c30       __imp_?ToObject@Value@v8@@QEBA?AV?$Local@VObject@v8@@@2@XZ 0000000180072c30     node:node.exe
 0003:00001c38       __imp_?ToString@Value@v8@@QEBA?AV?$Local@VString@v8@@@2@XZ 0000000180072c38     node:node.exe
 0003:00001c40       __imp_??1EscapableHandleScope@v8@@QEAA@XZ 0000000180072c40     node:node.exe
 0003:00001c48       __imp_?Error@Exception@v8@@SA?AV?$Local@VValue@v8@@@2@V?$Local@VString@v8@@@2@@Z 0000000180072c48     node:node.exe
 0003:00001c50       __imp_?Get@Object@v8@@QEAA?AV?$Local@VValue@v8@@@2@I@Z 0000000180072c50     node:node.exe
 0003:00001c58       __imp_?HasCaught@TryCatch@v8@@QEBA_NXZ 0000000180072c58     node:node.exe
 0003:00001c60       __imp_??1TryCatch@v8@@QEAA@XZ 0000000180072c60     node:node.exe
 0003:00001c68       __imp_??0TryCatch@v8@@QEAA@XZ 0000000180072c68     node:node.exe
 0003:00001c70       __imp_?StrictEquals@Value@v8@@QEBA_NV?$Local@VValue@v8@@@2@@Z 0000000180072c70     node:node.exe
 0003:00001c78       __imp_?Uint32Value@Value@v8@@QEBAIXZ 0000000180072c78     node:node.exe
 0003:00001c80       __imp_?IsNumber@Value@v8@@QEBA_NXZ 0000000180072c80     node:node.exe
 0003:00001c88       __imp_?IsArray@Value@v8@@QEBA_NXZ 0000000180072c88     node:node.exe
 0003:00001c90       __imp_?IsFunction@Value@v8@@QEBA_NXZ 0000000180072c90     node:node.exe
 0003:00001c98       __imp_?Length@String@v8@@QEBAHXZ 0000000180072c98     node:node.exe
 0003:00001ca0       __imp_?Length@Array@v8@@QEBAIXZ 0000000180072ca0     node:node.exe
 0003:00001ca8       __imp_?New@Number@v8@@SA?AV?$Local@VNumber@v8@@@2@PEAVIsolate@2@N@Z 0000000180072ca8     node:node.exe
 0003:00001cb0       __imp_?ThrowException@Isolate@v8@@QEAA?AV?$Local@VValue@v8@@@2@V32@@Z 0000000180072cb0     node:node.exe
 0003:00001cb8       __imp_?Copy@Buffer@node@@YA?AV?$MaybeLocal@VObject@v8@@@v8@@PEAVIsolate@4@PEBD_K@Z 0000000180072cb8     node:node.exe
 0003:00001cc0       __imp_?Int32Value@Value@v8@@QEBAHXZ 0000000180072cc0     node:node.exe
 0003:00001cc8       __imp_?Value@Integer@v8@@QEBA_JXZ 0000000180072cc8     node:node.exe
 0003:00001cd0       __imp_?ToInteger@Value@v8@@QEBA?AV?$MaybeLocal@VInteger@v8@@@2@V?$Local@VContext@v8@@@2@@Z 0000000180072cd0     node:node.exe
 0003:00001cd8       __imp_?New@Array@v8@@SA?AV?$Local@VArray@v8@@@2@PEAVIsolate@2@H@Z 0000000180072cd8     node:node.exe
 0003:00001ce0       __imp_?New@Integer@v8@@SA?AV?$Local@VInteger@v8@@@2@PEAVIsolate@2@H@Z 0000000180072ce0     node:node.exe
 0003:00001ce8       __imp_node_module_register 0000000180072ce8     node:node.exe
 0003:00001cf0       __imp_uv_cond_wait         0000000180072cf0     node:node.exe
 0003:00001cf8       __imp_uv_mutex_unlock      0000000180072cf8     node:node.exe
 0003:00001d00       __imp_uv_mutex_lock        0000000180072d00     node:node.exe
 0003:00001d08       __imp_uv_mutex_destroy     0000000180072d08     node:node.exe
 0003:00001d10       __imp_uv_once              0000000180072d10     node:node.exe
 0003:00001d18       __imp_uv_cond_broadcast    0000000180072d18     node:node.exe
 0003:00001d20       __imp_uv_cond_signal       0000000180072d20     node:node.exe
 0003:00001d28       __imp_uv_mutex_init        0000000180072d28     node:node.exe
 0003:00001d30       __imp_uv_cond_destroy      0000000180072d30     node:node.exe
 0003:00001d38       __imp_uv_cond_init         0000000180072d38     node:node.exe
 0003:00001d40       \177node_NULL_THUNK_DATA_DLA 0000000180072d40     node:node.exe
 0003:00001d60       __hmod__node_exe           0000000180072d60     node:node.exe
 0003:00001d78       _aenvptr                   0000000180072d78     LIBCMT:dllcrt0.obj
 0003:00001d80       _wenvptr                   0000000180072d80     LIBCMT:dllcrt0.obj
 0003:00001d88       _cflush                    0000000180072d88     LIBCMT:_file.obj
 0003:00001da8       __fastflag                 0000000180072da8     LIBCMT:fpinit.obj
 0003:00002324       __favor                    0000000180073324     LIBCMT:cpu_disp.obj
 0003:00002328       __pInvalidArgHandler       0000000180073328     LIBCMT:invarg.obj
 0003:00002330       _C_Exit_Done               0000000180073330     LIBCMT:crt0dat.obj
 0003:00002334       __argc                     0000000180073334     LIBCMT:crt0dat.obj
 0003:00002338       __argv                     0000000180073338     LIBCMT:crt0dat.obj
 0003:00002340       __wargv                    0000000180073340     LIBCMT:crt0dat.obj
 0003:00002348       _environ                   0000000180073348     LIBCMT:crt0dat.obj
 0003:00002350       _wenviron                  0000000180073350     LIBCMT:crt0dat.obj
 0003:00002358       _pgmptr                    0000000180073358     LIBCMT:crt0dat.obj
 0003:00002360       _wpgmptr                   0000000180073360     LIBCMT:crt0dat.obj
 0003:00002368       _umaskval                  0000000180073368     LIBCMT:crt0dat.obj
 0003:0000236c       _exitflag                  000000018007336c     LIBCMT:crt0dat.obj
 0003:00002370       _C_Termination_Done        0000000180073370     LIBCMT:crt0dat.obj
 0003:00002378       __winitenv                 0000000180073378     LIBCMT:crt0dat.obj
 0003:00002380       __initenv                  0000000180073380     LIBCMT:crt0dat.obj
 0003:00002388       __error_mode               0000000180073388     LIBCMT:errmode.obj
 0003:000023e0       __app_type                 00000001800733e0     LIBCMT:crt0msg.obj
 0003:00002a18       _maxwait                   0000000180073a18     LIBCMT:crtheap.obj
 0003:00002a20       __pPurecall                0000000180073a20     LIBCMT:inithelp.obj
 0003:00002a28       ?_pnhHeap@@3P6AH_K@ZEA     0000000180073a28     LIBCMT:handler.obj
 0003:00002a30       _crtheap                   0000000180073a30     LIBCMT:heapinit.obj
 0003:00002a38       _newmode                   0000000180073a38     LIBCMT:_newmode.obj
 0003:00002a40       __mbcodepage               0000000180073a40     LIBCMT:mbctype.obj
 0003:00002a44       __ismbcodepage             0000000180073a44     LIBCMT:mbctype.obj
 0003:00002a48       __mbulinfo                 0000000180073a48     LIBCMT:mbctype.obj
 0003:00002a58       __mblocalename             0000000180073a58     LIBCMT:mbctype.obj
 0003:00002a64       __locale_changed           0000000180073a64     LIBCMT:wsetloca.obj
 0003:00002a70       __pioinfo                  0000000180073a70     LIBCMT:ioinit.obj
 0003:00002d78       ?__pInconsistency@@3P6AXXZEA 0000000180073d78     LIBCMT:hooks.obj
 0003:00002fb0       _stdbuf                    0000000180073fb0     LIBCMT:_sftbuf.obj
 0003:00002fc0       ?g_OutOfMemoryExceptionCallback@@3P6APEAXXZEA 0000000180073fc0     LIBCMT:frame.obj
 0003:00002fe8       __lconv_static_null        0000000180073fe8     LIBCMT:lconv.obj
 0003:00002fec       __lconv_static_W_null      0000000180073fec     LIBCMT:lconv.obj
 0003:00002ff8       _commode                   0000000180073ff8     LIBCMT:ncommode.obj
 0003:00003000       ?m_pGetParameter@UnDecorator@@0P6APEADJ@ZEA 0000000180074000     LIBCMT:undname.obj
 0003:00003008       ?pArgList@UnDecorator@@0PEAVReplicator@@EA 0000000180074008     LIBCMT:undname.obj
 0003:00003010       ?pZNameList@UnDecorator@@0PEAVReplicator@@EA 0000000180074010     LIBCMT:undname.obj
 0003:00003018       ?pTemplateArgList@UnDecorator@@0PEAVReplicator@@EA 0000000180074018     LIBCMT:undname.obj
 0003:00003020       ?gName@UnDecorator@@0PEBDEB 0000000180074020     LIBCMT:undname.obj
 0003:00003028       ?name@UnDecorator@@0PEBDEB 0000000180074028     LIBCMT:undname.obj
 0003:00003030       ?outputString@UnDecorator@@0PEADEA 0000000180074030     LIBCMT:undname.obj
 0003:00003038       ?maxStringLength@UnDecorator@@0HA 0000000180074038     LIBCMT:undname.obj
 0003:0000303c       ?disableFlags@UnDecorator@@0KA 000000018007403c     LIBCMT:undname.obj
 0003:00003040       ?fExplicitTemplateParams@UnDecorator@@0_NA 0000000180074040     LIBCMT:undname.obj
 0003:00003041       ?fGetTemplateArgumentList@UnDecorator@@0_NA 0000000180074041     LIBCMT:undname.obj
 0003:00003070       _outputformat              0000000180074070     LIBCMT:outputformat.obj
 0003:00003074       _fmode                     0000000180074074     LIBCMT:txtmode.obj
 0003:00003078       __pfnDliFailureHook2       0000000180074078     DelayImp:delayhk1.obj
 0003:00003158       ?id@?$num_put@_WV?$back_insert_iterator@V?$basic_string@_WU?$char_traits@_W@std@@V?$allocator@_W@2@@std@@@std@@@std@@2V0locale@2@A 0000000180074158     batch.obj
 0003:00003160       ?_System_object@?$_Error_objects@H@std@@2V_System_error_category@2@A 0000000180074160     batch.obj
 0003:00003168       ?id@?$numpunct@_W@std@@2V0locale@2@A 0000000180074168     batch.obj
 0003:00003170       ?id@?$num_put@DV?$back_insert_iterator@V?$basic_string@DU?$char_traits@D@std@@V?$allocator@D@2@@std@@@std@@@std@@2V0locale@2@A 0000000180074170     batch.obj
 0003:00003178       ?_Iostream_object@?$_Error_objects@H@std@@2V_Iostream_error_category@2@A 0000000180074178     batch.obj
 0003:00003180       ?_Generic_object@?$_Error_objects@H@std@@2V_Generic_error_category@2@A 0000000180074180     batch.obj
 0003:00003188       ?id@?$numpunct@D@std@@2V0locale@2@A 0000000180074188     batch.obj
 0003:00003190       _debugger_hook_dummy       0000000180074190     <common>
 0003:000031a0       encodedKERNEL32Functions   00000001800741a0     <common>
 0003:000032a8       _nhandle                   00000001800742a8     <common>
 0003:000032b0       __dyn_tls_init_callback    00000001800742b0     <common>
 0003:000032b8       __onexitend                00000001800742b8     <common>
 0003:000032c0       __onexitbegin              00000001800742c0     <common>
 0003:000032c8       __mbctype_initialized      00000001800742c8     <common>
 0003:000032cc       __env_initialized          00000001800742cc     <common>
 0003:000032d0       __piob                     00000001800742d0     <common>
 0003:000032d8       _nstream                   00000001800742d8     <common>
 0003:000032e0       _bufin                     00000001800742e0     <common>
 0003:000042e0       _acmdln                    00000001800752e0     <common>

 entry point at        0001:00035984

 Static symbols

 0000:fff84000       .debug$S                   0000000180000000     node:node.exe
 0000:fff84000       .debug$S                   0000000180000000     node:node.exe
 0000:fff84000       .debug$S                   0000000180000000     node:node.exe
 0000:fff84000       .debug$S                   0000000180000000     node:node.exe
 0000:fff84000       .debug$S                   0000000180000000     node:node.exe
 0000:fff84000       .debug$S                   0000000180000000     node:node.exe
 0000:fff84000       .debug$S                   0000000180000000     node:node.exe
 0000:fff84000       .debug$S                   0000000180000000     node:node.exe
 0000:fff84000       .debug$S                   0000000180000000     node:node.exe
 0000:fff84000       .debug$S                   0000000180000000     node:node.exe
 0000:fff84000       .debug$S                   0000000180000000     node:node.exe
 0000:fff84000       .debug$S                   0000000180000000     node:node.exe
 0000:fff84000       .debug$S                   0000000180000000     node:node.exe
 0000:fff84000       .debug$S                   0000000180000000     node:node.exe
 0000:fff84000       .debug$S                   0000000180000000     node:node.exe
 0000:fff84000       .debug$S                   0000000180000000     node:node.exe
 0000:fff84000       .debug$S                   0000000180000000     node:node.exe
 0000:fff84000       .debug$S                   0000000180000000     node:node.exe
 0000:fff84000       .debug$S                   0000000180000000     node:node.exe
 0000:fff84000       .debug$S                   0000000180000000     node:node.exe
 0000:fff84000       .debug$S                   0000000180000000     node:node.exe
 0000:fff84000       .debug$S                   0000000180000000     node:node.exe
 0000:fff84000       .debug$S                   0000000180000000     node:node.exe
 0000:fff84000       .debug$S                   0000000180000000     node:node.exe
 0000:fff84000       .debug$S                   0000000180000000     node:node.exe
 0000:fff84000       .debug$S                   0000000180000000     node:node.exe
 0000:fff84000       .debug$S                   0000000180000000     node:node.exe
 0000:fff84000       .debug$S                   0000000180000000     node:node.exe
 0000:fff84000       .debug$S                   0000000180000000     node:node.exe
 0000:fff84000       .debug$S                   0000000180000000     node:node.exe
 0000:fff84000       .debug$S                   0000000180000000     node:node.exe
 0000:fff84000       .debug$S                   0000000180000000     node:node.exe
 0000:fff84000       .debug$S                   0000000180000000     node:node.exe
 0000:fff84000       .debug$S                   0000000180000000     node:node.exe
 0000:fff84000       .debug$S                   0000000180000000     node:node.exe
 0000:fff84000       .debug$S                   0000000180000000     node:node.exe
 0000:fff84000       .debug$S                   0000000180000000     node:node.exe
 0000:fff84000       .debug$S                   0000000180000000     node:node.exe
 0000:fff84000       .debug$S                   0000000180000000     node:node.exe
 0000:fff84000       .debug$S                   0000000180000000     node:node.exe
 0000:fff84000       .debug$S                   0000000180000000     node:node.exe
 0000:fff84000       .debug$S                   0000000180000000     node:node.exe
 0000:fff84000       .debug$S                   0000000180000000     node:node.exe
 0000:fff84000       .debug$S                   0000000180000000     node:node.exe
 0000:fff84000       .debug$S                   0000000180000000     node:node.exe
 0000:fff84000       .debug$S                   0000000180000000     node:node.exe
 0000:fff84000       .debug$S                   0000000180000000     node:node.exe
 0000:fff84000       .debug$S                   0000000180000000     node:node.exe
 0000:fff84000       .debug$S                   0000000180000000     node:node.exe
 0000:fff84000       .debug$S                   0000000180000000     node:node.exe
 0000:fff84000       .debug$S                   0000000180000000     node:node.exe
 0000:fff84000       .debug$S                   0000000180000000     node:node.exe
 0000:fff84000       .debug$S                   0000000180000000     node:node.exe
 0000:fff84000       .debug$S                   0000000180000000     node:node.exe
 0000:fff84000       .debug$S                   0000000180000000     node:node.exe
 0000:fff84000       .debug$S                   0000000180000000     node:node.exe
 0000:fff84000       .debug$S                   0000000180000000     node:node.exe
 0000:fff84000       .debug$S                   0000000180000000     node:node.exe
 0000:fff84000       .debug$S                   0000000180000000     node:node.exe
 0000:fff84000       .debug$S                   0000000180000000     node:node.exe
 0000:fff84000       .debug$S                   0000000180000000     node:node.exe
 0000:fff84000       .debug$S                   0000000180000000     node:node.exe
 0000:fff84000       .debug$S                   0000000180000000     node:node.exe
 0000:fff84000       .debug$S                   0000000180000000     node:node.exe
 0000:fff84000       .debug$S                   0000000180000000     node:node.exe
 0000:fff84000       .debug$S                   0000000180000000     node:node.exe
 0000:fff84000       .debug$S                   0000000180000000     node:node.exe
 0000:fff84000       .debug$S                   0000000180000000     node:node.exe
 0000:fff84000       .debug$S                   0000000180000000     node:node.exe
 0000:fff84000       .debug$S                   0000000180000000     node:node.exe
 0000:fff84000       .debug$S                   0000000180000000     node:node.exe
 0000:fff84000       .debug$S                   0000000180000000     node:node.exe
 0000:fff84000       .debug$S                   0000000180000000     node:node.exe
 0000:fff84000       .debug$S                   0000000180000000     node:node.exe
 0000:fff84000       .debug$S                   0000000180000000     node:node.exe
 0000:fff84000       .debug$S                   0000000180000000     node:node.exe
 0000:fff84000       .debug$S                   0000000180000000     node:node.exe
 0000:fff84000       .debug$S                   0000000180000000     node:node.exe
 0000:fff84000       .debug$S                   0000000180000000     node:node.exe
 0000:fff84000       .debug$S                   0000000180000000     node:node.exe
 0000:fff84000       .debug$S                   0000000180000000     node:node.exe
 0000:fff84000       .debug$S                   0000000180000000     node:node.exe
 0000:fff84000       .debug$S                   0000000180000000     node:node.exe
 0000:fff84000       .debug$S                   0000000180000000     node:node.exe
 0000:fff84000       .debug$S                   0000000180000000     node:node.exe
 0000:fff84000       .debug$S                   0000000180000000     node:node.exe
 0000:fff84000       .debug$S                   0000000180000000     node:node.exe
 0000:fff84000       .debug$S                   0000000180000000     node:node.exe
 0000:fff84000       .debug$S                   0000000180000000     node:node.exe
 0000:fff84000       .debug$S                   0000000180000000     node:node.exe
 0000:fff84000       .debug$S                   0000000180000000     node:node.exe
 0000:fff84000       .debug$S                   0000000180000000     kernel32:KERNEL32.dll
 0000:fff84000       .debug$S                   0000000180000000     kernel32:KERNEL32.dll
 0000:fff84000       .debug$S                   0000000180000000     node:node.exe
 0000:fff84000       .debug$S                   0000000180000000     node:node.exe
 0000:fff84000       .debug$S                   0000000180000000     node:node.exe
 0000:fff84000       .debug$S                   0000000180000000     node:node.exe
 0000:fff84000       .debug$S                   0000000180000000     node:node.exe
 0000:fff84000       .debug$S                   0000000180000000     node:node.exe
 0000:fff84000       .debug$S                   0000000180000000     kernel32:KERNEL32.dll
 0000:fff84000       .debug$S                   0000000180000000     kernel32:KERNEL32.dll
 0000:fff84000       .debug$S                   0000000180000000     kernel32:KERNEL32.dll
 0000:fff84000       .debug$S                   0000000180000000     kernel32:KERNEL32.dll
 0000:fff84000       .debug$S                   0000000180000000     kernel32:KERNEL32.dll
 0000:fff84000       .debug$S                   0000000180000000     kernel32:KERNEL32.dll
 0000:fff84000       .debug$S                   0000000180000000     kernel32:KERNEL32.dll
 0000:fff84000       .debug$S                   0000000180000000     kernel32:KERNEL32.dll
 0000:fff84000       .debug$S                   0000000180000000     kernel32:KERNEL32.dll
 0000:fff84000       .debug$S                   0000000180000000     kernel32:KERNEL32.dll
 0000:fff84000       .debug$S                   0000000180000000     kernel32:KERNEL32.dll
 0000:fff84000       .debug$S                   0000000180000000     kernel32:KERNEL32.dll
 0000:fff84000       .debug$S                   0000000180000000     kernel32:KERNEL32.dll
 0000:fff84000       .debug$S                   0000000180000000     kernel32:KERNEL32.dll
 0000:fff84000       .debug$S                   0000000180000000     kernel32:KERNEL32.dll
 0000:fff84000       .debug$S                   0000000180000000     kernel32:KERNEL32.dll
 0000:fff84000       .debug$S                   0000000180000000     kernel32:KERNEL32.dll
 0000:fff84000       .debug$S                   0000000180000000     kernel32:KERNEL32.dll
 0000:fff84000       .debug$S                   0000000180000000     kernel32:KERNEL32.dll
 0000:fff84000       .debug$S                   0000000180000000     kernel32:KERNEL32.dll
 0000:fff84000       .debug$S                   0000000180000000     kernel32:KERNEL32.dll
 0000:fff84000       .debug$S                   0000000180000000     kernel32:KERNEL32.dll
 0000:fff84000       .debug$S                   0000000180000000     kernel32:KERNEL32.dll
 0000:fff84000       .debug$S                   0000000180000000     kernel32:KERNEL32.dll
 0000:fff84000       .debug$S                   0000000180000000     kernel32:KERNEL32.dll
 0000:fff84000       .debug$S                   0000000180000000     kernel32:KERNEL32.dll
 0000:fff84000       .debug$S                   0000000180000000     kernel32:KERNEL32.dll
 0000:fff84000       .debug$S                   0000000180000000     kernel32:KERNEL32.dll
 0000:fff84000       .debug$S                   0000000180000000     kernel32:KERNEL32.dll
 0000:fff84000       .debug$S                   0000000180000000     kernel32:KERNEL32.dll
 0000:fff84000       .debug$S                   0000000180000000     kernel32:KERNEL32.dll
 0000:fff84000       .debug$S                   0000000180000000     kernel32:KERNEL32.dll
 0000:fff84000       .debug$S                   0000000180000000     kernel32:KERNEL32.dll
 0000:fff84000       .debug$S                   0000000180000000     kernel32:KERNEL32.dll
 0000:fff84000       .debug$S                   0000000180000000     kernel32:KERNEL32.dll
 0000:fff84000       .debug$S                   0000000180000000     kernel32:KERNEL32.dll
 0000:fff84000       .debug$S                   0000000180000000     kernel32:KERNEL32.dll
 0000:fff84000       .debug$S                   0000000180000000     kernel32:KERNEL32.dll
 0000:fff84000       .debug$S                   0000000180000000     kernel32:KERNEL32.dll
 0000:fff84000       .debug$S                   0000000180000000     kernel32:KERNEL32.dll
 0000:fff84000       .debug$S                   0000000180000000     kernel32:KERNEL32.dll
 0000:fff84000       .debug$S                   0000000180000000     kernel32:KERNEL32.dll
 0000:fff84000       .debug$S                   0000000180000000     kernel32:KERNEL32.dll
 0000:fff84000       .debug$S                   0000000180000000     kernel32:KERNEL32.dll
 0000:fff84000       .debug$S                   0000000180000000     kernel32:KERNEL32.dll
 0000:fff84000       .debug$S                   0000000180000000     kernel32:KERNEL32.dll
 0000:fff84000       .debug$S                   0000000180000000     kernel32:KERNEL32.dll
 0000:fff84000       .debug$S                   0000000180000000     kernel32:KERNEL32.dll
 0000:fff84000       .debug$S                   0000000180000000     kernel32:KERNEL32.dll
 0000:fff84000       .debug$S                   0000000180000000     kernel32:KERNEL32.dll
 0000:fff84000       .debug$S                   0000000180000000     kernel32:KERNEL32.dll
 0000:fff84000       .debug$S                   0000000180000000     kernel32:KERNEL32.dll
 0000:fff84000       .debug$S                   0000000180000000     kernel32:KERNEL32.dll
 0000:fff84000       .debug$S                   0000000180000000     kernel32:KERNEL32.dll
 0000:fff84000       .debug$S                   0000000180000000     kernel32:KERNEL32.dll
 0000:fff84000       .debug$S                   0000000180000000     kernel32:KERNEL32.dll
 0000:fff84000       .debug$S                   0000000180000000     kernel32:KERNEL32.dll
 0000:fff84000       .debug$S                   0000000180000000     kernel32:KERNEL32.dll
 0000:fff84000       .debug$S                   0000000180000000     kernel32:KERNEL32.dll
 0000:fff84000       .debug$S                   0000000180000000     kernel32:KERNEL32.dll
 0000:fff84000       .debug$S                   0000000180000000     kernel32:KERNEL32.dll
 0000:fff84000       .debug$S                   0000000180000000     kernel32:KERNEL32.dll
 0000:fff84000       .debug$S                   0000000180000000     kernel32:KERNEL32.dll
 0000:fff84000       .debug$S                   0000000180000000     kernel32:KERNEL32.dll
 0000:fff84000       .debug$S                   0000000180000000     kernel32:KERNEL32.dll
 0000:fff84000       .debug$S                   0000000180000000     kernel32:KERNEL32.dll
 0000:fff84000       .debug$S                   0000000180000000     kernel32:KERNEL32.dll
 0000:fff84000       .debug$S                   0000000180000000     kernel32:KERNEL32.dll
 0000:fff84000       .debug$S                   0000000180000000     kernel32:KERNEL32.dll
 0000:fff84000       .debug$S                   0000000180000000     kernel32:KERNEL32.dll
 0000:fff84000       .debug$S                   0000000180000000     kernel32:KERNEL32.dll
 0000:fff84000       .debug$S                   0000000180000000     kernel32:KERNEL32.dll
 0000:fff84000       .debug$S                   0000000180000000     kernel32:KERNEL32.dll
 0000:fff84000       .debug$S                   0000000180000000     kernel32:KERNEL32.dll
 0000:fff84000       .debug$S                   0000000180000000     kernel32:KERNEL32.dll
 0000:fff84000       .debug$S                   0000000180000000     kernel32:KERNEL32.dll
 0000:fff84000       .debug$S                   0000000180000000     kernel32:KERNEL32.dll
 0000:fff84000       .debug$S                   0000000180000000     kernel32:KERNEL32.dll
 0000:fff84000       .debug$S                   0000000180000000     kernel32:KERNEL32.dll
 0000:fff84000       .debug$S                   0000000180000000     kernel32:KERNEL32.dll
 0000:fff84000       .debug$S                   0000000180000000     kernel32:KERNEL32.dll
 0000:fff84000       .debug$S                   0000000180000000     kernel32:KERNEL32.dll
 0000:fff84000       .debug$S                   0000000180000000     kernel32:KERNEL32.dll
 0000:fff84000       .debug$S                   0000000180000000     kernel32:KERNEL32.dll
 0000:fff84000       .debug$S                   0000000180000000     kernel32:KERNEL32.dll
 0000:fff84000       .debug$S                   0000000180000000     kernel32:KERNEL32.dll
 0000:fff84000       .debug$S                   0000000180000000     kernel32:KERNEL32.dll
 0000:fff84000       .debug$S                   0000000180000000     kernel32:KERNEL32.dll
 0000:fff84000       .debug$S                   0000000180000000     kernel32:KERNEL32.dll
 0000:fff84000       .debug$S                   0000000180000000     kernel32:KERNEL32.dll
 0000:fff84000       .debug$S                   0000000180000000     kernel32:KERNEL32.dll
 0000:fff84000       .debug$S                   0000000180000000     kernel32:KERNEL32.dll
 0000:fff84000       .debug$S                   0000000180000000     kernel32:KERNEL32.dll
 0000:fff84000       .debug$S                   0000000180000000     kernel32:KERNEL32.dll
 0000:fff84000       .debug$S                   0000000180000000     kernel32:KERNEL32.dll
 0000:fff84000       .debug$S                   0000000180000000     kernel32:KERNEL32.dll
 0000:fff84000       .debug$S                   0000000180000000     kernel32:KERNEL32.dll
 0000:fff84000       .debug$S                   0000000180000000     kernel32:KERNEL32.dll
 0000:fff84000       .debug$S                   0000000180000000     kernel32:KERNEL32.dll
 0000:fff84000       .debug$S                   0000000180000000     node:node.exe
 0001:00000000       ??__Ebatch_constructor@leveldown@@YAXXZ 0000000180001000 f   * CIL library *:* CIL module *
 0001:00000020       ??__Edatabase_constructor@leveldown@@YAXXZ 0000000180001020 f   * CIL library *:* CIL module *
 0001:00000040       ??__Eiterator_constructor@leveldown@@YAXXZ 0000000180001040 f   * CIL library *:* CIL module *
 0001:00000060       ??__Edefault_env_mutex@leveldb@@YAXXZ 0000000180001060 f   * CIL library *:* CIL module *
 0001:000000a0       ?FunctionCallbackWrapper@imp@Nan@@YAXAEBV?$FunctionCallbackInfo@VValue@v8@@@v8@@@Z 00000001800010a0 f   * CIL library *:* CIL module *
 0001:00007980       ?StringOrBufferLength@@YA_KV?$Local@VValue@v8@@@v8@@@Z 0000000180008980 f   * CIL library *:* CIL module *
 0001:0000b650       _register_leveldown        000000018000c650 f   * CIL library *:* CIL module *
 0001:0000b9e0       ?load_exe_hook@@YAP6A_JXZIPEAUDelayLoadInfo@@@Z 000000018000c9e0 f   * CIL library *:* CIL module *
 0001:0000ca80       $LN243                     000000018000da80     * CIL library *:* CIL module *
 0001:0000f170       $LN433                     0000000180010170     * CIL library *:* CIL module *
 0001:00010440       ?Corruption@LogReporter@?1??RecoverLogFile@DBImpl@leveldb@@AEAA?AVStatus@4@_KPEAVVersionEdit@4@PEA_K@Z@UEAAX0AEBV54@@Z 0000000180011440 f   * CIL library *:* CIL module *
 0001:00012ce0       ?CleanupIteratorState@?A0x96887d5d@leveldb@@YAXPEAX0@Z 0000000180013ce0 f   * CIL library *:* CIL module *
 0001:00019f40       ?Corruption@LogReporter@?1??ConvertLogToTable@Repairer@?A0xa008de00@leveldb@@AEAA?AVStatus@5@_K@Z@UEAAX0AEBV65@@Z 000000018001af40 f   * CIL library *:* CIL module *
 0001:0001bd40       ?MakeFileName@leveldb@@YA?AV?$basic_string@DU?$char_traits@D@std@@V?$allocator@D@2@@std@@AEBV23@_KPEBD@Z 000000018001cd40 f   * CIL library *:* CIL module *
 0001:0001ca10       ?InitModule@leveldb@@YAXXZ 000000018001da10 f   * CIL library *:* CIL module *
 0001:0001cbb0       ?TotalFileSize@leveldb@@YA_JAEBV?$vector@PEAUFileMetaData@leveldb@@V?$allocator@PEAUFileMetaData@leveldb@@@std@@@std@@@Z 000000018001dbb0 f   * CIL library *:* CIL module *
 0001:0001ce70       ?AfterFile@leveldb@@YA_NPEBVComparator@1@PEBVSlice@1@PEBUFileMetaData@1@@Z 000000018001de70 f   * CIL library *:* CIL module *
 0001:0001cf10       ?BeforeFile@leveldb@@YA_NPEBVComparator@1@PEBVSlice@1@PEBUFileMetaData@1@@Z 000000018001df10 f   * CIL library *:* CIL module *
 0001:0001d470       ?GetFileIterator@leveldb@@YAPEAVIterator@1@PEAXAEBUReadOptions@1@AEBVSlice@1@@Z 000000018001e470 f   * CIL library *:* CIL module *
 0001:0001d7f0       ?SaveValue@leveldb@@YAXPEAXAEBVSlice@1@1@Z 000000018001e7f0 f   * CIL library *:* CIL module *
 0001:0001d8c0       ?NewestFirst@leveldb@@YA_NPEAUFileMetaData@1@0@Z 000000018001e8c0 f   * CIL library *:* CIL module *
 0001:0001e760       ?Match@State@?4??RecordReadSample@Version@leveldb@@QEAA_NVSlice@4@@Z@SA_NPEAXHPEAUFileMetaData@4@@Z 000000018001f760 f   * CIL library *:* CIL module *
 0001:00020fa0       ?Corruption@LogReporter@?1??Recover@VersionSet@leveldb@@QEAA?AVStatus@4@XZ@UEAAX_KAEBV54@@Z 0000000180021fa0 f   * CIL library *:* CIL module *
 0001:00027c30       ?DoWriteStringToFile@leveldb@@YA?AVStatus@1@PEAVEnv@1@AEBVSlice@1@AEBV?$basic_string@DU?$char_traits@D@std@@V?$allocator@D@2@@std@@_N@Z 0000000180028c30 f   * CIL library *:* CIL module *
 0001:00029bb4       $LN160                     000000018002abb4     * CIL library *:* CIL module *
 0001:00029ed0       ?DeleteEntry@leveldb@@YAXAEBVSlice@1@PEAX@Z 000000018002aed0 f   * CIL library *:* CIL module *
 0001:00029f20       ?ReleaseBlock@leveldb@@YAXPEAX0@Z 000000018002af20 f   * CIL library *:* CIL module *
 0001:00029f20       ?UnrefEntry@leveldb@@YAXPEAX0@Z 000000018002af20 f   * CIL library *:* CIL module *
 0001:0002b52c       $LN1022                    000000018002c52c     * CIL library *:* CIL module *
 0001:0002b5b0       ?IOError@leveldb@@YA?AVStatus@1@AEBV?$basic_string@DU?$char_traits@D@std@@V?$allocator@D@2@@std@@K@Z 000000018002c5b0 f   * CIL library *:* CIL module *
 0001:0002bf80       ?WstrJoin@?A0x02d65cfe@leveldb@@YAPEA_WPEB_W00@Z 000000018002cf80 f   * CIL library *:* CIL module *
 0001:0002c090       ?WstrPathJoin@?A0x02d65cfe@leveldb@@YAPEA_WPEB_W0@Z 000000018002d090 f   * CIL library *:* CIL module *
 0001:0002de20       ?StartThreadWrapper@?A0x02d65cfe@leveldb@@YAIPEAX@Z 000000018002ee20 f   * CIL library *:* CIL module *
 0001:0002edc0       ?DeleteBlock@leveldb@@YAXPEAX0@Z 000000018002fdc0 f   * CIL library *:* CIL module *
 0001:0002edf0       ?DeleteCachedBlock@leveldb@@YAXAEBVSlice@1@PEAX@Z 000000018002fdf0 f   * CIL library *:* CIL module *
 0001:00031e00       ?DecodeEntry@leveldb@@YAPEBDPEBD0PEAI11@Z 0000000180032e00 f   * CIL library *:* CIL module *
 0001:00032a80       ?FindMatchLength@internal@snappy@@YAHPEBD00@Z 0000000180033a80 f   * CIL library *:* CIL module *
 0001:00032c50       ?IncrementalCopy@snappy@@YAXPEBDPEAD_J@Z 0000000180033c50 f   * CIL library *:* CIL module *
 0001:00032cc0       ?EmitLiteral@snappy@@YAPEADPEADPEBDH_N@Z 0000000180033cc0 f   * CIL library *:* CIL module *
 0001:00032db0       ?EmitCopyLessThan64@snappy@@YAPEADPEAD_KH@Z 0000000180033db0 f   * CIL library *:* CIL module *
 0001:00032eb0       ?EmitCopy@snappy@@YAPEADPEAD_KH@Z 0000000180033eb0 f   * CIL library *:* CIL module *
 0001:00033a50       ??$InternalUncompress@VSnappyArrayWriter@snappy@@@snappy@@YA_NPEAVSource@0@PEAVSnappyArrayWriter@0@@Z 0000000180034a50 f   * CIL library *:* CIL module *
 0001:00034430       $$000000                   0000000180035430     LIBCMT:amdsecgs.obj
 0001:00034460       $$000000                   0000000180035460     LIBCMT:memcpy.obj
 0001:00034550       MoveSmall                  0000000180035550     LIBCMT:memcpy.obj
 0001:00035318       swprintf                   0000000180036318 f   LIBCMT:wassert.obj
 0001:000359c4       __DllMainCRTStartup        00000001800369c4 f   LIBCMT:dllcrt0.obj
 0001:000363d4       _callthreadstartex         00000001800373d4 f   LIBCMT:threadex.obj
 0001:00036490       _threadstartex             0000000180037490 f   LIBCMT:threadex.obj
 0001:00036898       flsall                     0000000180037898 f   LIBCMT:fflush.obj
 0001:00036ba0       $$000000                   0000000180037ba0     LIBCMT:strlen.obj
 0001:000380ec       _initterm                  00000001800390ec f   LIBCMT:crt0dat.obj
 0001:000381a0       doexit                     00000001800391a0 f   LIBCMT:crt0dat.obj
 0001:000383a0       xtow_s                     00000001800393a0 f   LIBCMT:xtows.obj
 0001:000397cc       ?getSystemCP@@YAHH@Z       000000018003a7cc f   LIBCMT:mbctype.obj
 0001:0003984c       ?setSBCS@@YAXPEAUthreadmbcinfostruct@@@Z 000000018003a84c f   LIBCMT:mbctype.obj
 0001:000398dc       ?setSBUpLow@@YAXPEAUthreadmbcinfostruct@@@Z 000000018003a8dc f   LIBCMT:mbctype.obj
 0001:0003ac2c       parse_cmdline              000000018003bc2c f   LIBCMT:stdargv.obj
 0001:0003c3d0       write_char                 000000018003d3d0 f   LIBCMT:output.obj
 0001:0003c3d0       write_char                 000000018003d3d0 f   LIBCMT:output.obj
 0001:0003c418       write_multi_char           000000018003d418 f   LIBCMT:output.obj
 0001:0003c418       write_multi_char           000000018003d418 f   LIBCMT:output.obj
 0001:0003c46c       write_string               000000018003d46c f   LIBCMT:output.obj
 0001:0003c46c       write_string               000000018003d46c f   LIBCMT:output.obj
 0001:0003c500       $$000000                   000000018003d500     LIBCMT:memset.obj
 0001:0003c6a5       MsetTab                    000000018003d6a5     LIBCMT:memset.obj
 0001:0003cff0       $$000000                   000000018003dff0     LIBCMT:jmpuwind.obj
 0001:0003dedc       ?CatchIt@@YAXPEAUEHExceptionRecord@@PEA_KPEAU_CONTEXT@@PEAU_xDISPATCHER_CONTEXT@@PEBU_s_FuncInfo@@PEBU_s_HandlerType@@PEBU_s_CatchableType@@PEBU_s_TryBlockMapEntry@@H1EE@Z 000000018003eedc f   LIBCMT:frame.obj
 0001:0003dfa0       ?FindHandler@@YAXPEAUEHExceptionRecord@@PEA_KPEAU_CONTEXT@@PEAU_xDISPATCHER_CONTEXT@@PEBU_s_FuncInfo@@EH1@Z 000000018003efa0 f   LIBCMT:frame.obj
 0001:0003e454       ?FindHandlerForForeignException@@YAXPEAUEHExceptionRecord@@PEA_KPEAU_CONTEXT@@PEAU_xDISPATCHER_CONTEXT@@PEBU_s_FuncInfo@@HH1@Z 000000018003f454 f   LIBCMT:frame.obj
 0001:0003e6bc       ?IsInExceptionSpec@@YAEPEAUEHExceptionRecord@@PEBU_s_ESTypeList@@@Z 000000018003f6bc f   LIBCMT:frame.obj
 0001:0003f330       $$000000                   0000000180040330     LIBCMT:strcmp.obj
 0001:0003f868       _cftoe2_l                  0000000180040868 f   LIBCMT:cvt.obj
 0001:0003fb5c       _cftof2_l                  0000000180040b5c f   LIBCMT:cvt.obj
 0001:00040c00       write_char                 0000000180041c00 f   LIBCMT:woutput.obj
 0001:00040c38       write_multi_char           0000000180041c38 f   LIBCMT:woutput.obj
 0001:00040c8c       write_string               0000000180041c8c f   LIBCMT:woutput.obj
 0001:00041110       $$000000                   0000000180042110     LIBCMT:fpsr.obj
 0001:000416e4       ?__crtLCMapStringA_stat@@YAHPEAUlocaleinfo_struct@@PEB_WKPEBDHPEADHHH@Z 00000001800426e4 f   LIBCMT:a_map.obj
 0001:00041a68       ?__crtGetStringTypeA_stat@@YAHPEAUlocaleinfo_struct@@KPEBDHPEAGHH@Z 0000000180042a68 f   LIBCMT:a_str.obj
 0001:00041dd0       $$000000                   0000000180042dd0     LIBCMT:memcmp.obj
 0001:00041ea8       ?x_ismbbtype_l@@YAHPEAUlocaleinfo_struct@@IHH@Z 0000000180042ea8 f   LIBCMT:ismbbyte.obj
 0001:00043820       $$000000                   0000000180044820     LIBCMT:chkstk.obj
 0001:00043890       $$000000                   0000000180044890     LIBCMT:handlers.obj
 0001:00043f58       __createFile               0000000180044f58 f   LIBCMT:wopen.obj
 0001:00044800       $$000000                   0000000180045800     LIBCMT:strncmp.obj
 0001:00047b90       ?dtor$0@?0??New@?$Factory@VFunctionTemplate@v8@@@imp@Nan@@SA?AV?$Local@VFunctionTemplate@v8@@@v8@@P6AXAEBV?$FunctionCallbackInfo@VValue@v8@@@3@@ZV?$Local@VValue@v8@@@5@V?$Local@VSignature@v8@@@5@@Z@4HA 0000000180048b90 f   * CIL library *:* CIL module *
 0001:00047b9e       ?dtor$1@?0??New@?$Factory@VFunctionTemplate@v8@@@imp@Nan@@SA?AV?$Local@VFunctionTemplate@v8@@@v8@@P6AXAEBV?$FunctionCallbackInfo@VValue@v8@@@3@@ZV?$Local@VValue@v8@@@5@V?$Local@VSignature@v8@@@5@@Z@4HA 0000000180048b9e f   * CIL library *:* CIL module *
 0001:00047bb0       ?dtor$0@?0???1EscapableHandleScope@Nan@@QEAA@XZ@4HA 0000000180048bb0 f   * CIL library *:* CIL module *
 0001:00047bbe       ?dtor$1@?0???1EscapableHandleScope@Nan@@QEAA@XZ@4HA 0000000180048bbe f   * CIL library *:* CIL module *
 0001:00047bd0       ?dtor$0@?0???1HandleScope@Nan@@QEAA@XZ@4HA 0000000180048bd0 f   * CIL library *:* CIL module *
 0001:00047be0       ?dtor$2@?0???0Callback@Nan@@QEAA@AEBV?$Local@VFunction@v8@@@v8@@@Z@4HA 0000000180048be0 f   * CIL library *:* CIL module *
 0001:00047bec       ?dtor$0@?0???0Callback@Nan@@QEAA@AEBV?$Local@VFunction@v8@@@v8@@@Z@4HA 0000000180048bec f   * CIL library *:* CIL module *
 0001:00047bf8       ?dtor$3@?0???0Callback@Nan@@QEAA@AEBV?$Local@VFunction@v8@@@v8@@@Z@4HA 0000000180048bf8 f   * CIL library *:* CIL module *
 0001:00047c06       ?dtor$1@?0???0Callback@Nan@@QEAA@AEBV?$Local@VFunction@v8@@@v8@@@Z@4HA 0000000180048c06 f   * CIL library *:* CIL module *
 0001:00047c12       ?dtor$4@?0???0Callback@Nan@@QEAA@AEBV?$Local@VFunction@v8@@@v8@@@Z@4HA 0000000180048c12 f   * CIL library *:* CIL module *
 0001:00047c20       ?dtor$1@?0??HandleErrorCallback@AsyncWorker@Nan@@MEAAXXZ@4HA 0000000180048c20 f   * CIL library *:* CIL module *
 0001:00047c20       ?dtor$1@?0??BooleanOptionValue@leveldown@@YA_NV?$Local@VObject@v8@@@v8@@PEBD_N@Z@4HA 0000000180048c20 f   * CIL library *:* CIL module *
 0001:00047c20       ?dtor$1@?0??SaveToPersistent@AsyncWorker@Nan@@QEAAXPEBDAEBV?$Local@VValue@v8@@@v8@@@Z@4HA 0000000180048c20 f   * CIL library *:* CIL module *
 0001:00047c20       ?dtor$1@?0??SetFunction@Callback@Nan@@QEAAXAEBV?$Local@VFunction@v8@@@v8@@@Z@4HA 0000000180048c20 f   * CIL library *:* CIL module *
 0001:00047c20       ?dtor$1@?0??ThrowError@Nan@@YAXPEBD@Z@4HA 0000000180048c20 f   * CIL library *:* CIL module *
 0001:00047c2e       ?dtor$0@?0??SetFunction@Callback@Nan@@QEAAXAEBV?$Local@VFunction@v8@@@v8@@@Z@4HA 0000000180048c2e f   * CIL library *:* CIL module *
 0001:00047c2e       ?dtor$0@?0??SaveToPersistent@AsyncWorker@Nan@@QEAAXPEBDAEBV?$Local@VValue@v8@@@v8@@@Z@4HA 0000000180048c2e f   * CIL library *:* CIL module *
 0001:00047c2e       ?dtor$0@?0??BooleanOptionValue@leveldown@@YA_NV?$Local@VObject@v8@@@v8@@PEBD_N@Z@4HA 0000000180048c2e f   * CIL library *:* CIL module *
 0001:00047c2e       ?dtor$0@?0??HandleErrorCallback@AsyncWorker@Nan@@MEAAXXZ@4HA 0000000180048c2e f   * CIL library *:* CIL module *
 0001:00047c2e       ?dtor$0@?0??ThrowError@Nan@@YAXPEBD@Z@4HA 0000000180048c2e f   * CIL library *:* CIL module *
 0001:00047c3a       ?dtor$2@?0??ThrowError@Nan@@YAXPEBD@Z@4HA 0000000180048c3a f   * CIL library *:* CIL module *
 0001:00047c3a       ?dtor$2@?0??BooleanOptionValue@leveldown@@YA_NV?$Local@VObject@v8@@@v8@@PEBD_N@Z@4HA 0000000180048c3a f   * CIL library *:* CIL module *
 0001:00047c3a       ?dtor$2@?0??SaveToPersistent@AsyncWorker@Nan@@QEAAXPEBDAEBV?$Local@VValue@v8@@@v8@@@Z@4HA 0000000180048c3a f   * CIL library *:* CIL module *
 0001:00047c3a       ?dtor$2@?0??SetFunction@Callback@Nan@@QEAAXAEBV?$Local@VFunction@v8@@@v8@@@Z@4HA 0000000180048c3a f   * CIL library *:* CIL module *
 0001:00047c3a       ?dtor$3@?0??HandleErrorCallback@AsyncWorker@Nan@@MEAAXXZ@4HA 0000000180048c3a f   * CIL library *:* CIL module *
 0001:00047c50       ?dtor$0@?0???1?$Persistent@VObject@v8@@V?$NonCopyablePersistentTraits@VObject@v8@@@2@@Nan@@QEAA@XZ@4HA 0000000180048c50 f   * CIL library *:* CIL module *
 0001:00047c60       ?dtor$1@?0??UInt32OptionValue@leveldown@@YAIV?$Local@VObject@v8@@@v8@@PEBDI@Z@4HA 0000000180048c60 f   * CIL library *:* CIL module *
 0001:00047c60       ?dtor$1@?0??SetPrototypeMethod@Nan@@YAXV?$Local@VFunctionTemplate@v8@@@v8@@PEBDP6AXAEBV?$FunctionCallbackInfo@VValue@v8@@@1@@Z@Z@4HA 0000000180048c60 f   * CIL library *:* CIL module *
 0001:00047c6e       ?dtor$0@?0??UInt32OptionValue@leveldown@@YAIV?$Local@VObject@v8@@@v8@@PEBDI@Z@4HA 0000000180048c6e f   * CIL library *:* CIL module *
 0001:00047c6e       ?dtor$0@?0??SetPrototypeMethod@Nan@@YAXV?$Local@VFunctionTemplate@v8@@@v8@@PEBDP6AXAEBV?$FunctionCallbackInfo@VValue@v8@@@1@@Z@Z@4HA 0000000180048c6e f   * CIL library *:* CIL module *
 0001:00047c7a       ?dtor$2@?0??UInt32OptionValue@leveldown@@YAIV?$Local@VObject@v8@@@v8@@PEBDI@Z@4HA 0000000180048c7a f   * CIL library *:* CIL module *
 0001:00047c7a       ?dtor$2@?0??SetPrototypeMethod@Nan@@YAXV?$Local@VFunctionTemplate@v8@@@v8@@PEBDP6AXAEBV?$FunctionCallbackInfo@VValue@v8@@@1@@Z@Z@4HA 0000000180048c7a f   * CIL library *:* CIL module *
 0001:00047c90       ?dtor$0@?0???1ObjectWrap@Nan@@UEAA@XZ@4HA 0000000180048c90 f   * CIL library *:* CIL module *
 0001:00047ca0       ?dtor$1@?0???1ObjectWrap@Nan@@UEAA@XZ@4HA 0000000180048ca0 f   * CIL library *:* CIL module *
 0001:00047cb0       ?dtor$0@?0???__Fbatch_constructor@leveldown@@YAXXZ@4HA 0000000180048cb0 f   * CIL library *:* CIL module *
 0001:00047cb0       ?dtor$0@?0???__Ebatch_constructor@leveldown@@YAXXZ@4HA 0000000180048cb0 f   * CIL library *:* CIL module *
 0001:00047cc0       ?dtor$4@?0???0Batch@leveldown@@QEAA@PEAVDatabase@1@_N@Z@4HA 0000000180048cc0 f   * CIL library *:* CIL module *
 0001:00047ccc       ?dtor$3@?0???0Batch@leveldown@@QEAA@PEAVDatabase@1@_N@Z@4HA 0000000180048ccc f   * CIL library *:* CIL module *
 0001:00047cdc       ?dtor$0@?0???0Batch@leveldown@@QEAA@PEAVDatabase@1@_N@Z@4HA 0000000180048cdc f   * CIL library *:* CIL module *
 0001:00047ce8       ?dtor$1@?0???0Batch@leveldown@@QEAA@PEAVDatabase@1@_N@Z@4HA 0000000180048ce8 f   * CIL library *:* CIL module *
 0001:00047cf4       ?dtor$2@?0???0Batch@leveldown@@QEAA@PEAVDatabase@1@_N@Z@4HA 0000000180048cf4 f   * CIL library *:* CIL module *
 0001:00047d00       ?dtor$0@?0???1Batch@leveldown@@UEAA@XZ@4HA 0000000180048d00 f   * CIL library *:* CIL module *
 0001:00047d0c       ?dtor$1@?0???1Batch@leveldown@@UEAA@XZ@4HA 0000000180048d0c f   * CIL library *:* CIL module *
 0001:00047d20       ?dtor$0@?0??status@TableBuilder@leveldb@@QEBA?AVStatus@2@XZ@4HA 0000000180048d20 f   * CIL library *:* CIL module *
 0001:00047d20       ?dtor$0@?0??Skip@WinSequentialFile@leveldb@@UEAA?AVStatus@2@_K@Z@4HA 0000000180048d20 f   * CIL library *:* CIL module *
 0001:00047d20       ?dtor$0@?0??Sync@WinWritableFile@leveldb@@UEAA?AVStatus@2@XZ@4HA 0000000180048d20 f   * CIL library *:* CIL module *
 0001:00047d20       ?dtor$0@?0??status@IteratorWrapper@leveldb@@QEBA?AVStatus@2@XZ@4HA 0000000180048d20 f   * CIL library *:* CIL module *
 0001:00047d20       ?dtor$0@?0??Write@Batch@leveldown@@QEAA?AVStatus@leveldb@@XZ@4HA 0000000180048d20 f   * CIL library *:* CIL module *
 0001:00047d20       ?dtor$0@?0??status@LevelFileNumIterator@Version@leveldb@@UEBA?AVStatus@3@XZ@4HA 0000000180048d20 f   * CIL library *:* CIL module *
 0001:00047d20       ?dtor$0@?0??IteratorStatus@Iterator@leveldown@@QEAA?AVStatus@leveldb@@XZ@4HA 0000000180048d20 f   * CIL library *:* CIL module *
 0001:00047d20       ?dtor$0@?0??DeleteFromDatabase@Database@leveldown@@QEAA?AVStatus@leveldb@@PEAUWriteOptions@4@VSlice@4@@Z@4HA 0000000180048d20 f   * CIL library *:* CIL module *
 0001:00047d20       ?dtor$0@?0??Delete@DBImpl@leveldb@@UEAA?AVStatus@2@AEBUWriteOptions@2@AEBVSlice@2@@Z@4HA 0000000180048d20 f   * CIL library *:* CIL module *
 0001:00047d20       ?dtor$0@?0??Flush@WinWritableFile@leveldb@@UEAA?AVStatus@2@XZ@4HA 0000000180048d20 f   * CIL library *:* CIL module *
 0001:00047d20       ?dtor$0@?0??status@MemTableIterator@leveldb@@UEBA?AVStatus@2@XZ@4HA 0000000180048d20 f   * CIL library *:* CIL module *
 0001:00047d20       ?dtor$0@?0??status@DBIter@?A0xe8051e8b@leveldb@@UEBA?AVStatus@3@XZ@4HA 0000000180048d20 f   * CIL library *:* CIL module *
 0001:00047d20       ?dtor$0@?0??status@EmptyIterator@?A0xa6d30bd7@leveldb@@UEBA?AVStatus@3@XZ@4HA 0000000180048d20 f   * CIL library *:* CIL module *
 0001:00047d20       ?dtor$0@?0??WriteBatchToDatabase@Database@leveldown@@QEAA?AVStatus@leveldb@@PEAUWriteOptions@4@PEAVWriteBatch@4@@Z@4HA 0000000180048d20 f   * CIL library *:* CIL module *
 0001:00047d20       ?dtor$0@?0??status@Iter@Block@leveldb@@UEBA?AVStatus@3@XZ@4HA 0000000180048d20 f   * CIL library *:* CIL module *
 0001:00047d50       ?dtor$0@?0??NewMergingIterator@leveldb@@YAPEAVIterator@1@PEBVComparator@1@PEAPEAV21@H@Z@4HA 0000000180048d50 f   * CIL library *:* CIL module *
 0001:00047d50       ?dtor$0@?0??New@Batch@leveldown@@CAXAEBV?$FunctionCallbackInfo@VValue@v8@@@Nan@@@Z@4HA 0000000180048d50 f   * CIL library *:* CIL module *
 0001:00047d60       ?dtor$1@?0??NewInstance@Batch@leveldown@@SA?AV?$Local@VValue@v8@@@v8@@V?$Local@VObject@v8@@@4@0@Z@4HA 0000000180048d60 f   * CIL library *:* CIL module *
 0001:00047d6e       ?dtor$0@?0??NewInstance@Batch@leveldown@@SA?AV?$Local@VValue@v8@@@v8@@V?$Local@VObject@v8@@@4@0@Z@4HA 0000000180048d6e f   * CIL library *:* CIL module *
 0001:00047d7a       ?dtor$2@?0??NewInstance@Batch@leveldown@@SA?AV?$Local@VValue@v8@@@v8@@V?$Local@VObject@v8@@@4@0@Z@4HA 0000000180048d7a f   * CIL library *:* CIL module *
 0001:00047d88       ?dtor$3@?0??NewInstance@Batch@leveldown@@SA?AV?$Local@VValue@v8@@@v8@@V?$Local@VObject@v8@@@4@0@Z@4HA 0000000180048d88 f   * CIL library *:* CIL module *
 0001:00047da0       ?dtor$0@?0??Write@Batch@leveldown@@CAXAEBV?$FunctionCallbackInfo@VValue@v8@@@Nan@@@Z@4HA 0000000180048da0 f   * CIL library *:* CIL module *
 0001:00047dac       ?dtor$1@?0??Write@Batch@leveldown@@CAXAEBV?$FunctionCallbackInfo@VValue@v8@@@Nan@@@Z@4HA 0000000180048dac f   * CIL library *:* CIL module *
 0001:00047db8       ?dtor$3@?0??Write@Batch@leveldown@@CAXAEBV?$FunctionCallbackInfo@VValue@v8@@@Nan@@@Z@4HA 0000000180048db8 f   * CIL library *:* CIL module *
 0001:00047dc4       ?dtor$4@?0??Write@Batch@leveldown@@CAXAEBV?$FunctionCallbackInfo@VValue@v8@@@Nan@@@Z@4HA 0000000180048dc4 f   * CIL library *:* CIL module *
 0001:00047dd7       ?dtor$2@?0??Write@Batch@leveldown@@CAXAEBV?$FunctionCallbackInfo@VValue@v8@@@Nan@@@Z@4HA 0000000180048dd7 f   * CIL library *:* CIL module *
 0001:00047de3       ?dtor$6@?0??Write@Batch@leveldown@@CAXAEBV?$FunctionCallbackInfo@VValue@v8@@@Nan@@@Z@4HA 0000000180048de3 f   * CIL library *:* CIL module *
 0001:00047df1       ?dtor$5@?0??Write@Batch@leveldown@@CAXAEBV?$FunctionCallbackInfo@VValue@v8@@@Nan@@@Z@4HA 0000000180048df1 f   * CIL library *:* CIL module *
 0001:00047dfd       ?dtor$7@?0??Write@Batch@leveldown@@CAXAEBV?$FunctionCallbackInfo@VValue@v8@@@Nan@@@Z@4HA 0000000180048dfd f   * CIL library *:* CIL module *
 0001:00047e10       ?dtor$0@?0??_Copy@?$basic_string@DU?$char_traits@D@std@@V?$allocator@D@2@@std@@QEAAX_K0@Z@4HA 0000000180048e10 f   * CIL library *:* CIL module *
 0001:00047e30       ?dtor$1@?0??Call_@Callback@Nan@@AEBA?AV?$Local@VValue@v8@@@v8@@PEAVIsolate@4@V?$Local@VObject@v8@@@4@HQEAV34@@Z@4HA 0000000180048e30 f   * CIL library *:* CIL module *
 0001:00047e3e       ?dtor$0@?0??Call_@Callback@Nan@@AEBA?AV?$Local@VValue@v8@@@v8@@PEAVIsolate@4@V?$Local@VObject@v8@@@4@HQEAV34@@Z@4HA 0000000180048e3e f   * CIL library *:* CIL module *
 0001:00047e4a       ?dtor$2@?0??Call_@Callback@Nan@@AEBA?AV?$Local@VValue@v8@@@v8@@PEAVIsolate@4@V?$Local@VObject@v8@@@4@HQEAV34@@Z@4HA 0000000180048e4a f   * CIL library *:* CIL module *
 0001:00047e58       ?dtor$3@?0??Call_@Callback@Nan@@AEBA?AV?$Local@VValue@v8@@@v8@@PEAVIsolate@4@V?$Local@VObject@v8@@@4@HQEAV34@@Z@4HA 0000000180048e58 f   * CIL library *:* CIL module *
 0001:00047e70       ?dtor$2@?0???0AsyncWorker@Nan@@QEAA@PEAVCallback@1@@Z@4HA 0000000180048e70 f   * CIL library *:* CIL module *
 0001:00047e7c       ?dtor$0@?0???0AsyncWorker@Nan@@QEAA@PEAVCallback@1@@Z@4HA 0000000180048e7c f   * CIL library *:* CIL module *
 0001:00047e8f       ?dtor$3@?0???0AsyncWorker@Nan@@QEAA@PEAVCallback@1@@Z@4HA 0000000180048e8f f   * CIL library *:* CIL module *
 0001:00047e9d       ?dtor$1@?0???0AsyncWorker@Nan@@QEAA@PEAVCallback@1@@Z@4HA 0000000180048e9d f   * CIL library *:* CIL module *
 0001:00047ea9       ?dtor$4@?0???0AsyncWorker@Nan@@QEAA@PEAVCallback@1@@Z@4HA 0000000180048ea9 f   * CIL library *:* CIL module *
 0001:00047ec0       ?dtor$0@?0???1AsyncWorker@Nan@@UEAA@XZ@4HA 0000000180048ec0 f   * CIL library *:* CIL module *
 0001:00047ed3       ?dtor$2@?0???1AsyncWorker@Nan@@UEAA@XZ@4HA 0000000180048ed3 f   * CIL library *:* CIL module *
 0001:00047ee1       ?dtor$1@?0???1AsyncWorker@Nan@@UEAA@XZ@4HA 0000000180048ee1 f   * CIL library *:* CIL module *
 0001:00047eed       ?dtor$3@?0???1AsyncWorker@Nan@@UEAA@XZ@4HA 0000000180048eed f   * CIL library *:* CIL module *
 0001:00047ef9       ?dtor$4@?0???1AsyncWorker@Nan@@UEAA@XZ@4HA 0000000180048ef9 f   * CIL library *:* CIL module *
 0001:00047f05       ?dtor$5@?0???1AsyncWorker@Nan@@UEAA@XZ@4HA 0000000180048f05 f   * CIL library *:* CIL module *
 0001:00047f13       ?dtor$6@?0???1AsyncWorker@Nan@@UEAA@XZ@4HA 0000000180048f13 f   * CIL library *:* CIL module *
 0001:00047f20       ?dtor$1@?0??WorkComplete@CloseWorker@leveldown@@UEAAXXZ@4HA 0000000180048f20 f   * CIL library *:* CIL module *
 0001:00047f20       ?dtor$1@?0??WorkComplete@AsyncWorker@Nan@@UEAAXXZ@4HA 0000000180048f20 f   * CIL library *:* CIL module *
 0001:00047f2e       ?dtor$0@?0??WorkComplete@AsyncWorker@Nan@@UEAAXXZ@4HA 0000000180048f2e f   * CIL library *:* CIL module *
 0001:00047f2e       ?dtor$0@?0??WorkComplete@CloseWorker@leveldown@@UEAAXXZ@4HA 0000000180048f2e f   * CIL library *:* CIL module *
 0001:00047f3a       ?dtor$2@?0??WorkComplete@CloseWorker@leveldown@@UEAAXXZ@4HA 0000000180048f3a f   * CIL library *:* CIL module *
 0001:00047f3a       ?dtor$2@?0??WorkComplete@AsyncWorker@Nan@@UEAAXXZ@4HA 0000000180048f3a f   * CIL library *:* CIL module *
 0001:00047f46       ?dtor$3@?0??WorkComplete@AsyncWorker@Nan@@UEAAXXZ@4HA 0000000180048f46 f   * CIL library *:* CIL module *
 0001:00047f46       ?dtor$3@?0??WorkComplete@CloseWorker@leveldown@@UEAAXXZ@4HA 0000000180048f46 f   * CIL library *:* CIL module *
 0001:00047f52       ?dtor$4@?0??WorkComplete@CloseWorker@leveldown@@UEAAXXZ@4HA 0000000180048f52 f   * CIL library *:* CIL module *
 0001:00047f52       ?dtor$4@?0??WorkComplete@AsyncWorker@Nan@@UEAAXXZ@4HA 0000000180048f52 f   * CIL library *:* CIL module *
 0001:00047f60       ?dtor$0@?0??SetStatus@AsyncWorker@leveldown@@IEAAXVStatus@leveldb@@@Z@4HA 0000000180048f60 f   * CIL library *:* CIL module *
 0001:00047f6c       ?dtor$1@?0??SetStatus@AsyncWorker@leveldown@@IEAAXVStatus@leveldb@@@Z@4HA 0000000180048f6c f   * CIL library *:* CIL module *
 0001:00047f80       ?dtor$0@?0???1AsyncWorker@leveldown@@UEAA@XZ@4HA 0000000180048f80 f   * CIL library *:* CIL module *
 0001:00047f80       ?dtor$0@?0???_GAsyncWorker@leveldown@@UEAAPEAXI@Z@4HA 0000000180048f80 f   * CIL library *:* CIL module *
 0001:00047f8c       ?dtor$1@?0???1AsyncWorker@leveldown@@UEAA@XZ@4HA 0000000180048f8c f   * CIL library *:* CIL module *
 0001:00047f8c       ?dtor$1@?0???_GAsyncWorker@leveldown@@UEAAPEAXI@Z@4HA 0000000180048f8c f   * CIL library *:* CIL module *
 0001:00047fa0       ?dtor$0@?0???1RepairWorker@leveldown@@UEAA@XZ@4HA 0000000180048fa0 f   * CIL library *:* CIL module *
 0001:00047fa0       ?dtor$0@?0???1IOWorker@leveldown@@UEAA@XZ@4HA 0000000180048fa0 f   * CIL library *:* CIL module *
 0001:00047fa0       ?dtor$0@?0???1DestroyWorker@leveldown@@UEAA@XZ@4HA 0000000180048fa0 f   * CIL library *:* CIL module *
 0001:00047fa0       ?dtor$0@?0???_GApproximateSizeWorker@leveldown@@UEAAPEAXI@Z@4HA 0000000180048fa0 f   * CIL library *:* CIL module *
 0001:00047fa0       ?dtor$0@?0???_GOpenWorker@leveldown@@UEAAPEAXI@Z@4HA 0000000180048fa0 f   * CIL library *:* CIL module *
 0001:00047fa0       ?dtor$0@?0???_GIOWorker@leveldown@@UEAAPEAXI@Z@4HA 0000000180048fa0 f   * CIL library *:* CIL module *
 0001:00047fa0       ?dtor$0@?0???_GCloseWorker@leveldown@@UEAAPEAXI@Z@4HA 0000000180048fa0 f   * CIL library *:* CIL module *
 0001:00047fa0       ?dtor$0@?0???_GBatchWriteWorker@leveldown@@UEAAPEAXI@Z@4HA 0000000180048fa0 f   * CIL library *:* CIL module *
 0001:00047fa0       ?dtor$0@?0???_GEndWorker@leveldown@@UEAAPEAXI@Z@4HA 0000000180048fa0 f   * CIL library *:* CIL module *
 0001:00047fac       ?dtor$1@?0???_GOpenWorker@leveldown@@UEAAPEAXI@Z@4HA 0000000180048fac f   * CIL library *:* CIL module *
 0001:00047fac       ?dtor$1@?0???_GIOWorker@leveldown@@UEAAPEAXI@Z@4HA 0000000180048fac f   * CIL library *:* CIL module *
 0001:00047fac       ?dtor$1@?0???1RepairWorker@leveldown@@UEAA@XZ@4HA 0000000180048fac f   * CIL library *:* CIL module *
 0001:00047fac       ?dtor$1@?0???_GCloseWorker@leveldown@@UEAAPEAXI@Z@4HA 0000000180048fac f   * CIL library *:* CIL module *
 0001:00047fac       ?dtor$1@?0???_GBatchWriteWorker@leveldown@@UEAAPEAXI@Z@4HA 0000000180048fac f   * CIL library *:* CIL module *
 0001:00047fac       ?dtor$1@?0???_GApproximateSizeWorker@leveldown@@UEAAPEAXI@Z@4HA 0000000180048fac f   * CIL library *:* CIL module *
 0001:00047fac       ?dtor$1@?0???1DestroyWorker@leveldown@@UEAA@XZ@4HA 0000000180048fac f   * CIL library *:* CIL module *
 0001:00047fac       ?dtor$1@?0???1IOWorker@leveldown@@UEAA@XZ@4HA 0000000180048fac f   * CIL library *:* CIL module *
 0001:00047fac       ?dtor$1@?0???_GEndWorker@leveldown@@UEAAPEAXI@Z@4HA 0000000180048fac f   * CIL library *:* CIL module *
 0001:00047fb8       ?dtor$2@?0???_GCloseWorker@leveldown@@UEAAPEAXI@Z@4HA 0000000180048fb8 f   * CIL library *:* CIL module *
 0001:00047fb8       ?dtor$2@?0???_GIOWorker@leveldown@@UEAAPEAXI@Z@4HA 0000000180048fb8 f   * CIL library *:* CIL module *
 0001:00047fb8       ?dtor$2@?0???_GEndWorker@leveldown@@UEAAPEAXI@Z@4HA 0000000180048fb8 f   * CIL library *:* CIL module *
 0001:00047fb8       ?dtor$2@?0???_GOpenWorker@leveldown@@UEAAPEAXI@Z@4HA 0000000180048fb8 f   * CIL library *:* CIL module *
 0001:00047fb8       ?dtor$2@?0???1IOWorker@leveldown@@UEAA@XZ@4HA 0000000180048fb8 f   * CIL library *:* CIL module *
 0001:00047fb8       ?dtor$2@?0???_GBatchWriteWorker@leveldown@@UEAAPEAXI@Z@4HA 0000000180048fb8 f   * CIL library *:* CIL module *
 0001:00047fb8       ?dtor$2@?0???1DestroyWorker@leveldown@@UEAA@XZ@4HA 0000000180048fb8 f   * CIL library *:* CIL module *
 0001:00047fb8       ?dtor$2@?0???_GApproximateSizeWorker@leveldown@@UEAAPEAXI@Z@4HA 0000000180048fb8 f   * CIL library *:* CIL module *
 0001:00047fb8       ?dtor$2@?0???1RepairWorker@leveldown@@UEAA@XZ@4HA 0000000180048fb8 f   * CIL library *:* CIL module *
 0001:00047fd0       ?dtor$0@?0??Execute@NextWorker@leveldown@@UEAAXXZ@4HA 0000000180048fd0 f   * CIL library *:* CIL module *
 0001:00047fd0       ?dtor$0@?0??Execute@BatchWorker@leveldown@@UEAAXXZ@4HA 0000000180048fd0 f   * CIL library *:* CIL module *
 0001:00047fd0       ?dtor$0@?0??Execute@OpenWorker@leveldown@@UEAAXXZ@4HA 0000000180048fd0 f   * CIL library *:* CIL module *
 0001:00047fd0       ?dtor$0@?0??Execute@BatchWriteWorker@leveldown@@UEAAXXZ@4HA 0000000180048fd0 f   * CIL library *:* CIL module *
 0001:00047fe0       ?dtor$0@?0???__Edatabase_constructor@leveldown@@YAXXZ@4HA 0000000180048fe0 f   * CIL library *:* CIL module *
 0001:00047fe0       ?dtor$0@?0???__Fdatabase_constructor@leveldown@@YAXXZ@4HA 0000000180048fe0 f   * CIL library *:* CIL module *
 0001:00047ff0       ?dtor$0@?0???1?$map@IPEAVIterator@leveldown@@U?$less@I@std@@V?$allocator@U?$pair@$$CBIPEAVIterator@leveldown@@@std@@@4@@std@@QEAA@XZ@4HA 0000000180048ff0 f   * CIL library *:* CIL module *
 0001:00047ff0       ?dtor$0@?0???1?$set@_KU?$less@_K@std@@V?$allocator@_K@2@@std@@QEAA@XZ@4HA 0000000180048ff0 f   * CIL library *:* CIL module *
 0001:00047ffc       ?dtor$1@?0???1?$map@IPEAVIterator@leveldown@@U?$less@I@std@@V?$allocator@U?$pair@$$CBIPEAVIterator@leveldown@@@std@@@4@@std@@QEAA@XZ@4HA 0000000180048ffc f   * CIL library *:* CIL module *
 0001:00047ffc       ?dtor$1@?0???1?$set@_KU?$less@_K@std@@V?$allocator@_K@2@@std@@QEAA@XZ@4HA 0000000180048ffc f   * CIL library *:* CIL module *
 0001:00048008       ?dtor$2@?0???1?$map@IPEAVIterator@leveldown@@U?$less@I@std@@V?$allocator@U?$pair@$$CBIPEAVIterator@leveldown@@@std@@@4@@std@@QEAA@XZ@4HA 0000000180049008 f   * CIL library *:* CIL module *
 0001:00048008       ?dtor$2@?0???1?$set@_KU?$less@_K@std@@V?$allocator@_K@2@@std@@QEAA@XZ@4HA 0000000180049008 f   * CIL library *:* CIL module *
 0001:00048014       ?dtor$3@?0???1?$set@_KU?$less@_K@std@@V?$allocator@_K@2@@std@@QEAA@XZ@4HA 0000000180049014 f   * CIL library *:* CIL module *
 0001:00048014       ?dtor$3@?0???1?$map@IPEAVIterator@leveldown@@U?$less@I@std@@V?$allocator@U?$pair@$$CBIPEAVIterator@leveldown@@@std@@@4@@std@@QEAA@XZ@4HA 0000000180049014 f   * CIL library *:* CIL module *
 0001:00048020       ?dtor$0@?0???1Database@leveldown@@UEAA@XZ@4HA 0000000180049020 f   * CIL library *:* CIL module *
 0001:0004802c       ?dtor$1@?0???1Database@leveldown@@UEAA@XZ@4HA 000000018004902c f   * CIL library *:* CIL module *
 0001:0004803c       ?dtor$2@?0???1Database@leveldown@@UEAA@XZ@4HA 000000018004903c f   * CIL library *:* CIL module *
 0001:00048048       ?dtor$3@?0???1Database@leveldown@@UEAA@XZ@4HA 0000000180049048 f   * CIL library *:* CIL module *
 0001:00048054       ?dtor$4@?0???1Database@leveldown@@UEAA@XZ@4HA 0000000180049054 f   * CIL library *:* CIL module *
 0001:00048060       ?dtor$5@?0???1Database@leveldown@@UEAA@XZ@4HA 0000000180049060 f   * CIL library *:* CIL module *
 0001:00048070       ?dtor$0@?0??OpenDatabase@Database@leveldown@@QEAA?AVStatus@leveldb@@PEAUOptions@4@@Z@4HA 0000000180049070 f   * CIL library *:* CIL module *
 0001:0004807c       ?dtor$1@?0??OpenDatabase@Database@leveldown@@QEAA?AVStatus@leveldb@@PEAUOptions@4@@Z@4HA 000000018004907c f   * CIL library *:* CIL module *
 0001:000480b0       ?dtor$0@?0??GetFromDatabase@Database@leveldown@@QEAA?AVStatus@leveldb@@PEAUReadOptions@4@VSlice@4@AEAV?$basic_string@DU?$char_traits@D@std@@V?$allocator@D@2@@std@@@Z@4HA 00000001800490b0 f   * CIL library *:* CIL module *
 0001:000480b0       ?dtor$0@?0??PutToDatabase@Database@leveldown@@QEAA?AVStatus@leveldb@@PEAUWriteOptions@4@VSlice@4@1@Z@4HA 00000001800490b0 f   * CIL library *:* CIL module *
 0001:000480b0       ?dtor$0@?0??Put@DBImpl@leveldb@@UEAA?AVStatus@2@AEBUWriteOptions@2@AEBVSlice@2@1@Z@4HA 00000001800490b0 f   * CIL library *:* CIL module *
 0001:000480e0       ?dtor$0@?0??New@Database@leveldown@@CAXAEBV?$FunctionCallbackInfo@VValue@v8@@@Nan@@@Z@4HA 00000001800490e0 f   * CIL library *:* CIL module *
 0001:000480ec       ?dtor$5@?0??New@Database@leveldown@@CAXAEBV?$FunctionCallbackInfo@VValue@v8@@@Nan@@@Z@4HA 00000001800490ec f   * CIL library *:* CIL module *
 0001:000480f8       ?dtor$4@?0??New@Database@leveldown@@CAXAEBV?$FunctionCallbackInfo@VValue@v8@@@Nan@@@Z@4HA 00000001800490f8 f   * CIL library *:* CIL module *
 0001:00048108       ?dtor$1@?0??New@Database@leveldown@@CAXAEBV?$FunctionCallbackInfo@VValue@v8@@@Nan@@@Z@4HA 0000000180049108 f   * CIL library *:* CIL module *
 0001:00048114       ?dtor$2@?0??New@Database@leveldown@@CAXAEBV?$FunctionCallbackInfo@VValue@v8@@@Nan@@@Z@4HA 0000000180049114 f   * CIL library *:* CIL module *
 0001:00048120       ?dtor$3@?0??New@Database@leveldown@@CAXAEBV?$FunctionCallbackInfo@VValue@v8@@@Nan@@@Z@4HA 0000000180049120 f   * CIL library *:* CIL module *
 0001:00048130       ?dtor$1@?0??NewInstance@Database@leveldown@@SA?AV?$Local@VValue@v8@@@v8@@AEAV?$Local@VString@v8@@@4@@Z@4HA 0000000180049130 f   * CIL library *:* CIL module *
 0001:0004813e       ?dtor$0@?0??NewInstance@Database@leveldown@@SA?AV?$Local@VValue@v8@@@v8@@AEAV?$Local@VString@v8@@@4@@Z@4HA 000000018004913e f   * CIL library *:* CIL module *
 0001:0004814a       ?dtor$2@?0??NewInstance@Database@leveldown@@SA?AV?$Local@VValue@v8@@@v8@@AEAV?$Local@VString@v8@@@4@@Z@4HA 000000018004914a f   * CIL library *:* CIL module *
 0001:00048158       ?dtor$3@?0??NewInstance@Database@leveldown@@SA?AV?$Local@VValue@v8@@@v8@@AEAV?$Local@VString@v8@@@4@@Z@4HA 0000000180049158 f   * CIL library *:* CIL module *
 0001:00048170       ?dtor$2@?0??Open@Database@leveldown@@CAXAEBV?$FunctionCallbackInfo@VValue@v8@@@Nan@@@Z@4HA 0000000180049170 f   * CIL library *:* CIL module *
 0001:0004817c       ?dtor$0@?0??Open@Database@leveldown@@CAXAEBV?$FunctionCallbackInfo@VValue@v8@@@Nan@@@Z@4HA 000000018004917c f   * CIL library *:* CIL module *
 0001:00048188       ?dtor$1@?0??Open@Database@leveldown@@CAXAEBV?$FunctionCallbackInfo@VValue@v8@@@Nan@@@Z@4HA 0000000180049188 f   * CIL library *:* CIL module *
 0001:00048194       ?dtor$4@?0??Open@Database@leveldown@@CAXAEBV?$FunctionCallbackInfo@VValue@v8@@@Nan@@@Z@4HA 0000000180049194 f   * CIL library *:* CIL module *
 0001:000481a2       ?dtor$3@?0??Open@Database@leveldown@@CAXAEBV?$FunctionCallbackInfo@VValue@v8@@@Nan@@@Z@4HA 00000001800491a2 f   * CIL library *:* CIL module *
 0001:000481ae       ?dtor$5@?0??Open@Database@leveldown@@CAXAEBV?$FunctionCallbackInfo@VValue@v8@@@Nan@@@Z@4HA 00000001800491ae f   * CIL library *:* CIL module *
 0001:000481c0       ?dtor$0@?0??Close@Database@leveldown@@CAXAEBV?$FunctionCallbackInfo@VValue@v8@@@Nan@@@Z@4HA 00000001800491c0 f   * CIL library *:* CIL module *
 0001:000481cc       ?dtor$1@?0??Close@Database@leveldown@@CAXAEBV?$FunctionCallbackInfo@VValue@v8@@@Nan@@@Z@4HA 00000001800491cc f   * CIL library *:* CIL module *
 0001:000481d8       ?dtor$3@?0??Close@Database@leveldown@@CAXAEBV?$FunctionCallbackInfo@VValue@v8@@@Nan@@@Z@4HA 00000001800491d8 f   * CIL library *:* CIL module *
 0001:000481e4       ?dtor$4@?0??Close@Database@leveldown@@CAXAEBV?$FunctionCallbackInfo@VValue@v8@@@Nan@@@Z@4HA 00000001800491e4 f   * CIL library *:* CIL module *
 0001:000481f7       ?dtor$2@?0??Close@Database@leveldown@@CAXAEBV?$FunctionCallbackInfo@VValue@v8@@@Nan@@@Z@4HA 00000001800491f7 f   * CIL library *:* CIL module *
 0001:00048203       ?dtor$6@?0??Close@Database@leveldown@@CAXAEBV?$FunctionCallbackInfo@VValue@v8@@@Nan@@@Z@4HA 0000000180049203 f   * CIL library *:* CIL module *
 0001:00048211       ?dtor$5@?0??Close@Database@leveldown@@CAXAEBV?$FunctionCallbackInfo@VValue@v8@@@Nan@@@Z@4HA 0000000180049211 f   * CIL library *:* CIL module *
 0001:0004821d       ?dtor$7@?0??Close@Database@leveldown@@CAXAEBV?$FunctionCallbackInfo@VValue@v8@@@Nan@@@Z@4HA 000000018004921d f   * CIL library *:* CIL module *
 0001:00048230       ?dtor$0@?0??Put@Database@leveldown@@CAXAEBV?$FunctionCallbackInfo@VValue@v8@@@Nan@@@Z@4HA 0000000180049230 f   * CIL library *:* CIL module *
 0001:0004823c       ?dtor$1@?0??Put@Database@leveldown@@CAXAEBV?$FunctionCallbackInfo@VValue@v8@@@Nan@@@Z@4HA 000000018004923c f   * CIL library *:* CIL module *
 0001:00048248       ?dtor$2@?0??Put@Database@leveldown@@CAXAEBV?$FunctionCallbackInfo@VValue@v8@@@Nan@@@Z@4HA 0000000180049248 f   * CIL library *:* CIL module *
 0001:00048254       ?dtor$4@?0??Put@Database@leveldown@@CAXAEBV?$FunctionCallbackInfo@VValue@v8@@@Nan@@@Z@4HA 0000000180049254 f   * CIL library *:* CIL module *
 0001:00048262       ?dtor$3@?0??Put@Database@leveldown@@CAXAEBV?$FunctionCallbackInfo@VValue@v8@@@Nan@@@Z@4HA 0000000180049262 f   * CIL library *:* CIL module *
 0001:0004826e       ?dtor$6@?0??Put@Database@leveldown@@CAXAEBV?$FunctionCallbackInfo@VValue@v8@@@Nan@@@Z@4HA 000000018004926e f   * CIL library *:* CIL module *
 0001:0004827c       ?dtor$5@?0??Put@Database@leveldown@@CAXAEBV?$FunctionCallbackInfo@VValue@v8@@@Nan@@@Z@4HA 000000018004927c f   * CIL library *:* CIL module *
 0001:00048288       ?dtor$7@?0??Put@Database@leveldown@@CAXAEBV?$FunctionCallbackInfo@VValue@v8@@@Nan@@@Z@4HA 0000000180049288 f   * CIL library *:* CIL module *
 0001:00048296       ?dtor$8@?0??Put@Database@leveldown@@CAXAEBV?$FunctionCallbackInfo@VValue@v8@@@Nan@@@Z@4HA 0000000180049296 f   * CIL library *:* CIL module *
 0001:000482a4       ?dtor$10@?0??Put@Database@leveldown@@CAXAEBV?$FunctionCallbackInfo@VValue@v8@@@Nan@@@Z@4HA 00000001800492a4 f   * CIL library *:* CIL module *
 0001:000482b2       ?dtor$9@?0??Put@Database@leveldown@@CAXAEBV?$FunctionCallbackInfo@VValue@v8@@@Nan@@@Z@4HA 00000001800492b2 f   * CIL library *:* CIL module *
 0001:000482be       ?dtor$11@?0??Put@Database@leveldown@@CAXAEBV?$FunctionCallbackInfo@VValue@v8@@@Nan@@@Z@4HA 00000001800492be f   * CIL library *:* CIL module *
 0001:000482d0       ?dtor$0@?0??Get@Database@leveldown@@CAXAEBV?$FunctionCallbackInfo@VValue@v8@@@Nan@@@Z@4HA 00000001800492d0 f   * CIL library *:* CIL module *
 0001:000482dc       ?dtor$1@?0??Get@Database@leveldown@@CAXAEBV?$FunctionCallbackInfo@VValue@v8@@@Nan@@@Z@4HA 00000001800492dc f   * CIL library *:* CIL module *
 0001:000482e8       ?dtor$3@?0??Get@Database@leveldown@@CAXAEBV?$FunctionCallbackInfo@VValue@v8@@@Nan@@@Z@4HA 00000001800492e8 f   * CIL library *:* CIL module *
 0001:000482f6       ?dtor$2@?0??Get@Database@leveldown@@CAXAEBV?$FunctionCallbackInfo@VValue@v8@@@Nan@@@Z@4HA 00000001800492f6 f   * CIL library *:* CIL module *
 0001:00048302       ?dtor$4@?0??Get@Database@leveldown@@CAXAEBV?$FunctionCallbackInfo@VValue@v8@@@Nan@@@Z@4HA 0000000180049302 f   * CIL library *:* CIL module *
 0001:00048310       ?dtor$0@?0??Delete@Database@leveldown@@CAXAEBV?$FunctionCallbackInfo@VValue@v8@@@Nan@@@Z@4HA 0000000180049310 f   * CIL library *:* CIL module *
 0001:0004831c       ?dtor$1@?0??Delete@Database@leveldown@@CAXAEBV?$FunctionCallbackInfo@VValue@v8@@@Nan@@@Z@4HA 000000018004931c f   * CIL library *:* CIL module *
 0001:00048328       ?dtor$3@?0??Delete@Database@leveldown@@CAXAEBV?$FunctionCallbackInfo@VValue@v8@@@Nan@@@Z@4HA 0000000180049328 f   * CIL library *:* CIL module *
 0001:00048336       ?dtor$2@?0??Delete@Database@leveldown@@CAXAEBV?$FunctionCallbackInfo@VValue@v8@@@Nan@@@Z@4HA 0000000180049336 f   * CIL library *:* CIL module *
 0001:00048342       ?dtor$4@?0??Delete@Database@leveldown@@CAXAEBV?$FunctionCallbackInfo@VValue@v8@@@Nan@@@Z@4HA 0000000180049342 f   * CIL library *:* CIL module *
 0001:00048350       ?dtor$0@?0??Batch@Database@leveldown@@CAXAEBV?$FunctionCallbackInfo@VValue@v8@@@Nan@@@Z@4HA 0000000180049350 f   * CIL library *:* CIL module *
 0001:0004835c       ?dtor$1@?0??Batch@Database@leveldown@@CAXAEBV?$FunctionCallbackInfo@VValue@v8@@@Nan@@@Z@4HA 000000018004935c f   * CIL library *:* CIL module *
 0001:00048368       ?dtor$2@?0??Batch@Database@leveldown@@CAXAEBV?$FunctionCallbackInfo@VValue@v8@@@Nan@@@Z@4HA 0000000180049368 f   * CIL library *:* CIL module *
 0001:00048374       ?dtor$4@?0??Batch@Database@leveldown@@CAXAEBV?$FunctionCallbackInfo@VValue@v8@@@Nan@@@Z@4HA 0000000180049374 f   * CIL library *:* CIL module *
 0001:00048382       ?dtor$3@?0??Batch@Database@leveldown@@CAXAEBV?$FunctionCallbackInfo@VValue@v8@@@Nan@@@Z@4HA 0000000180049382 f   * CIL library *:* CIL module *
 0001:0004838e       ?dtor$5@?0??Batch@Database@leveldown@@CAXAEBV?$FunctionCallbackInfo@VValue@v8@@@Nan@@@Z@4HA 000000018004938e f   * CIL library *:* CIL module *
 0001:000483a0       ?dtor$0@?0??ApproximateSize@Database@leveldown@@CAXAEBV?$FunctionCallbackInfo@VValue@v8@@@Nan@@@Z@4HA 00000001800493a0 f   * CIL library *:* CIL module *
 0001:000483ac       ?dtor$1@?0??ApproximateSize@Database@leveldown@@CAXAEBV?$FunctionCallbackInfo@VValue@v8@@@Nan@@@Z@4HA 00000001800493ac f   * CIL library *:* CIL module *
 0001:000483b8       ?dtor$3@?0??ApproximateSize@Database@leveldown@@CAXAEBV?$FunctionCallbackInfo@VValue@v8@@@Nan@@@Z@4HA 00000001800493b8 f   * CIL library *:* CIL module *
 0001:000483c6       ?dtor$2@?0??ApproximateSize@Database@leveldown@@CAXAEBV?$FunctionCallbackInfo@VValue@v8@@@Nan@@@Z@4HA 00000001800493c6 f   * CIL library *:* CIL module *
 0001:000483d2       ?dtor$4@?0??ApproximateSize@Database@leveldown@@CAXAEBV?$FunctionCallbackInfo@VValue@v8@@@Nan@@@Z@4HA 00000001800493d2 f   * CIL library *:* CIL module *
 0001:000483e0       ?dtor$0@?0??GetProperty@Database@leveldown@@CAXAEBV?$FunctionCallbackInfo@VValue@v8@@@Nan@@@Z@4HA 00000001800493e0 f   * CIL library *:* CIL module *
 0001:000483f0       ?dtor$0@?0??Iterator@Database@leveldown@@CAXAEBV?$FunctionCallbackInfo@VValue@v8@@@Nan@@@Z@4HA 00000001800493f0 f   * CIL library *:* CIL module *
 0001:000483fe       ?dtor$1@?0??Iterator@Database@leveldown@@CAXAEBV?$FunctionCallbackInfo@VValue@v8@@@Nan@@@Z@4HA 00000001800493fe f   * CIL library *:* CIL module *
 0001:00048420       ?dtor$4@?0???0?$set@_KU?$less@_K@std@@V?$allocator@_K@2@@std@@QEAA@XZ@4HA 0000000180049420 f   * CIL library *:* CIL module *
 0001:00048420       ?dtor$4@?0???0?$map@IPEAVIterator@leveldown@@U?$less@I@std@@V?$allocator@U?$pair@$$CBIPEAVIterator@leveldown@@@std@@@4@@std@@QEAA@XZ@4HA 0000000180049420 f   * CIL library *:* CIL module *
 0001:0004843c       ?dtor$5@?0???0?$map@IPEAVIterator@leveldown@@U?$less@I@std@@V?$allocator@U?$pair@$$CBIPEAVIterator@leveldown@@@std@@@4@@std@@QEAA@XZ@4HA 000000018004943c f   * CIL library *:* CIL module *
 0001:0004843c       ?dtor$5@?0???0?$set@_KU?$less@_K@std@@V?$allocator@_K@2@@std@@QEAA@XZ@4HA 000000018004943c f   * CIL library *:* CIL module *
 0001:00048458       ?dtor$6@?0???0?$set@_KU?$less@_K@std@@V?$allocator@_K@2@@std@@QEAA@XZ@4HA 0000000180049458 f   * CIL library *:* CIL module *
 0001:00048458       ?dtor$6@?0???0?$map@IPEAVIterator@leveldown@@U?$less@I@std@@V?$allocator@U?$pair@$$CBIPEAVIterator@leveldown@@@std@@@4@@std@@QEAA@XZ@4HA 0000000180049458 f   * CIL library *:* CIL module *
 0001:00048474       ?dtor$3@?0???0?$map@IPEAVIterator@leveldown@@U?$less@I@std@@V?$allocator@U?$pair@$$CBIPEAVIterator@leveldown@@@std@@@4@@std@@QEAA@XZ@4HA 0000000180049474 f   * CIL library *:* CIL module *
 0001:00048474       ?dtor$3@?0???0?$set@_KU?$less@_K@std@@V?$allocator@_K@2@@std@@QEAA@XZ@4HA 0000000180049474 f   * CIL library *:* CIL module *
 0001:00048480       ?dtor$2@?0???0?$map@IPEAVIterator@leveldown@@U?$less@I@std@@V?$allocator@U?$pair@$$CBIPEAVIterator@leveldown@@@std@@@4@@std@@QEAA@XZ@4HA 0000000180049480 f   * CIL library *:* CIL module *
 0001:00048480       ?dtor$2@?0???0?$set@_KU?$less@_K@std@@V?$allocator@_K@2@@std@@QEAA@XZ@4HA 0000000180049480 f   * CIL library *:* CIL module *
 0001:0004848c       ?dtor$1@?0???0?$map@IPEAVIterator@leveldown@@U?$less@I@std@@V?$allocator@U?$pair@$$CBIPEAVIterator@leveldown@@@std@@@4@@std@@QEAA@XZ@4HA 000000018004948c f   * CIL library *:* CIL module *
 0001:0004848c       ?dtor$1@?0???0?$set@_KU?$less@_K@std@@V?$allocator@_K@2@@std@@QEAA@XZ@4HA 000000018004948c f   * CIL library *:* CIL module *
 0001:00048498       ?dtor$0@?0???0?$set@_KU?$less@_K@std@@V?$allocator@_K@2@@std@@QEAA@XZ@4HA 0000000180049498 f   * CIL library *:* CIL module *
 0001:00048498       ?dtor$0@?0???0?$map@IPEAVIterator@leveldown@@U?$less@I@std@@V?$allocator@U?$pair@$$CBIPEAVIterator@leveldown@@@std@@@4@@std@@QEAA@XZ@4HA 0000000180049498 f   * CIL library *:* CIL module *
 0001:000484b0       ?dtor$0@?0???1?$_Tree@V?$_Tset_traits@_KU?$less@_K@std@@V?$allocator@_K@2@$0A@@std@@@std@@QEAA@XZ@4HA 00000001800494b0 f   * CIL library *:* CIL module *
 0001:000484b0       ?dtor$0@?0???1?$_Tree@V?$_Tmap_traits@IPEAVIterator@leveldown@@U?$less@I@std@@V?$allocator@U?$pair@$$CBIPEAVIterator@leveldown@@@std@@@4@$0A@@std@@@std@@QEAA@XZ@4HA 00000001800494b0 f   * CIL library *:* CIL module *
 0001:000484b0       ?dtor$0@?0???1?$_Tree@V?$_Tset_traits@PEAUFileMetaData@leveldb@@UBySmallestKey@Builder@VersionSet@2@V?$allocator@PEAUFileMetaData@leveldb@@@std@@$0A@@std@@@std@@QEAA@XZ@4HA 00000001800494b0 f   * CIL library *:* CIL module *
 0001:000484b0       ?dtor$0@?0???1?$_Tree@V?$_Tset_traits@U?$pair@H_K@std@@U?$less@U?$pair@H_K@std@@@2@V?$allocator@U?$pair@H_K@std@@@2@$0A@@std@@@std@@QEAA@XZ@4HA 00000001800494b0 f   * CIL library *:* CIL module *
 0001:000484bc       ?dtor$1@?0???1?$_Tree@V?$_Tset_traits@PEAUFileMetaData@leveldb@@UBySmallestKey@Builder@VersionSet@2@V?$allocator@PEAUFileMetaData@leveldb@@@std@@$0A@@std@@@std@@QEAA@XZ@4HA 00000001800494bc f   * CIL library *:* CIL module *
 0001:000484bc       ?dtor$1@?0???1?$_Tree@V?$_Tmap_traits@IPEAVIterator@leveldown@@U?$less@I@std@@V?$allocator@U?$pair@$$CBIPEAVIterator@leveldown@@@std@@@4@$0A@@std@@@std@@QEAA@XZ@4HA 00000001800494bc f   * CIL library *:* CIL module *
 0001:000484bc       ?dtor$1@?0???1?$_Tree@V?$_Tset_traits@_KU?$less@_K@std@@V?$allocator@_K@2@$0A@@std@@@std@@QEAA@XZ@4HA 00000001800494bc f   * CIL library *:* CIL module *
 0001:000484bc       ?dtor$1@?0???1?$_Tree@V?$_Tset_traits@U?$pair@H_K@std@@U?$less@U?$pair@H_K@std@@@2@V?$allocator@U?$pair@H_K@std@@@2@$0A@@std@@@std@@QEAA@XZ@4HA 00000001800494bc f   * CIL library *:* CIL module *
 0001:000484c8       ?dtor$2@?0???1?$_Tree@V?$_Tset_traits@U?$pair@H_K@std@@U?$less@U?$pair@H_K@std@@@2@V?$allocator@U?$pair@H_K@std@@@2@$0A@@std@@@std@@QEAA@XZ@4HA 00000001800494c8 f   * CIL library *:* CIL module *
 0001:000484c8       ?dtor$2@?0???1?$_Tree@V?$_Tset_traits@_KU?$less@_K@std@@V?$allocator@_K@2@$0A@@std@@@std@@QEAA@XZ@4HA 00000001800494c8 f   * CIL library *:* CIL module *
 0001:000484c8       ?dtor$2@?0???1?$_Tree@V?$_Tset_traits@PEAUFileMetaData@leveldb@@UBySmallestKey@Builder@VersionSet@2@V?$allocator@PEAUFileMetaData@leveldb@@@std@@$0A@@std@@@std@@QEAA@XZ@4HA 00000001800494c8 f   * CIL library *:* CIL module *
 0001:000484c8       ?dtor$2@?0???1?$_Tree@V?$_Tmap_traits@IPEAVIterator@leveldown@@U?$less@I@std@@V?$allocator@U?$pair@$$CBIPEAVIterator@leveldown@@@std@@@4@$0A@@std@@@std@@QEAA@XZ@4HA 00000001800494c8 f   * CIL library *:* CIL module *
 0001:000484e0       ?dtor$0@?0???1?$_Tree_comp@$0A@V?$_Tmap_traits@IPEAVIterator@leveldown@@U?$less@I@std@@V?$allocator@U?$pair@$$CBIPEAVIterator@leveldown@@@std@@@4@$0A@@std@@@std@@QEAA@XZ@4HA 00000001800494e0 f   * CIL library *:* CIL module *
 0001:000484e0       ?dtor$0@?0???1?$_Tree_comp@$00V?$_Tset_traits@PEAUFileMetaData@leveldb@@UBySmallestKey@Builder@VersionSet@2@V?$allocator@PEAUFileMetaData@leveldb@@@std@@$0A@@std@@@std@@QEAA@XZ@4HA 00000001800494e0 f   * CIL library *:* CIL module *
 0001:000484e0       ?dtor$0@?0???1?$_Tree_comp@$0A@V?$_Tset_traits@U?$pair@H_K@std@@U?$less@U?$pair@H_K@std@@@2@V?$allocator@U?$pair@H_K@std@@@2@$0A@@std@@@std@@QEAA@XZ@4HA 00000001800494e0 f   * CIL library *:* CIL module *
 0001:000484e0       ?dtor$0@?0???1?$_Tree_comp@$0A@V?$_Tset_traits@_KU?$less@_K@std@@V?$allocator@_K@2@$0A@@std@@@std@@QEAA@XZ@4HA 00000001800494e0 f   * CIL library *:* CIL module *
 0001:000484ec       ?dtor$1@?0???1?$_Tree_comp@$0A@V?$_Tset_traits@U?$pair@H_K@std@@U?$less@U?$pair@H_K@std@@@2@V?$allocator@U?$pair@H_K@std@@@2@$0A@@std@@@std@@QEAA@XZ@4HA 00000001800494ec f   * CIL library *:* CIL module *
 0001:000484ec       ?dtor$1@?0???1?$_Tree_comp@$0A@V?$_Tset_traits@_KU?$less@_K@std@@V?$allocator@_K@2@$0A@@std@@@std@@QEAA@XZ@4HA 00000001800494ec f   * CIL library *:* CIL module *
 0001:000484ec       ?dtor$1@?0???1?$_Tree_comp@$0A@V?$_Tmap_traits@IPEAVIterator@leveldown@@U?$less@I@std@@V?$allocator@U?$pair@$$CBIPEAVIterator@leveldown@@@std@@@4@$0A@@std@@@std@@QEAA@XZ@4HA 00000001800494ec f   * CIL library *:* CIL module *
 0001:000484ec       ?dtor$1@?0???1?$_Tree_comp@$00V?$_Tset_traits@PEAUFileMetaData@leveldb@@UBySmallestKey@Builder@VersionSet@2@V?$allocator@PEAUFileMetaData@leveldb@@@std@@$0A@@std@@@std@@QEAA@XZ@4HA 00000001800494ec f   * CIL library *:* CIL module *
 0001:00048500       ?dtor$0@?0???1?$_Tree_buy@_KV?$allocator@_K@std@@@std@@QEAA@XZ@4HA 0000000180049500 f   * CIL library *:* CIL module *
 0001:00048500       ?dtor$0@?0???1?$_Tree_buy@U?$pair@H_K@std@@V?$allocator@U?$pair@H_K@std@@@2@@std@@QEAA@XZ@4HA 0000000180049500 f   * CIL library *:* CIL module *
 0001:00048500       ?dtor$0@?0???1?$_Tree_buy@U?$pair@$$CBIPEAVIterator@leveldown@@@std@@V?$allocator@U?$pair@$$CBIPEAVIterator@leveldown@@@std@@@2@@std@@QEAA@XZ@4HA 0000000180049500 f   * CIL library *:* CIL module *
 0001:00048500       ?dtor$0@?0???1?$_Tree_buy@PEAUFileMetaData@leveldb@@V?$allocator@PEAUFileMetaData@leveldb@@@std@@@std@@QEAA@XZ@4HA 0000000180049500 f   * CIL library *:* CIL module *
 0001:00048510       ?dtor$0@?0??_Buynode0@?$_Tree_buy@U?$pair@H_K@std@@V?$allocator@U?$pair@H_K@std@@@2@@std@@QEAAPEAU?$_Tree_node@U?$pair@H_K@std@@PEAX@2@XZ@4HA 0000000180049510 f   * CIL library *:* CIL module *
 0001:00048510       ?dtor$0@?0??_Buynode0@?$_Tree_buy@U?$pair@$$CBIPEAVIterator@leveldown@@@std@@V?$allocator@U?$pair@$$CBIPEAVIterator@leveldown@@@std@@@2@@std@@QEAAPEAU?$_Tree_node@U?$pair@$$CBIPEAVIterator@leveldown@@@std@@PEAX@2@XZ@4HA 0000000180049510 f   * CIL library *:* CIL module *
 0001:00048510       ?dtor$0@?0??_Buynode0@?$_Tree_buy@_KV?$allocator@_K@std@@@std@@QEAAPEAU?$_Tree_node@_KPEAX@2@XZ@4HA 0000000180049510 f   * CIL library *:* CIL module *
 0001:00048510       ?dtor$0@?0??_Buynode0@?$_Tree_buy@PEAUFileMetaData@leveldb@@V?$allocator@PEAUFileMetaData@leveldb@@@std@@@std@@QEAAPEAU?$_Tree_node@PEAUFileMetaData@leveldb@@PEAX@2@XZ@4HA 0000000180049510 f   * CIL library *:* CIL module *
 0001:0004852c       ?dtor$1@?0??_Buynode0@?$_Tree_buy@U?$pair@H_K@std@@V?$allocator@U?$pair@H_K@std@@@2@@std@@QEAAPEAU?$_Tree_node@U?$pair@H_K@std@@PEAX@2@XZ@4HA 000000018004952c f   * CIL library *:* CIL module *
 0001:0004852c       ?dtor$1@?0??_Buynode0@?$_Tree_buy@PEAUFileMetaData@leveldb@@V?$allocator@PEAUFileMetaData@leveldb@@@std@@@std@@QEAAPEAU?$_Tree_node@PEAUFileMetaData@leveldb@@PEAX@2@XZ@4HA 000000018004952c f   * CIL library *:* CIL module *
 0001:0004852c       ?dtor$1@?0??_Buynode0@?$_Tree_buy@U?$pair@$$CBIPEAVIterator@leveldown@@@std@@V?$allocator@U?$pair@$$CBIPEAVIterator@leveldown@@@std@@@2@@std@@QEAAPEAU?$_Tree_node@U?$pair@$$CBIPEAVIterator@leveldown@@@std@@PEAX@2@XZ@4HA 000000018004952c f   * CIL library *:* CIL module *
 0001:0004852c       ?dtor$1@?0??_Buynode0@?$_Tree_buy@_KV?$allocator@_K@std@@@std@@QEAAPEAU?$_Tree_node@_KPEAX@2@XZ@4HA 000000018004952c f   * CIL library *:* CIL module *
 0001:00048548       ?dtor$2@?0??_Buynode0@?$_Tree_buy@_KV?$allocator@_K@std@@@std@@QEAAPEAU?$_Tree_node@_KPEAX@2@XZ@4HA 0000000180049548 f   * CIL library *:* CIL module *
 0001:00048548       ?dtor$2@?0??_Buynode0@?$_Tree_buy@U?$pair@$$CBIPEAVIterator@leveldown@@@std@@V?$allocator@U?$pair@$$CBIPEAVIterator@leveldown@@@std@@@2@@std@@QEAAPEAU?$_Tree_node@U?$pair@$$CBIPEAVIterator@leveldown@@@std@@PEAX@2@XZ@4HA 0000000180049548 f   * CIL library *:* CIL module *
 0001:00048548       ?dtor$2@?0??_Buynode0@?$_Tree_buy@U?$pair@H_K@std@@V?$allocator@U?$pair@H_K@std@@@2@@std@@QEAAPEAU?$_Tree_node@U?$pair@H_K@std@@PEAX@2@XZ@4HA 0000000180049548 f   * CIL library *:* CIL module *
 0001:00048548       ?dtor$2@?0??_Buynode0@?$_Tree_buy@PEAUFileMetaData@leveldb@@V?$allocator@PEAUFileMetaData@leveldb@@@std@@@std@@QEAAPEAU?$_Tree_node@PEAUFileMetaData@leveldb@@PEAX@2@XZ@4HA 0000000180049548 f   * CIL library *:* CIL module *
 0001:00048570       ?dtor$1@?0??GetFromPersistent@AsyncWorker@Nan@@QEBA?AV?$Local@VValue@v8@@@v8@@PEBD@Z@4HA 0000000180049570 f   * CIL library *:* CIL module *
 0001:0004857e       ?dtor$0@?0??GetFromPersistent@AsyncWorker@Nan@@QEBA?AV?$Local@VValue@v8@@@v8@@PEBD@Z@4HA 000000018004957e f   * CIL library *:* CIL module *
 0001:0004858a       ?dtor$2@?0??GetFromPersistent@AsyncWorker@Nan@@QEBA?AV?$Local@VValue@v8@@@v8@@PEBD@Z@4HA 000000018004958a f   * CIL library *:* CIL module *
 0001:00048598       ?dtor$3@?0??GetFromPersistent@AsyncWorker@Nan@@QEBA?AV?$Local@VValue@v8@@@v8@@PEBD@Z@4HA 0000000180049598 f   * CIL library *:* CIL module *
 0001:000485b0       ?dtor$2@?0???0BatchWorker@leveldown@@QEAA@PEAVDatabase@1@PEAVCallback@Nan@@PEAVWriteBatch@leveldb@@_N@Z@4HA 00000001800495b0 f   * CIL library *:* CIL module *
 0001:000485b0       ?dtor$2@?0???0OpenWorker@leveldown@@QEAA@PEAVDatabase@1@PEAVCallback@Nan@@PEAVCache@leveldb@@PEBVFilterPolicy@6@_N44IIII@Z@4HA 00000001800495b0 f   * CIL library *:* CIL module *
 0001:000485bc       ?dtor$3@?0???0BatchWorker@leveldown@@QEAA@PEAVDatabase@1@PEAVCallback@Nan@@PEAVWriteBatch@leveldb@@_N@Z@4HA 00000001800495bc f   * CIL library *:* CIL module *
 0001:000485bc       ?dtor$3@?0???0OpenWorker@leveldown@@QEAA@PEAVDatabase@1@PEAVCallback@Nan@@PEAVCache@leveldb@@PEBVFilterPolicy@6@_N44IIII@Z@4HA 00000001800495bc f   * CIL library *:* CIL module *
 0001:000485cf       ?dtor$0@?0???0BatchWorker@leveldown@@QEAA@PEAVDatabase@1@PEAVCallback@Nan@@PEAVWriteBatch@leveldb@@_N@Z@4HA 00000001800495cf f   * CIL library *:* CIL module *
 0001:000485cf       ?dtor$0@?0???0OpenWorker@leveldown@@QEAA@PEAVDatabase@1@PEAVCallback@Nan@@PEAVCache@leveldb@@PEBVFilterPolicy@6@_N44IIII@Z@4HA 00000001800495cf f   * CIL library *:* CIL module *
 0001:000485db       ?dtor$1@?0???0OpenWorker@leveldown@@QEAA@PEAVDatabase@1@PEAVCallback@Nan@@PEAVCache@leveldb@@PEBVFilterPolicy@6@_N44IIII@Z@4HA 00000001800495db f   * CIL library *:* CIL module *
 0001:000485db       ?dtor$1@?0???0BatchWorker@leveldown@@QEAA@PEAVDatabase@1@PEAVCallback@Nan@@PEAVWriteBatch@leveldb@@_N@Z@4HA 00000001800495db f   * CIL library *:* CIL module *
 0001:000485f0       ?dtor$2@?0???0IOWorker@leveldown@@QEAA@PEAVDatabase@1@PEAVCallback@Nan@@VSlice@leveldb@@AEAV?$Local@VObject@v8@@@v8@@@Z@4HA 00000001800495f0 f   * CIL library *:* CIL module *
 0001:000485fc       ?dtor$3@?0???0IOWorker@leveldown@@QEAA@PEAVDatabase@1@PEAVCallback@Nan@@VSlice@leveldb@@AEAV?$Local@VObject@v8@@@v8@@@Z@4HA 00000001800495fc f   * CIL library *:* CIL module *
 0001:0004860f       ?dtor$0@?0???0IOWorker@leveldown@@QEAA@PEAVDatabase@1@PEAVCallback@Nan@@VSlice@leveldb@@AEAV?$Local@VObject@v8@@@v8@@@Z@4HA 000000018004960f f   * CIL library *:* CIL module *
 0001:0004861b       ?dtor$4@?0???0IOWorker@leveldown@@QEAA@PEAVDatabase@1@PEAVCallback@Nan@@VSlice@leveldb@@AEAV?$Local@VObject@v8@@@v8@@@Z@4HA 000000018004961b f   * CIL library *:* CIL module *
 0001:00048629       ?dtor$1@?0???0IOWorker@leveldown@@QEAA@PEAVDatabase@1@PEAVCallback@Nan@@VSlice@leveldb@@AEAV?$Local@VObject@v8@@@v8@@@Z@4HA 0000000180049629 f   * CIL library *:* CIL module *
 0001:00048635       ?dtor$6@?0???0IOWorker@leveldown@@QEAA@PEAVDatabase@1@PEAVCallback@Nan@@VSlice@leveldb@@AEAV?$Local@VObject@v8@@@v8@@@Z@4HA 0000000180049635 f   * CIL library *:* CIL module *
 0001:00048643       ?dtor$5@?0???0IOWorker@leveldown@@QEAA@PEAVDatabase@1@PEAVCallback@Nan@@VSlice@leveldb@@AEAV?$Local@VObject@v8@@@v8@@@Z@4HA 0000000180049643 f   * CIL library *:* CIL module *
 0001:0004864f       ?dtor$7@?0???0IOWorker@leveldown@@QEAA@PEAVDatabase@1@PEAVCallback@Nan@@VSlice@leveldb@@AEAV?$Local@VObject@v8@@@v8@@@Z@4HA 000000018004964f f   * CIL library *:* CIL module *
 0001:0004865d       ?dtor$8@?0???0IOWorker@leveldown@@QEAA@PEAVDatabase@1@PEAVCallback@Nan@@VSlice@leveldb@@AEAV?$Local@VObject@v8@@@v8@@@Z@4HA 000000018004965d f   * CIL library *:* CIL module *
 0001:00048670       ?dtor$1@?0??WorkComplete@IOWorker@leveldown@@UEAAXXZ@4HA 0000000180049670 f   * CIL library *:* CIL module *
 0001:00048670       ?dtor$1@?0??WorkComplete@ApproximateSizeWorker@leveldown@@UEAAXXZ@4HA 0000000180049670 f   * CIL library *:* CIL module *
 0001:00048670       ?dtor$1@?0??WorkComplete@WriteWorker@leveldown@@UEAAXXZ@4HA 0000000180049670 f   * CIL library *:* CIL module *
 0001:0004867e       ?dtor$0@?0??WorkComplete@ApproximateSizeWorker@leveldown@@UEAAXXZ@4HA 000000018004967e f   * CIL library *:* CIL module *
 0001:0004867e       ?dtor$0@?0??WorkComplete@WriteWorker@leveldown@@UEAAXXZ@4HA 000000018004967e f   * CIL library *:* CIL module *
 0001:0004867e       ?dtor$0@?0??WorkComplete@IOWorker@leveldown@@UEAAXXZ@4HA 000000018004967e f   * CIL library *:* CIL module *
 0001:0004868a       ?dtor$2@?0??WorkComplete@ApproximateSizeWorker@leveldown@@UEAAXXZ@4HA 000000018004968a f   * CIL library *:* CIL module *
 0001:0004868a       ?dtor$2@?0??WorkComplete@IOWorker@leveldown@@UEAAXXZ@4HA 000000018004968a f   * CIL library *:* CIL module *
 0001:0004868a       ?dtor$2@?0??WorkComplete@WriteWorker@leveldown@@UEAAXXZ@4HA 000000018004968a f   * CIL library *:* CIL module *
 0001:000486a0       ?dtor$0@?0???0ReadWorker@leveldown@@QEAA@PEAVDatabase@1@PEAVCallback@Nan@@VSlice@leveldb@@_N3AEAV?$Local@VObject@v8@@@v8@@@Z@4HA 00000001800496a0 f   * CIL library *:* CIL module *
 0001:000486ac       ?dtor$1@?0???0ReadWorker@leveldown@@QEAA@PEAVDatabase@1@PEAVCallback@Nan@@VSlice@leveldb@@_N3AEAV?$Local@VObject@v8@@@v8@@@Z@4HA 00000001800496ac f   * CIL library *:* CIL module *
 0001:000486bf       ?dtor$4@?0???0ReadWorker@leveldown@@QEAA@PEAVDatabase@1@PEAVCallback@Nan@@VSlice@leveldb@@_N3AEAV?$Local@VObject@v8@@@v8@@@Z@4HA 00000001800496bf f   * CIL library *:* CIL module *
 0001:000486cd       ?dtor$2@?0???0ReadWorker@leveldown@@QEAA@PEAVDatabase@1@PEAVCallback@Nan@@VSlice@leveldb@@_N3AEAV?$Local@VObject@v8@@@v8@@@Z@4HA 00000001800496cd f   * CIL library *:* CIL module *
 0001:000486d9       ?dtor$3@?0???0ReadWorker@leveldown@@QEAA@PEAVDatabase@1@PEAVCallback@Nan@@VSlice@leveldb@@_N3AEAV?$Local@VObject@v8@@@v8@@@Z@4HA 00000001800496d9 f   * CIL library *:* CIL module *
 0001:000486e5       ?dtor$6@?0???0ReadWorker@leveldown@@QEAA@PEAVDatabase@1@PEAVCallback@Nan@@VSlice@leveldb@@_N3AEAV?$Local@VObject@v8@@@v8@@@Z@4HA 00000001800496e5 f   * CIL library *:* CIL module *
 0001:000486f3       ?dtor$5@?0???0ReadWorker@leveldown@@QEAA@PEAVDatabase@1@PEAVCallback@Nan@@VSlice@leveldb@@_N3AEAV?$Local@VObject@v8@@@v8@@@Z@4HA 00000001800496f3 f   * CIL library *:* CIL module *
 0001:000486ff       ?dtor$7@?0???0ReadWorker@leveldown@@QEAA@PEAVDatabase@1@PEAVCallback@Nan@@VSlice@leveldb@@_N3AEAV?$Local@VObject@v8@@@v8@@@Z@4HA 00000001800496ff f   * CIL library *:* CIL module *
 0001:0004870d       ?dtor$8@?0???0ReadWorker@leveldown@@QEAA@PEAVDatabase@1@PEAVCallback@Nan@@VSlice@leveldb@@_N3AEAV?$Local@VObject@v8@@@v8@@@Z@4HA 000000018004970d f   * CIL library *:* CIL module *
 0001:00048720       ?dtor$0@?0???1ReadWorker@leveldown@@UEAA@XZ@4HA 0000000180049720 f   * CIL library *:* CIL module *
 0001:0004872c       ?dtor$1@?0???1ReadWorker@leveldown@@UEAA@XZ@4HA 000000018004972c f   * CIL library *:* CIL module *
 0001:0004873f       ?dtor$2@?0???1ReadWorker@leveldown@@UEAA@XZ@4HA 000000018004973f f   * CIL library *:* CIL module *
 0001:0004874b       ?dtor$3@?0???1ReadWorker@leveldown@@UEAA@XZ@4HA 000000018004974b f   * CIL library *:* CIL module *
 0001:00048757       ?dtor$4@?0???1ReadWorker@leveldown@@UEAA@XZ@4HA 0000000180049757 f   * CIL library *:* CIL module *
 0001:00048770       ?dtor$0@?0??Execute@ReadWorker@leveldown@@UEAAXXZ@4HA 0000000180049770 f   * CIL library *:* CIL module *
 0001:00048780       ?dtor$1@?0??HandleOKCallback@ReadWorker@leveldown@@UEAAXXZ@4HA 0000000180049780 f   * CIL library *:* CIL module *
 0001:00048780       ?dtor$1@?0??HandleOKCallback@ApproximateSizeWorker@leveldown@@UEAAXXZ@4HA 0000000180049780 f   * CIL library *:* CIL module *
 0001:0004878e       ?dtor$0@?0??HandleOKCallback@ApproximateSizeWorker@leveldown@@UEAAXXZ@4HA 000000018004978e f   * CIL library *:* CIL module *
 0001:0004878e       ?dtor$0@?0??HandleOKCallback@ReadWorker@leveldown@@UEAAXXZ@4HA 000000018004978e f   * CIL library *:* CIL module *
 0001:0004879a       ?dtor$3@?0??HandleOKCallback@ApproximateSizeWorker@leveldown@@UEAAXXZ@4HA 000000018004979a f   * CIL library *:* CIL module *
 0001:0004879a       ?dtor$3@?0??HandleOKCallback@ReadWorker@leveldown@@UEAAXXZ@4HA 000000018004979a f   * CIL library *:* CIL module *
 0001:000487b0       ?dtor$0@?0???0DeleteWorker@leveldown@@QEAA@PEAVDatabase@1@PEAVCallback@Nan@@VSlice@leveldb@@_NAEAV?$Local@VObject@v8@@@v8@@@Z@4HA 00000001800497b0 f   * CIL library *:* CIL module *
 0001:000487bc       ?dtor$3@?0???0DeleteWorker@leveldown@@QEAA@PEAVDatabase@1@PEAVCallback@Nan@@VSlice@leveldb@@_NAEAV?$Local@VObject@v8@@@v8@@@Z@4HA 00000001800497bc f   * CIL library *:* CIL module *
 0001:000487ca       ?dtor$1@?0???0DeleteWorker@leveldown@@QEAA@PEAVDatabase@1@PEAVCallback@Nan@@VSlice@leveldb@@_NAEAV?$Local@VObject@v8@@@v8@@@Z@4HA 00000001800497ca f   * CIL library *:* CIL module *
 0001:000487d6       ?dtor$2@?0???0DeleteWorker@leveldown@@QEAA@PEAVDatabase@1@PEAVCallback@Nan@@VSlice@leveldb@@_NAEAV?$Local@VObject@v8@@@v8@@@Z@4HA 00000001800497d6 f   * CIL library *:* CIL module *
 0001:000487e2       ?dtor$5@?0???0DeleteWorker@leveldown@@QEAA@PEAVDatabase@1@PEAVCallback@Nan@@VSlice@leveldb@@_NAEAV?$Local@VObject@v8@@@v8@@@Z@4HA 00000001800497e2 f   * CIL library *:* CIL module *
 0001:000487f0       ?dtor$4@?0???0DeleteWorker@leveldown@@QEAA@PEAVDatabase@1@PEAVCallback@Nan@@VSlice@leveldb@@_NAEAV?$Local@VObject@v8@@@v8@@@Z@4HA 00000001800497f0 f   * CIL library *:* CIL module *
 0001:000487fc       ?dtor$6@?0???0DeleteWorker@leveldown@@QEAA@PEAVDatabase@1@PEAVCallback@Nan@@VSlice@leveldb@@_NAEAV?$Local@VObject@v8@@@v8@@@Z@4HA 00000001800497fc f   * CIL library *:* CIL module *
 0001:0004880a       ?dtor$7@?0???0DeleteWorker@leveldown@@QEAA@PEAVDatabase@1@PEAVCallback@Nan@@VSlice@leveldb@@_NAEAV?$Local@VObject@v8@@@v8@@@Z@4HA 000000018004980a f   * CIL library *:* CIL module *
 0001:00048820       ?dtor$0@?0???_GDeleteWorker@leveldown@@UEAAPEAXI@Z@4HA 0000000180049820 f   * CIL library *:* CIL module *
 0001:00048820       ?dtor$0@?0???1DeleteWorker@leveldown@@UEAA@XZ@4HA 0000000180049820 f   * CIL library *:* CIL module *
 0001:0004882c       ?dtor$1@?0???1DeleteWorker@leveldown@@UEAA@XZ@4HA 000000018004982c f   * CIL library *:* CIL module *
 0001:0004882c       ?dtor$1@?0???_GDeleteWorker@leveldown@@UEAAPEAXI@Z@4HA 000000018004982c f   * CIL library *:* CIL module *
 0001:00048838       ?dtor$2@?0???_GDeleteWorker@leveldown@@UEAAPEAXI@Z@4HA 0000000180049838 f   * CIL library *:* CIL module *
 0001:00048838       ?dtor$2@?0???1DeleteWorker@leveldown@@UEAA@XZ@4HA 0000000180049838 f   * CIL library *:* CIL module *
 0001:00048844       ?dtor$3@?0???1DeleteWorker@leveldown@@UEAA@XZ@4HA 0000000180049844 f   * CIL library *:* CIL module *
 0001:00048844       ?dtor$3@?0???_GDeleteWorker@leveldown@@UEAAPEAXI@Z@4HA 0000000180049844 f   * CIL library *:* CIL module *
 0001:00048860       ?dtor$0@?0??Execute@DeleteWorker@leveldown@@UEAAXXZ@4HA 0000000180049860 f   * CIL library *:* CIL module *
 0001:00048870       ?dtor$0@?0???_GWriteWorker@leveldown@@UEAAPEAXI@Z@4HA 0000000180049870 f   * CIL library *:* CIL module *
 0001:0004887c       ?dtor$1@?0???_GWriteWorker@leveldown@@UEAAPEAXI@Z@4HA 000000018004987c f   * CIL library *:* CIL module *
 0001:00048888       ?dtor$2@?0???_GWriteWorker@leveldown@@UEAAPEAXI@Z@4HA 0000000180049888 f   * CIL library *:* CIL module *
 0001:00048894       ?dtor$3@?0???_GWriteWorker@leveldown@@UEAAPEAXI@Z@4HA 0000000180049894 f   * CIL library *:* CIL module *
 0001:000488a0       ?dtor$4@?0???_GWriteWorker@leveldown@@UEAAPEAXI@Z@4HA 00000001800498a0 f   * CIL library *:* CIL module *
 0001:000488c0       ?dtor$0@?0??Execute@WriteWorker@leveldown@@UEAAXXZ@4HA 00000001800498c0 f   * CIL library *:* CIL module *
 0001:000488d0       ?dtor$0@?0???1BatchWorker@leveldown@@UEAA@XZ@4HA 00000001800498d0 f   * CIL library *:* CIL module *
 0001:000488dc       ?dtor$1@?0???1BatchWorker@leveldown@@UEAA@XZ@4HA 00000001800498dc f   * CIL library *:* CIL module *
 0001:000488e8       ?dtor$2@?0???1BatchWorker@leveldown@@UEAA@XZ@4HA 00000001800498e8 f   * CIL library *:* CIL module *
 0001:000488f4       ?dtor$3@?0???1BatchWorker@leveldown@@UEAA@XZ@4HA 00000001800498f4 f   * CIL library *:* CIL module *
 0001:00048910       ?dtor$2@?0???0ApproximateSizeWorker@leveldown@@QEAA@PEAVDatabase@1@PEAVCallback@Nan@@VSlice@leveldb@@2AEAV?$Local@VObject@v8@@@v8@@3@Z@4HA 0000000180049910 f   * CIL library *:* CIL module *
 0001:0004891c       ?dtor$3@?0???0ApproximateSizeWorker@leveldown@@QEAA@PEAVDatabase@1@PEAVCallback@Nan@@VSlice@leveldb@@2AEAV?$Local@VObject@v8@@@v8@@3@Z@4HA 000000018004991c f   * CIL library *:* CIL module *
 0001:0004892f       ?dtor$0@?0???0ApproximateSizeWorker@leveldown@@QEAA@PEAVDatabase@1@PEAVCallback@Nan@@VSlice@leveldb@@2AEAV?$Local@VObject@v8@@@v8@@3@Z@4HA 000000018004992f f   * CIL library *:* CIL module *
 0001:0004893b       ?dtor$4@?0???0ApproximateSizeWorker@leveldown@@QEAA@PEAVDatabase@1@PEAVCallback@Nan@@VSlice@leveldb@@2AEAV?$Local@VObject@v8@@@v8@@3@Z@4HA 000000018004993b f   * CIL library *:* CIL module *
 0001:00048949       ?dtor$1@?0???0ApproximateSizeWorker@leveldown@@QEAA@PEAVDatabase@1@PEAVCallback@Nan@@VSlice@leveldb@@2AEAV?$Local@VObject@v8@@@v8@@3@Z@4HA 0000000180049949 f   * CIL library *:* CIL module *
 0001:00048955       ?dtor$6@?0???0ApproximateSizeWorker@leveldown@@QEAA@PEAVDatabase@1@PEAVCallback@Nan@@VSlice@leveldb@@2AEAV?$Local@VObject@v8@@@v8@@3@Z@4HA 0000000180049955 f   * CIL library *:* CIL module *
 0001:00048963       ?dtor$5@?0???0ApproximateSizeWorker@leveldown@@QEAA@PEAVDatabase@1@PEAVCallback@Nan@@VSlice@leveldb@@2AEAV?$Local@VObject@v8@@@v8@@3@Z@4HA 0000000180049963 f   * CIL library *:* CIL module *
 0001:0004896f       ?dtor$7@?0???0ApproximateSizeWorker@leveldown@@QEAA@PEAVDatabase@1@PEAVCallback@Nan@@VSlice@leveldb@@2AEAV?$Local@VObject@v8@@@v8@@3@Z@4HA 000000018004996f f   * CIL library *:* CIL module *
 0001:0004897d       ?dtor$9@?0???0ApproximateSizeWorker@leveldown@@QEAA@PEAVDatabase@1@PEAVCallback@Nan@@VSlice@leveldb@@2AEAV?$Local@VObject@v8@@@v8@@3@Z@4HA 000000018004997d f   * CIL library *:* CIL module *
 0001:0004898b       ?dtor$8@?0???0ApproximateSizeWorker@leveldown@@QEAA@PEAVDatabase@1@PEAVCallback@Nan@@VSlice@leveldb@@2AEAV?$Local@VObject@v8@@@v8@@3@Z@4HA 000000018004998b f   * CIL library *:* CIL module *
 0001:00048997       ?dtor$10@?0???0ApproximateSizeWorker@leveldown@@QEAA@PEAVDatabase@1@PEAVCallback@Nan@@VSlice@leveldb@@2AEAV?$Local@VObject@v8@@@v8@@3@Z@4HA 0000000180049997 f   * CIL library *:* CIL module *
 0001:000489a5       ?dtor$11@?0???0ApproximateSizeWorker@leveldown@@QEAA@PEAVDatabase@1@PEAVCallback@Nan@@VSlice@leveldb@@2AEAV?$Local@VObject@v8@@@v8@@3@Z@4HA 00000001800499a5 f   * CIL library *:* CIL module *
 0001:000489c0       ?dtor$0@?0??ToString@Slice@leveldb@@QEBA?AV?$basic_string@DU?$char_traits@D@std@@V?$allocator@D@2@@std@@XZ@4HA 00000001800499c0 f   * CIL library *:* CIL module *
 0001:000489f0       ?dtor$1@?0??StringOrBufferLength@@YA_KV?$Local@VValue@v8@@@v8@@@Z@4HA 00000001800499f0 f   * CIL library *:* CIL module *
 0001:000489fe       ?dtor$0@?0??StringOrBufferLength@@YA_KV?$Local@VValue@v8@@@v8@@@Z@4HA 00000001800499fe f   * CIL library *:* CIL module *
 0001:00048a0a       ?dtor$2@?0??StringOrBufferLength@@YA_KV?$Local@VValue@v8@@@v8@@@Z@4HA 0000000180049a0a f   * CIL library *:* CIL module *
 0001:00048a20       ?dtor$0@?0???__Fiterator_constructor@leveldown@@YAXXZ@4HA 0000000180049a20 f   * CIL library *:* CIL module *
 0001:00048a20       ?dtor$0@?0???__Eiterator_constructor@leveldown@@YAXXZ@4HA 0000000180049a20 f   * CIL library *:* CIL module *
 0001:00048a30       ?dtor$4@?0???0Iterator@leveldown@@QEAA@PEAVDatabase@1@IPEAVSlice@leveldb@@PEAV?$basic_string@DU?$char_traits@D@std@@V?$allocator@D@2@@std@@_N33H2222333_K@Z@4HA 0000000180049a30 f   * CIL library *:* CIL module *
 0001:00048a3c       ?dtor$3@?0???0Iterator@leveldown@@QEAA@PEAVDatabase@1@IPEAVSlice@leveldb@@PEAV?$basic_string@DU?$char_traits@D@std@@V?$allocator@D@2@@std@@_N33H2222333_K@Z@4HA 0000000180049a3c f   * CIL library *:* CIL module *
 0001:00048a4c       ?dtor$0@?0???0Iterator@leveldown@@QEAA@PEAVDatabase@1@IPEAVSlice@leveldb@@PEAV?$basic_string@DU?$char_traits@D@std@@V?$allocator@D@2@@std@@_N33H2222333_K@Z@4HA 0000000180049a4c f   * CIL library *:* CIL module *
 0001:00048a58       ?dtor$5@?0???0Iterator@leveldown@@QEAA@PEAVDatabase@1@IPEAVSlice@leveldb@@PEAV?$basic_string@DU?$char_traits@D@std@@V?$allocator@D@2@@std@@_N33H2222333_K@Z@4HA 0000000180049a58 f   * CIL library *:* CIL module *
 0001:00048a66       ?dtor$1@?0???0Iterator@leveldown@@QEAA@PEAVDatabase@1@IPEAVSlice@leveldb@@PEAV?$basic_string@DU?$char_traits@D@std@@V?$allocator@D@2@@std@@_N33H2222333_K@Z@4HA 0000000180049a66 f   * CIL library *:* CIL module *
 0001:00048a72       ?dtor$2@?0???0Iterator@leveldown@@QEAA@PEAVDatabase@1@IPEAVSlice@leveldb@@PEAV?$basic_string@DU?$char_traits@D@std@@V?$allocator@D@2@@std@@_N33H2222333_K@Z@4HA 0000000180049a72 f   * CIL library *:* CIL module *
 0001:00048a7e       ?dtor$6@?0???0Iterator@leveldown@@QEAA@PEAVDatabase@1@IPEAVSlice@leveldb@@PEAV?$basic_string@DU?$char_traits@D@std@@V?$allocator@D@2@@std@@_N33H2222333_K@Z@4HA 0000000180049a7e f   * CIL library *:* CIL module *
 0001:00048a90       ?dtor$0@?0???1Iterator@leveldown@@UEAA@XZ@4HA 0000000180049a90 f   * CIL library *:* CIL module *
 0001:00048aa0       ?dtor$0@?0??GetIterator@Iterator@leveldown@@AEAA_NXZ@4HA 0000000180049aa0 f   * CIL library *:* CIL module *
 0001:00048aac       ?dtor$1@?0??GetIterator@Iterator@leveldown@@AEAA_NXZ@4HA 0000000180049aac f   * CIL library *:* CIL module *
 0001:00048ab8       ?dtor$2@?0??GetIterator@Iterator@leveldown@@AEAA_NXZ@4HA 0000000180049ab8 f   * CIL library *:* CIL module *
 0001:00048ae0       ?dtor$0@?0??Read@Iterator@leveldown@@AEAA_NAEAV?$basic_string@DU?$char_traits@D@std@@V?$allocator@D@2@@std@@0@Z@4HA 0000000180049ae0 f   * CIL library *:* CIL module *
 0001:00048ae0       ?dtor$0@?0??FindShortSuccessor@InternalKeyComparator@leveldb@@UEBAXPEAV?$basic_string@DU?$char_traits@D@std@@V?$allocator@D@2@@std@@@Z@4HA 0000000180049ae0 f   * CIL library *:* CIL module *
 0001:00048af0       ?dtor$0@?0??IteratorNext@Iterator@leveldown@@QEAA_NAEAV?$vector@U?$pair@V?$basic_string@DU?$char_traits@D@std@@V?$allocator@D@2@@std@@V12@@std@@V?$allocator@U?$pair@V?$basic_string@DU?$char_traits@D@std@@V?$allocator@D@2@@std@@V12@@std@@@2@@std@@@Z@4HA 0000000180049af0 f   * CIL library *:* CIL module *
 0001:00048afc       ?dtor$1@?0??IteratorNext@Iterator@leveldown@@QEAA_NAEAV?$vector@U?$pair@V?$basic_string@DU?$char_traits@D@std@@V?$allocator@D@2@@std@@V12@@std@@V?$allocator@U?$pair@V?$basic_string@DU?$char_traits@D@std@@V?$allocator@D@2@@std@@V12@@std@@@2@@std@@@Z@4HA 0000000180049afc f   * CIL library *:* CIL module *
 0001:00048b08       ?dtor$2@?0??IteratorNext@Iterator@leveldown@@QEAA_NAEAV?$vector@U?$pair@V?$basic_string@DU?$char_traits@D@std@@V?$allocator@D@2@@std@@V12@@std@@V?$allocator@U?$pair@V?$basic_string@DU?$char_traits@D@std@@V?$allocator@D@2@@std@@V12@@std@@@2@@std@@@Z@4HA 0000000180049b08 f   * CIL library *:* CIL module *
 0001:00048b14       ?dtor$3@?0??IteratorNext@Iterator@leveldown@@QEAA_NAEAV?$vector@U?$pair@V?$basic_string@DU?$char_traits@D@std@@V?$allocator@D@2@@std@@V12@@std@@V?$allocator@U?$pair@V?$basic_string@DU?$char_traits@D@std@@V?$allocator@D@2@@std@@V12@@std@@@2@@std@@@Z@4HA 0000000180049b14 f   * CIL library *:* CIL module *
 0001:00048b20       ?dtor$4@?0??IteratorNext@Iterator@leveldown@@QEAA_NAEAV?$vector@U?$pair@V?$basic_string@DU?$char_traits@D@std@@V?$allocator@D@2@@std@@V12@@std@@V?$allocator@U?$pair@V?$basic_string@DU?$char_traits@D@std@@V?$allocator@D@2@@std@@V12@@std@@@2@@std@@@Z@4HA 0000000180049b20 f   * CIL library *:* CIL module *
 0001:00048b30       ?dtor$0@?0???1?$pair@V?$basic_string@DU?$char_traits@D@std@@V?$allocator@D@2@@std@@V12@@std@@QEAA@XZ@4HA 0000000180049b30 f   * CIL library *:* CIL module *
 0001:00048b30       ?dtor$0@?0??_Destroy@?$vector@U?$pair@V?$basic_string@DU?$char_traits@D@std@@V?$allocator@D@2@@std@@V12@@std@@V?$allocator@U?$pair@V?$basic_string@DU?$char_traits@D@std@@V?$allocator@D@2@@std@@V12@@std@@@2@@std@@IEAAXPEAU?$pair@V?$basic_string@DU?$char_traits@D@std@@V?$allocator@D@2@@std@@V12@@2@0@Z@4HA 0000000180049b30 f   * CIL library *:* CIL module *
 0001:00048b3c       ?dtor$1@?0???1?$pair@V?$basic_string@DU?$char_traits@D@std@@V?$allocator@D@2@@std@@V12@@std@@QEAA@XZ@4HA 0000000180049b3c f   * CIL library *:* CIL module *
 0001:00048b3c       ?dtor$1@?0??_Destroy@?$vector@U?$pair@V?$basic_string@DU?$char_traits@D@std@@V?$allocator@D@2@@std@@V12@@std@@V?$allocator@U?$pair@V?$basic_string@DU?$char_traits@D@std@@V?$allocator@D@2@@std@@V12@@std@@@2@@std@@IEAAXPEAU?$pair@V?$basic_string@DU?$char_traits@D@std@@V?$allocator@D@2@@std@@V12@@2@0@Z@4HA 0000000180049b3c f   * CIL library *:* CIL module *
 0001:00048b50       ?dtor$0@?0??Seek@Iterator@leveldown@@CAXAEBV?$FunctionCallbackInfo@VValue@v8@@@Nan@@@Z@4HA 0000000180049b50 f   * CIL library *:* CIL module *
 0001:00048b60       ?dtor$0@?0??Next@Iterator@leveldown@@CAXAEBV?$FunctionCallbackInfo@VValue@v8@@@Nan@@@Z@4HA 0000000180049b60 f   * CIL library *:* CIL module *
 0001:00048b6c       ?dtor$1@?0??Next@Iterator@leveldown@@CAXAEBV?$FunctionCallbackInfo@VValue@v8@@@Nan@@@Z@4HA 0000000180049b6c f   * CIL library *:* CIL module *
 0001:00048b78       ?dtor$3@?0??Next@Iterator@leveldown@@CAXAEBV?$FunctionCallbackInfo@VValue@v8@@@Nan@@@Z@4HA 0000000180049b78 f   * CIL library *:* CIL module *
 0001:00048b86       ?dtor$2@?0??Next@Iterator@leveldown@@CAXAEBV?$FunctionCallbackInfo@VValue@v8@@@Nan@@@Z@4HA 0000000180049b86 f   * CIL library *:* CIL module *
 0001:00048b92       ?dtor$4@?0??Next@Iterator@leveldown@@CAXAEBV?$FunctionCallbackInfo@VValue@v8@@@Nan@@@Z@4HA 0000000180049b92 f   * CIL library *:* CIL module *
 0001:00048ba0       ?dtor$0@?0??End@Iterator@leveldown@@CAXAEBV?$FunctionCallbackInfo@VValue@v8@@@Nan@@@Z@4HA 0000000180049ba0 f   * CIL library *:* CIL module *
 0001:00048bac       ?dtor$1@?0??End@Iterator@leveldown@@CAXAEBV?$FunctionCallbackInfo@VValue@v8@@@Nan@@@Z@4HA 0000000180049bac f   * CIL library *:* CIL module *
 0001:00048bb8       ?dtor$3@?0??End@Iterator@leveldown@@CAXAEBV?$FunctionCallbackInfo@VValue@v8@@@Nan@@@Z@4HA 0000000180049bb8 f   * CIL library *:* CIL module *
 0001:00048bc4       ?dtor$4@?0??End@Iterator@leveldown@@CAXAEBV?$FunctionCallbackInfo@VValue@v8@@@Nan@@@Z@4HA 0000000180049bc4 f   * CIL library *:* CIL module *
 0001:00048bd7       ?dtor$2@?0??End@Iterator@leveldown@@CAXAEBV?$FunctionCallbackInfo@VValue@v8@@@Nan@@@Z@4HA 0000000180049bd7 f   * CIL library *:* CIL module *
 0001:00048bf0       ?dtor$1@?0??NewInstance@Iterator@leveldown@@SA?AV?$Local@VObject@v8@@@v8@@V34@V?$Local@VNumber@v8@@@4@0@Z@4HA 0000000180049bf0 f   * CIL library *:* CIL module *
 0001:00048bfe       ?dtor$0@?0??NewInstance@Iterator@leveldown@@SA?AV?$Local@VObject@v8@@@v8@@V34@V?$Local@VNumber@v8@@@4@0@Z@4HA 0000000180049bfe f   * CIL library *:* CIL module *
 0001:00048c0a       ?dtor$2@?0??NewInstance@Iterator@leveldown@@SA?AV?$Local@VObject@v8@@@v8@@V34@V?$Local@VNumber@v8@@@4@0@Z@4HA 0000000180049c0a f   * CIL library *:* CIL module *
 0001:00048c18       ?dtor$3@?0??NewInstance@Iterator@leveldown@@SA?AV?$Local@VObject@v8@@@v8@@V34@V?$Local@VNumber@v8@@@4@0@Z@4HA 0000000180049c18 f   * CIL library *:* CIL module *
 0001:00048c30       ?dtor$0@?0??New@Iterator@leveldown@@CAXAEBV?$FunctionCallbackInfo@VValue@v8@@@Nan@@@Z@4HA 0000000180049c30 f   * CIL library *:* CIL module *
 0001:00048c3c       ?dtor$1@?0??New@Iterator@leveldown@@CAXAEBV?$FunctionCallbackInfo@VValue@v8@@@Nan@@@Z@4HA 0000000180049c3c f   * CIL library *:* CIL module *
 0001:00048c48       ?dtor$2@?0??New@Iterator@leveldown@@CAXAEBV?$FunctionCallbackInfo@VValue@v8@@@Nan@@@Z@4HA 0000000180049c48 f   * CIL library *:* CIL module *
 0001:00048c54       ?dtor$3@?0??New@Iterator@leveldown@@CAXAEBV?$FunctionCallbackInfo@VValue@v8@@@Nan@@@Z@4HA 0000000180049c54 f   * CIL library *:* CIL module *
 0001:00048c60       ?dtor$4@?0??New@Iterator@leveldown@@CAXAEBV?$FunctionCallbackInfo@VValue@v8@@@Nan@@@Z@4HA 0000000180049c60 f   * CIL library *:* CIL module *
 0001:00048c6c       ?dtor$5@?0??New@Iterator@leveldown@@CAXAEBV?$FunctionCallbackInfo@VValue@v8@@@Nan@@@Z@4HA 0000000180049c6c f   * CIL library *:* CIL module *
 0001:00048c78       ?dtor$6@?0??New@Iterator@leveldown@@CAXAEBV?$FunctionCallbackInfo@VValue@v8@@@Nan@@@Z@4HA 0000000180049c78 f   * CIL library *:* CIL module *
 0001:00048c84       ?dtor$7@?0??New@Iterator@leveldown@@CAXAEBV?$FunctionCallbackInfo@VValue@v8@@@Nan@@@Z@4HA 0000000180049c84 f   * CIL library *:* CIL module *
 0001:00048c90       ?dtor$8@?0??New@Iterator@leveldown@@CAXAEBV?$FunctionCallbackInfo@VValue@v8@@@Nan@@@Z@4HA 0000000180049c90 f   * CIL library *:* CIL module *
 0001:00048c9c       ?dtor$9@?0??New@Iterator@leveldown@@CAXAEBV?$FunctionCallbackInfo@VValue@v8@@@Nan@@@Z@4HA 0000000180049c9c f   * CIL library *:* CIL module *
 0001:00048ca8       ?dtor$10@?0??New@Iterator@leveldown@@CAXAEBV?$FunctionCallbackInfo@VValue@v8@@@Nan@@@Z@4HA 0000000180049ca8 f   * CIL library *:* CIL module *
 0001:00048cc0       ?dtor$0@?0??push_back@?$vector@U?$pair@V?$basic_string@DU?$char_traits@D@std@@V?$allocator@D@2@@std@@V12@@std@@V?$allocator@U?$pair@V?$basic_string@DU?$char_traits@D@std@@V?$allocator@D@2@@std@@V12@@std@@@2@@std@@QEAAX$$QEAU?$pair@V?$basic_string@DU?$char_traits@D@std@@V?$allocator@D@2@@std@@V12@@2@@Z@4HA 0000000180049cc0 f   * CIL library *:* CIL module *
 0001:00048cdc       ?dtor$1@?0??push_back@?$vector@U?$pair@V?$basic_string@DU?$char_traits@D@std@@V?$allocator@D@2@@std@@V12@@std@@V?$allocator@U?$pair@V?$basic_string@DU?$char_traits@D@std@@V?$allocator@D@2@@std@@V12@@std@@@2@@std@@QEAAX$$QEAU?$pair@V?$basic_string@DU?$char_traits@D@std@@V?$allocator@D@2@@std@@V12@@2@@Z@4HA 0000000180049cdc f   * CIL library *:* CIL module *
 0001:00048ce8       ?dtor$2@?0??push_back@?$vector@U?$pair@V?$basic_string@DU?$char_traits@D@std@@V?$allocator@D@2@@std@@V12@@std@@V?$allocator@U?$pair@V?$basic_string@DU?$char_traits@D@std@@V?$allocator@D@2@@std@@V12@@std@@@2@@std@@QEAAX$$QEAU?$pair@V?$basic_string@DU?$char_traits@D@std@@V?$allocator@D@2@@std@@V12@@2@@Z@4HA 0000000180049ce8 f   * CIL library *:* CIL module *
 0001:00048cf8       ?dtor$3@?0??push_back@?$vector@U?$pair@V?$basic_string@DU?$char_traits@D@std@@V?$allocator@D@2@@std@@V12@@std@@V?$allocator@U?$pair@V?$basic_string@DU?$char_traits@D@std@@V?$allocator@D@2@@std@@V12@@std@@@2@@std@@QEAAX$$QEAU?$pair@V?$basic_string@DU?$char_traits@D@std@@V?$allocator@D@2@@std@@V12@@2@@Z@4HA 0000000180049cf8 f   * CIL library *:* CIL module *
 0001:00048d14       ?dtor$4@?0??push_back@?$vector@U?$pair@V?$basic_string@DU?$char_traits@D@std@@V?$allocator@D@2@@std@@V12@@std@@V?$allocator@U?$pair@V?$basic_string@DU?$char_traits@D@std@@V?$allocator@D@2@@std@@V12@@std@@@2@@std@@QEAAX$$QEAU?$pair@V?$basic_string@DU?$char_traits@D@std@@V?$allocator@D@2@@std@@V12@@2@@Z@4HA 0000000180049d14 f   * CIL library *:* CIL module *
 0001:00048d20       ?dtor$5@?0??push_back@?$vector@U?$pair@V?$basic_string@DU?$char_traits@D@std@@V?$allocator@D@2@@std@@V12@@std@@V?$allocator@U?$pair@V?$basic_string@DU?$char_traits@D@std@@V?$allocator@D@2@@std@@V12@@std@@@2@@std@@QEAAX$$QEAU?$pair@V?$basic_string@DU?$char_traits@D@std@@V?$allocator@D@2@@std@@V12@@2@@Z@4HA 0000000180049d20 f   * CIL library *:* CIL module *
 0001:00048d30       ?dtor$0@?0??push_back@?$vector@_KV?$allocator@_K@std@@@std@@QEAAXAEB_K@Z@4HA 0000000180049d30 f   * CIL library *:* CIL module *
 0001:00048d30       ?dtor$0@?0??_Assign_rv@?$basic_string@DU?$char_traits@D@std@@V?$allocator@D@2@@std@@QEAAX$$QEAV12@@Z@4HA 0000000180049d30 f   * CIL library *:* CIL module *
 0001:00048d30       ?dtor$0@?0??push_back@?$vector@PEAUFileMetaData@leveldb@@V?$allocator@PEAUFileMetaData@leveldb@@@std@@@std@@QEAAXAEBQEAUFileMetaData@leveldb@@@Z@4HA 0000000180049d30 f   * CIL library *:* CIL module *
 0001:00048d30       ?dtor$0@?0??resize@?$vector@VSlice@leveldb@@V?$allocator@VSlice@leveldb@@@std@@@std@@QEAAX_K@Z@4HA 0000000180049d30 f   * CIL library *:* CIL module *
 0001:00048d50       ?dtor$1@?0???$make_pair@AEAV?$basic_string@DU?$char_traits@D@std@@V?$allocator@D@2@@std@@AEAV12@@std@@YA?AU?$pair@V?$basic_string@DU?$char_traits@D@std@@V?$allocator@D@2@@std@@V12@@0@AEAV?$basic_string@DU?$char_traits@D@std@@V?$allocator@D@2@@0@0@Z@4HA 0000000180049d50 f   * CIL library *:* CIL module *
 0001:00048d5c       ?dtor$2@?0???$make_pair@AEAV?$basic_string@DU?$char_traits@D@std@@V?$allocator@D@2@@std@@AEAV12@@std@@YA?AU?$pair@V?$basic_string@DU?$char_traits@D@std@@V?$allocator@D@2@@std@@V12@@0@AEAV?$basic_string@DU?$char_traits@D@std@@V?$allocator@D@2@@0@0@Z@4HA 0000000180049d5c f   * CIL library *:* CIL module *
 0001:00048d6c       ?dtor$0@?0???$make_pair@AEAV?$basic_string@DU?$char_traits@D@std@@V?$allocator@D@2@@std@@AEAV12@@std@@YA?AU?$pair@V?$basic_string@DU?$char_traits@D@std@@V?$allocator@D@2@@std@@V12@@0@AEAV?$basic_string@DU?$char_traits@D@std@@V?$allocator@D@2@@0@0@Z@4HA 0000000180049d6c f   * CIL library *:* CIL module *
 0001:00048da0       ?dtor$0@?0???$_Uninit_move@PEAU?$pair@V?$basic_string@DU?$char_traits@D@std@@V?$allocator@D@2@@std@@V12@@std@@PEAU12@V?$allocator@U?$pair@V?$basic_string@DU?$char_traits@D@std@@V?$allocator@D@2@@std@@V12@@std@@@2@U12@@std@@YAPEAU?$pair@V?$basic_string@DU?$char_traits@D@std@@V?$allocator@D@2@@std@@V12@@0@PEAU10@00AEAU?$_Wrap_alloc@V?$allocator@U?$pair@V?$basic_string@DU?$char_traits@D@std@@V?$allocator@D@2@@std@@V12@@std@@@std@@@0@0U_Nonscalar_ptr_iterator_tag@0@@Z@4HA 0000000180049da0 f   * CIL library *:* CIL module *
 0001:00048dbc       ?dtor$3@?0???$_Uninit_move@PEAU?$pair@V?$basic_string@DU?$char_traits@D@std@@V?$allocator@D@2@@std@@V12@@std@@PEAU12@V?$allocator@U?$pair@V?$basic_string@DU?$char_traits@D@std@@V?$allocator@D@2@@std@@V12@@std@@@2@U12@@std@@YAPEAU?$pair@V?$basic_string@DU?$char_traits@D@std@@V?$allocator@D@2@@std@@V12@@0@PEAU10@00AEAU?$_Wrap_alloc@V?$allocator@U?$pair@V?$basic_string@DU?$char_traits@D@std@@V?$allocator@D@2@@std@@V12@@std@@@std@@@0@0U_Nonscalar_ptr_iterator_tag@0@@Z@4HA 0000000180049dbc f   * CIL library *:* CIL module *
 0001:00048dd8       ?dtor$1@?0???$_Uninit_move@PEAU?$pair@V?$basic_string@DU?$char_traits@D@std@@V?$allocator@D@2@@std@@V12@@std@@PEAU12@V?$allocator@U?$pair@V?$basic_string@DU?$char_traits@D@std@@V?$allocator@D@2@@std@@V12@@std@@@2@U12@@std@@YAPEAU?$pair@V?$basic_string@DU?$char_traits@D@std@@V?$allocator@D@2@@std@@V12@@0@PEAU10@00AEAU?$_Wrap_alloc@V?$allocator@U?$pair@V?$basic_string@DU?$char_traits@D@std@@V?$allocator@D@2@@std@@V12@@std@@@std@@@0@0U_Nonscalar_ptr_iterator_tag@0@@Z@4HA 0000000180049dd8 f   * CIL library *:* CIL module *
 0001:00048de4       ?dtor$4@?0???$_Uninit_move@PEAU?$pair@V?$basic_string@DU?$char_traits@D@std@@V?$allocator@D@2@@std@@V12@@std@@PEAU12@V?$allocator@U?$pair@V?$basic_string@DU?$char_traits@D@std@@V?$allocator@D@2@@std@@V12@@std@@@2@U12@@std@@YAPEAU?$pair@V?$basic_string@DU?$char_traits@D@std@@V?$allocator@D@2@@std@@V12@@0@PEAU10@00AEAU?$_Wrap_alloc@V?$allocator@U?$pair@V?$basic_string@DU?$char_traits@D@std@@V?$allocator@D@2@@std@@V12@@std@@@std@@@0@0U_Nonscalar_ptr_iterator_tag@0@@Z@4HA 0000000180049de4 f   * CIL library *:* CIL module *
 0001:00048e00       ?dtor$2@?0???$_Uninit_move@PEAU?$pair@V?$basic_string@DU?$char_traits@D@std@@V?$allocator@D@2@@std@@V12@@std@@PEAU12@V?$allocator@U?$pair@V?$basic_string@DU?$char_traits@D@std@@V?$allocator@D@2@@std@@V12@@std@@@2@U12@@std@@YAPEAU?$pair@V?$basic_string@DU?$char_traits@D@std@@V?$allocator@D@2@@std@@V12@@0@PEAU10@00AEAU?$_Wrap_alloc@V?$allocator@U?$pair@V?$basic_string@DU?$char_traits@D@std@@V?$allocator@D@2@@std@@V12@@std@@@std@@@0@0U_Nonscalar_ptr_iterator_tag@0@@Z@4HA 0000000180049e00 f   * CIL library *:* CIL module *
 0001:00048e10       ?dtor$2@?0???0NextWorker@leveldown@@QEAA@PEAVIterator@1@PEAVCallback@Nan@@P6AX0@Z@Z@4HA 0000000180049e10 f   * CIL library *:* CIL module *
 0001:00048e1c       ?dtor$3@?0???0NextWorker@leveldown@@QEAA@PEAVIterator@1@PEAVCallback@Nan@@P6AX0@Z@Z@4HA 0000000180049e1c f   * CIL library *:* CIL module *
 0001:00048e2f       ?dtor$0@?0???0NextWorker@leveldown@@QEAA@PEAVIterator@1@PEAVCallback@Nan@@P6AX0@Z@Z@4HA 0000000180049e2f f   * CIL library *:* CIL module *
 0001:00048e3b       ?dtor$1@?0???0NextWorker@leveldown@@QEAA@PEAVIterator@1@PEAVCallback@Nan@@P6AX0@Z@Z@4HA 0000000180049e3b f   * CIL library *:* CIL module *
 0001:00048e50       ?dtor$0@?0???1NextWorker@leveldown@@UEAA@XZ@4HA 0000000180049e50 f   * CIL library *:* CIL module *
 0001:00048e5c       ?dtor$1@?0???1NextWorker@leveldown@@UEAA@XZ@4HA 0000000180049e5c f   * CIL library *:* CIL module *
 0001:00048e6f       ?dtor$2@?0???1NextWorker@leveldown@@UEAA@XZ@4HA 0000000180049e6f f   * CIL library *:* CIL module *
 0001:00048e7b       ?dtor$3@?0???1NextWorker@leveldown@@UEAA@XZ@4HA 0000000180049e7b f   * CIL library *:* CIL module *
 0001:00048e90       ?dtor$4@?0??HandleOKCallback@NextWorker@leveldown@@UEAAXXZ@4HA 0000000180049e90 f   * CIL library *:* CIL module *
 0001:00048e9e       ?dtor$0@?0??HandleOKCallback@NextWorker@leveldown@@UEAAXXZ@4HA 0000000180049e9e f   * CIL library *:* CIL module *
 0001:00048eaa       ?dtor$5@?0??HandleOKCallback@NextWorker@leveldown@@UEAAXXZ@4HA 0000000180049eaa f   * CIL library *:* CIL module *
 0001:00048eb6       ?dtor$6@?0??HandleOKCallback@NextWorker@leveldown@@UEAAXXZ@4HA 0000000180049eb6 f   * CIL library *:* CIL module *
 0001:00048ec6       ?dtor$1@?0??HandleOKCallback@NextWorker@leveldown@@UEAAXXZ@4HA 0000000180049ec6 f   * CIL library *:* CIL module *
 0001:00048ed2       ?dtor$2@?0??HandleOKCallback@NextWorker@leveldown@@UEAAXXZ@4HA 0000000180049ed2 f   * CIL library *:* CIL module *
 0001:00048ede       ?dtor$3@?0??HandleOKCallback@NextWorker@leveldown@@UEAAXXZ@4HA 0000000180049ede f   * CIL library *:* CIL module *
 0001:00048eea       ?dtor$7@?0??HandleOKCallback@NextWorker@leveldown@@UEAAXXZ@4HA 0000000180049eea f   * CIL library *:* CIL module *
 0001:00048ef6       ?dtor$8@?0??HandleOKCallback@NextWorker@leveldown@@UEAAXXZ@4HA 0000000180049ef6 f   * CIL library *:* CIL module *
 0001:00048f06       ?dtor$10@?0??HandleOKCallback@NextWorker@leveldown@@UEAAXXZ@4HA 0000000180049f06 f   * CIL library *:* CIL module *
 0001:00048f20       ?dtor$4@?0??RepairDB@leveldown@@YAXAEBV?$FunctionCallbackInfo@VValue@v8@@@Nan@@@Z@4HA 0000000180049f20 f   * CIL library *:* CIL module *
 0001:00048f20       ?dtor$4@?0??DestroyDB@leveldown@@YAXAEBV?$FunctionCallbackInfo@VValue@v8@@@Nan@@@Z@4HA 0000000180049f20 f   * CIL library *:* CIL module *
 0001:00048f2e       ?dtor$0@?0??DestroyDB@leveldown@@YAXAEBV?$FunctionCallbackInfo@VValue@v8@@@Nan@@@Z@4HA 0000000180049f2e f   * CIL library *:* CIL module *
 0001:00048f2e       ?dtor$0@?0??RepairDB@leveldown@@YAXAEBV?$FunctionCallbackInfo@VValue@v8@@@Nan@@@Z@4HA 0000000180049f2e f   * CIL library *:* CIL module *
 0001:00048f3a       ?dtor$1@?0??RepairDB@leveldown@@YAXAEBV?$FunctionCallbackInfo@VValue@v8@@@Nan@@@Z@4HA 0000000180049f3a f   * CIL library *:* CIL module *
 0001:00048f3a       ?dtor$1@?0??DestroyDB@leveldown@@YAXAEBV?$FunctionCallbackInfo@VValue@v8@@@Nan@@@Z@4HA 0000000180049f3a f   * CIL library *:* CIL module *
 0001:00048f46       ?dtor$2@?0??RepairDB@leveldown@@YAXAEBV?$FunctionCallbackInfo@VValue@v8@@@Nan@@@Z@4HA 0000000180049f46 f   * CIL library *:* CIL module *
 0001:00048f46       ?dtor$2@?0??DestroyDB@leveldown@@YAXAEBV?$FunctionCallbackInfo@VValue@v8@@@Nan@@@Z@4HA 0000000180049f46 f   * CIL library *:* CIL module *
 0001:00048f52       ?dtor$7@?0??RepairDB@leveldown@@YAXAEBV?$FunctionCallbackInfo@VValue@v8@@@Nan@@@Z@4HA 0000000180049f52 f   * CIL library *:* CIL module *
 0001:00048f52       ?dtor$7@?0??DestroyDB@leveldown@@YAXAEBV?$FunctionCallbackInfo@VValue@v8@@@Nan@@@Z@4HA 0000000180049f52 f   * CIL library *:* CIL module *
 0001:00048f5e       ?dtor$5@?0??DestroyDB@leveldown@@YAXAEBV?$FunctionCallbackInfo@VValue@v8@@@Nan@@@Z@4HA 0000000180049f5e f   * CIL library *:* CIL module *
 0001:00048f5e       ?dtor$5@?0??RepairDB@leveldown@@YAXAEBV?$FunctionCallbackInfo@VValue@v8@@@Nan@@@Z@4HA 0000000180049f5e f   * CIL library *:* CIL module *
 0001:00048f6a       ?dtor$8@?0??DestroyDB@leveldown@@YAXAEBV?$FunctionCallbackInfo@VValue@v8@@@Nan@@@Z@4HA 0000000180049f6a f   * CIL library *:* CIL module *
 0001:00048f6a       ?dtor$8@?0??RepairDB@leveldown@@YAXAEBV?$FunctionCallbackInfo@VValue@v8@@@Nan@@@Z@4HA 0000000180049f6a f   * CIL library *:* CIL module *
 0001:00048f78       ?dtor$6@?0??RepairDB@leveldown@@YAXAEBV?$FunctionCallbackInfo@VValue@v8@@@Nan@@@Z@4HA 0000000180049f78 f   * CIL library *:* CIL module *
 0001:00048f78       ?dtor$6@?0??DestroyDB@leveldown@@YAXAEBV?$FunctionCallbackInfo@VValue@v8@@@Nan@@@Z@4HA 0000000180049f78 f   * CIL library *:* CIL module *
 0001:00048f84       ?dtor$10@?0??RepairDB@leveldown@@YAXAEBV?$FunctionCallbackInfo@VValue@v8@@@Nan@@@Z@4HA 0000000180049f84 f   * CIL library *:* CIL module *
 0001:00048f84       ?dtor$10@?0??DestroyDB@leveldown@@YAXAEBV?$FunctionCallbackInfo@VValue@v8@@@Nan@@@Z@4HA 0000000180049f84 f   * CIL library *:* CIL module *
 0001:00048f92       ?dtor$9@?0??DestroyDB@leveldown@@YAXAEBV?$FunctionCallbackInfo@VValue@v8@@@Nan@@@Z@4HA 0000000180049f92 f   * CIL library *:* CIL module *
 0001:00048f92       ?dtor$9@?0??RepairDB@leveldown@@YAXAEBV?$FunctionCallbackInfo@VValue@v8@@@Nan@@@Z@4HA 0000000180049f92 f   * CIL library *:* CIL module *
 0001:00048f9e       ?dtor$11@?0??RepairDB@leveldown@@YAXAEBV?$FunctionCallbackInfo@VValue@v8@@@Nan@@@Z@4HA 0000000180049f9e f   * CIL library *:* CIL module *
 0001:00048f9e       ?dtor$11@?0??DestroyDB@leveldown@@YAXAEBV?$FunctionCallbackInfo@VValue@v8@@@Nan@@@Z@4HA 0000000180049f9e f   * CIL library *:* CIL module *
 0001:00048fac       ?dtor$12@?0??DestroyDB@leveldown@@YAXAEBV?$FunctionCallbackInfo@VValue@v8@@@Nan@@@Z@4HA 0000000180049fac f   * CIL library *:* CIL module *
 0001:00048fac       ?dtor$12@?0??RepairDB@leveldown@@YAXAEBV?$FunctionCallbackInfo@VValue@v8@@@Nan@@@Z@4HA 0000000180049fac f   * CIL library *:* CIL module *
 0001:00048fba       ?dtor$3@?0??DestroyDB@leveldown@@YAXAEBV?$FunctionCallbackInfo@VValue@v8@@@Nan@@@Z@4HA 0000000180049fba f   * CIL library *:* CIL module *
 0001:00048fba       ?dtor$3@?0??RepairDB@leveldown@@YAXAEBV?$FunctionCallbackInfo@VValue@v8@@@Nan@@@Z@4HA 0000000180049fba f   * CIL library *:* CIL module *
 0001:00048fc6       ?dtor$14@?0??RepairDB@leveldown@@YAXAEBV?$FunctionCallbackInfo@VValue@v8@@@Nan@@@Z@4HA 0000000180049fc6 f   * CIL library *:* CIL module *
 0001:00048fc6       ?dtor$14@?0??DestroyDB@leveldown@@YAXAEBV?$FunctionCallbackInfo@VValue@v8@@@Nan@@@Z@4HA 0000000180049fc6 f   * CIL library *:* CIL module *
 0001:00048fd2       ?dtor$15@?0??DestroyDB@leveldown@@YAXAEBV?$FunctionCallbackInfo@VValue@v8@@@Nan@@@Z@4HA 0000000180049fd2 f   * CIL library *:* CIL module *
 0001:00048fd2       ?dtor$15@?0??RepairDB@leveldown@@YAXAEBV?$FunctionCallbackInfo@VValue@v8@@@Nan@@@Z@4HA 0000000180049fd2 f   * CIL library *:* CIL module *
 0001:00048fe5       ?dtor$13@?0??RepairDB@leveldown@@YAXAEBV?$FunctionCallbackInfo@VValue@v8@@@Nan@@@Z@4HA 0000000180049fe5 f   * CIL library *:* CIL module *
 0001:00048fe5       ?dtor$13@?0??DestroyDB@leveldown@@YAXAEBV?$FunctionCallbackInfo@VValue@v8@@@Nan@@@Z@4HA 0000000180049fe5 f   * CIL library *:* CIL module *
 0001:00048ff1       ?dtor$16@?0??RepairDB@leveldown@@YAXAEBV?$FunctionCallbackInfo@VValue@v8@@@Nan@@@Z@4HA 0000000180049ff1 f   * CIL library *:* CIL module *
 0001:00048ff1       ?dtor$16@?0??DestroyDB@leveldown@@YAXAEBV?$FunctionCallbackInfo@VValue@v8@@@Nan@@@Z@4HA 0000000180049ff1 f   * CIL library *:* CIL module *
 0001:00049000       ?dtor$0@?0??Execute@RepairWorker@leveldown@@UEAAXXZ@4HA 000000018004a000 f   * CIL library *:* CIL module *
 0001:00049000       ?dtor$0@?0??Execute@DestroyWorker@leveldown@@UEAAXXZ@4HA 000000018004a000 f   * CIL library *:* CIL module *
 0001:0004900c       ?dtor$1@?0??Execute@RepairWorker@leveldown@@UEAAXXZ@4HA 000000018004a00c f   * CIL library *:* CIL module *
 0001:0004900c       ?dtor$1@?0??Execute@DestroyWorker@leveldown@@UEAAXXZ@4HA 000000018004a00c f   * CIL library *:* CIL module *
 0001:00049020       ?dtor$0@?0??OK@Status@leveldb@@SA?AV12@XZ@4HA 000000018004a020 f   * CIL library *:* CIL module *
 0001:00049050       ?dtor$0@?0??Corruption@Status@leveldb@@SA?AV12@AEBVSlice@2@0@Z@4HA 000000018004a050 f   * CIL library *:* CIL module *
 0001:00049050       ?dtor$0@?0??NotFound@Status@leveldb@@SA?AV12@AEBVSlice@2@0@Z@4HA 000000018004a050 f   * CIL library *:* CIL module *
 0001:00049050       ?dtor$0@?0??InvalidArgument@Status@leveldb@@SA?AV12@AEBVSlice@2@0@Z@4HA 000000018004a050 f   * CIL library *:* CIL module *
 0001:00049050       ?dtor$0@?0??IOError@Status@leveldb@@SA?AV12@AEBVSlice@2@0@Z@4HA 000000018004a050 f   * CIL library *:* CIL module *
 0001:00049080       ?dtor$0@?0???0WriteBatch@leveldb@@QEAA@XZ@4HA 000000018004a080 f   * CIL library *:* CIL module *
 0001:00049080       ?dtor$0@?0???1InternalKey@leveldb@@QEAA@XZ@4HA 000000018004a080 f   * CIL library *:* CIL module *
 0001:00049080       ?dtor$0@?0???1WriteBatch@leveldb@@QEAA@XZ@4HA 000000018004a080 f   * CIL library *:* CIL module *
 0001:00049090       ?dtor$0@?0??Iterate@WriteBatch@leveldb@@QEBA?AVStatus@2@PEAVHandler@12@@Z@4HA 000000018004a090 f   * CIL library *:* CIL module *
 0001:000490c0       ?dtor$2@?0??InsertInto@WriteBatchInternal@leveldb@@SA?AVStatus@2@PEBVWriteBatch@2@PEAVMemTable@2@@Z@4HA 000000018004a0c0 f   * CIL library *:* CIL module *
 0001:000490cc       ?dtor$0@?0??InsertInto@WriteBatchInternal@leveldb@@SA?AVStatus@2@PEBVWriteBatch@2@PEAVMemTable@2@@Z@4HA 000000018004a0cc f   * CIL library *:* CIL module *
 0001:000490d8       ?dtor$1@?0??InsertInto@WriteBatchInternal@leveldb@@SA?AVStatus@2@PEBVWriteBatch@2@PEAVMemTable@2@@Z@4HA 000000018004a0d8 f   * CIL library *:* CIL module *
 0001:000490fe       ?dtor$3@?0??InsertInto@WriteBatchInternal@leveldb@@SA?AVStatus@2@PEBVWriteBatch@2@PEAVMemTable@2@@Z@4HA 000000018004a0fe f   * CIL library *:* CIL module *
 0001:00049110       ?dtor$0@?0???1MemTableInserter@?A0xfa83a6e3@leveldb@@UEAA@XZ@4HA 000000018004a110 f   * CIL library *:* CIL module *
 0001:00049120       ?dtor$0@?0???_GMemTableInserter@?A0xfa83a6e3@leveldb@@UEAAPEAXI@Z@4HA 000000018004a120 f   * CIL library *:* CIL module *
 0001:00049130       ?dtor$0@?0??ToString@Status@leveldb@@QEBA?AV?$basic_string@DU?$char_traits@D@std@@V?$allocator@D@2@@std@@XZ@4HA 000000018004a130 f   * CIL library *:* CIL module *
 0001:00049156       ?dtor$1@?0??ToString@Status@leveldb@@QEBA?AV?$basic_string@DU?$char_traits@D@std@@V?$allocator@D@2@@std@@XZ@4HA 000000018004a156 f   * CIL library *:* CIL module *
 0001:00049162       ?dtor$2@?0??ToString@Status@leveldb@@QEBA?AV?$basic_string@DU?$char_traits@D@std@@V?$allocator@D@2@@std@@XZ@4HA 000000018004a162 f   * CIL library *:* CIL module *
 0001:00049180       ?dtor$0@?0???0LRUCache@?A0x90ee7a33@leveldb@@QEAA@XZ@4HA 000000018004a180 f   * CIL library *:* CIL module *
 0001:00049190       ?dtor$1@?0???0LRUCache@?A0x90ee7a33@leveldb@@QEAA@XZ@4HA 000000018004a190 f   * CIL library *:* CIL module *
 0001:000491b0       ?dtor$0@?0???1LRUCache@?A0x90ee7a33@leveldb@@QEAA@XZ@4HA 000000018004a1b0 f   * CIL library *:* CIL module *
 0001:000491c0       ?dtor$1@?0???1LRUCache@?A0x90ee7a33@leveldb@@QEAA@XZ@4HA 000000018004a1c0 f   * CIL library *:* CIL module *
 0001:000491e0       ?dtor$0@?0??Lookup@LRUCache@?A0x90ee7a33@leveldb@@QEAAPEAUHandle@Cache@3@AEBVSlice@3@I@Z@4HA 000000018004a1e0 f   * CIL library *:* CIL module *
 0001:000491e0       ?dtor$0@?0??ReleaseSnapshot@DBImpl@leveldb@@UEAAXPEBVSnapshot@2@@Z@4HA 000000018004a1e0 f   * CIL library *:* CIL module *
 0001:000491e0       ?dtor$0@?0??Release@ShardedLRUCache@?A0x90ee7a33@leveldb@@UEAAXPEAUHandle@Cache@3@@Z@4HA 000000018004a1e0 f   * CIL library *:* CIL module *
 0001:000491e0       ?dtor$0@?0??NewId@ShardedLRUCache@?A0x90ee7a33@leveldb@@UEAA_KXZ@4HA 000000018004a1e0 f   * CIL library *:* CIL module *
 0001:000491f0       ?dtor$0@?0??Insert@LRUCache@?A0x90ee7a33@leveldb@@QEAAPEAUHandle@Cache@3@AEBVSlice@3@IPEAX_KP6AX01@Z@Z@4HA 000000018004a1f0 f   * CIL library *:* CIL module *
 0001:00049200       ?dtor$0@?0??Erase@LRUCache@?A0x90ee7a33@leveldb@@QEAAXAEBVSlice@3@I@Z@4HA 000000018004a200 f   * CIL library *:* CIL module *
 0001:00049210       ?dtor$0@?0???0ShardedLRUCache@?A0x90ee7a33@leveldb@@QEAA@_K@Z@4HA 000000018004a210 f   * CIL library *:* CIL module *
 0001:0004921c       ?dtor$1@?0???0ShardedLRUCache@?A0x90ee7a33@leveldb@@QEAA@_K@Z@4HA 000000018004a21c f   * CIL library *:* CIL module *
 0001:0004924a       ?dtor$2@?0???0ShardedLRUCache@?A0x90ee7a33@leveldb@@QEAA@_K@Z@4HA 000000018004a24a f   * CIL library *:* CIL module *
 0001:00049260       ?dtor$0@?0???_GShardedLRUCache@?A0x90ee7a33@leveldb@@UEAAPEAXI@Z@4HA 000000018004a260 f   * CIL library *:* CIL module *
 0001:0004926c       ?dtor$1@?0???_GShardedLRUCache@?A0x90ee7a33@leveldb@@UEAAPEAXI@Z@4HA 000000018004a26c f   * CIL library *:* CIL module *
 0001:0004929a       ?dtor$2@?0???_GShardedLRUCache@?A0x90ee7a33@leveldb@@UEAAPEAXI@Z@4HA 000000018004a29a f   * CIL library *:* CIL module *
 0001:000492b0       ?dtor$0@?0???_GInternalFilterPolicy@leveldb@@UEAAPEAXI@Z@4HA 000000018004a2b0 f   * CIL library *:* CIL module *
 0001:000492b0       ?dtor$0@?0???_GBloomFilterPolicy@?A0xf6456aac@leveldb@@UEAAPEAXI@Z@4HA 000000018004a2b0 f   * CIL library *:* CIL module *
 0001:000492b0       ?dtor$0@?0???_GByteArraySource@snappy@@UEAAPEAXI@Z@4HA 000000018004a2b0 f   * CIL library *:* CIL module *
 0001:000492c0       ?dtor$0@?0??NewBloomFilterPolicy@leveldb@@YAPEBVFilterPolicy@1@H@Z@4HA 000000018004a2c0 f   * CIL library *:* CIL module *
 0001:000492cc       ?dtor$1@?0??NewBloomFilterPolicy@leveldb@@YAPEBVFilterPolicy@1@H@Z@4HA 000000018004a2cc f   * CIL library *:* CIL module *
 0001:000492e0       ?dtor$0@?0???_GInternalKeyComparator@leveldb@@UEAAPEAXI@Z@4HA 000000018004a2e0 f   * CIL library *:* CIL module *
 0001:000492e0       ?dtor$0@?0???_GBytewiseComparatorImpl@?A0x7411232b@leveldb@@UEAAPEAXI@Z@4HA 000000018004a2e0 f   * CIL library *:* CIL module *
 0001:000492f0       ?dtor$0@?0???1InternalKeyComparator@leveldb@@UEAA@XZ@4HA 000000018004a2f0 f   * CIL library *:* CIL module *
 0001:00049300       ?dtor$0@?0???1ByteArraySource@snappy@@UEAA@XZ@4HA 000000018004a300 f   * CIL library *:* CIL module *
 0001:00049300       ?dtor$0@?0???1InternalFilterPolicy@leveldb@@UEAA@XZ@4HA 000000018004a300 f   * CIL library *:* CIL module *
 0001:00049310       ?dtor$0@?0???1SnapshotImpl@leveldb@@UEAA@XZ@4HA 000000018004a310 f   * CIL library *:* CIL module *
 0001:00049320       ?dtor$0@?0???_GSnapshotImpl@leveldb@@UEAAPEAXI@Z@4HA 000000018004a320 f   * CIL library *:* CIL module *
 0001:00049330       ?dtor$0@?0???0VersionEdit@leveldb@@QEAA@XZ@4HA 000000018004a330 f   * CIL library *:* CIL module *
 0001:0004933c       ?dtor$1@?0???0VersionEdit@leveldb@@QEAA@XZ@4HA 000000018004a33c f   * CIL library *:* CIL module *
 0001:0004934c       ?dtor$2@?0???0VersionEdit@leveldb@@QEAA@XZ@4HA 000000018004a34c f   * CIL library *:* CIL module *
 0001:0004935c       ?dtor$3@?0???0VersionEdit@leveldb@@QEAA@XZ@4HA 000000018004a35c f   * CIL library *:* CIL module *
 0001:00049370       ?dtor$0@?0???1VersionEdit@leveldb@@QEAA@XZ@4HA 000000018004a370 f   * CIL library *:* CIL module *
 0001:0004937c       ?dtor$1@?0???1VersionEdit@leveldb@@QEAA@XZ@4HA 000000018004a37c f   * CIL library *:* CIL module *
 0001:0004938c       ?dtor$2@?0???1VersionEdit@leveldb@@QEAA@XZ@4HA 000000018004a38c f   * CIL library *:* CIL module *
 0001:0004939c       ?dtor$3@?0???1VersionEdit@leveldb@@QEAA@XZ@4HA 000000018004a39c f   * CIL library *:* CIL module *
 0001:000493ac       ?dtor$4@?0???1VersionEdit@leveldb@@QEAA@XZ@4HA 000000018004a3ac f   * CIL library *:* CIL module *
 0001:000493b8       ?dtor$5@?0???1VersionEdit@leveldb@@QEAA@XZ@4HA 000000018004a3b8 f   * CIL library *:* CIL module *
 0001:000493c4       ?dtor$6@?0???1VersionEdit@leveldb@@QEAA@XZ@4HA 000000018004a3c4 f   * CIL library *:* CIL module *
 0001:000493d0       ?dtor$7@?0???1VersionEdit@leveldb@@QEAA@XZ@4HA 000000018004a3d0 f   * CIL library *:* CIL module *
 0001:000493e0       ?dtor$4@?0??AddFile@VersionEdit@leveldb@@QEAAXH_K0AEBVInternalKey@2@1@Z@4HA 000000018004a3e0 f   * CIL library *:* CIL module *
 0001:000493ec       ?dtor$2@?0??AddFile@VersionEdit@leveldb@@QEAAXH_K0AEBVInternalKey@2@1@Z@4HA 000000018004a3ec f   * CIL library *:* CIL module *
 0001:000493fc       ?dtor$5@?0??AddFile@VersionEdit@leveldb@@QEAAXH_K0AEBVInternalKey@2@1@Z@4HA 000000018004a3fc f   * CIL library *:* CIL module *
 0001:00049408       ?dtor$3@?0??AddFile@VersionEdit@leveldb@@QEAAXH_K0AEBVInternalKey@2@1@Z@4HA 000000018004a408 f   * CIL library *:* CIL module *
 0001:00049418       ?dtor$0@?0??AddFile@VersionEdit@leveldb@@QEAAXH_K0AEBVInternalKey@2@1@Z@4HA 000000018004a418 f   * CIL library *:* CIL module *
 0001:00049424       ?dtor$1@?0??AddFile@VersionEdit@leveldb@@QEAAXH_K0AEBVInternalKey@2@1@Z@4HA 000000018004a424 f   * CIL library *:* CIL module *
 0001:00049430       ?dtor$6@?0??AddFile@VersionEdit@leveldb@@QEAAXH_K0AEBVInternalKey@2@1@Z@4HA 000000018004a430 f   * CIL library *:* CIL module *
 0001:00049440       ?dtor$7@?0??AddFile@VersionEdit@leveldb@@QEAAXH_K0AEBVInternalKey@2@1@Z@4HA 000000018004a440 f   * CIL library *:* CIL module *
 0001:00049450       ?dtor$8@?0??AddFile@VersionEdit@leveldb@@QEAAXH_K0AEBVInternalKey@2@1@Z@4HA 000000018004a450 f   * CIL library *:* CIL module *
 0001:00049460       ?dtor$9@?0??AddFile@VersionEdit@leveldb@@QEAAXH_K0AEBVInternalKey@2@1@Z@4HA 000000018004a460 f   * CIL library *:* CIL module *
 0001:0004946c       ?dtor$10@?0??AddFile@VersionEdit@leveldb@@QEAAXH_K0AEBVInternalKey@2@1@Z@4HA 000000018004a46c f   * CIL library *:* CIL module *
 0001:00049480       ?dtor$0@?0???1?$set@U?$pair@H_K@std@@U?$less@U?$pair@H_K@std@@@2@V?$allocator@U?$pair@H_K@std@@@2@@std@@QEAA@XZ@4HA 000000018004a480 f   * CIL library *:* CIL module *
 0001:0004948c       ?dtor$1@?0???1?$set@U?$pair@H_K@std@@U?$less@U?$pair@H_K@std@@@2@V?$allocator@U?$pair@H_K@std@@@2@@std@@QEAA@XZ@4HA 000000018004a48c f   * CIL library *:* CIL module *
 0001:00049498       ?dtor$2@?0???1?$set@U?$pair@H_K@std@@U?$less@U?$pair@H_K@std@@@2@V?$allocator@U?$pair@H_K@std@@@2@@std@@QEAA@XZ@4HA 000000018004a498 f   * CIL library *:* CIL module *
 0001:000494a4       ?dtor$3@?0???1?$set@U?$pair@H_K@std@@U?$less@U?$pair@H_K@std@@@2@V?$allocator@U?$pair@H_K@std@@@2@@std@@QEAA@XZ@4HA 000000018004a4a4 f   * CIL library *:* CIL module *
 0001:000494b0       ?dtor$0@?0???1?$pair@HVInternalKey@leveldb@@@std@@QEAA@XZ@4HA 000000018004a4b0 f   * CIL library *:* CIL module *
 0001:000494b0       ?dtor$0@?0??_Destroy@?$vector@U?$pair@HVInternalKey@leveldb@@@std@@V?$allocator@U?$pair@HVInternalKey@leveldb@@@std@@@2@@std@@IEAAXPEAU?$pair@HVInternalKey@leveldb@@@2@0@Z@4HA 000000018004a4b0 f   * CIL library *:* CIL module *
 0001:000494c0       ?dtor$1@?0???1?$pair@HVInternalKey@leveldb@@@std@@QEAA@XZ@4HA 000000018004a4c0 f   * CIL library *:* CIL module *
 0001:000494c0       ?dtor$1@?0??_Destroy@?$vector@U?$pair@HVInternalKey@leveldb@@@std@@V?$allocator@U?$pair@HVInternalKey@leveldb@@@std@@@2@@std@@IEAAXPEAU?$pair@HVInternalKey@leveldb@@@2@0@Z@4HA 000000018004a4c0 f   * CIL library *:* CIL module *
 0001:000494d0       ?dtor$0@?0???1FileMetaData@leveldb@@QEAA@XZ@4HA 000000018004a4d0 f   * CIL library *:* CIL module *
 0001:000494e0       ?dtor$1@?0???1FileMetaData@leveldb@@QEAA@XZ@4HA 000000018004a4e0 f   * CIL library *:* CIL module *
 0001:000494f0       ?dtor$2@?0???1FileMetaData@leveldb@@QEAA@XZ@4HA 000000018004a4f0 f   * CIL library *:* CIL module *
 0001:000494fc       ?dtor$3@?0???1FileMetaData@leveldb@@QEAA@XZ@4HA 000000018004a4fc f   * CIL library *:* CIL module *
 0001:00049510       ?dtor$0@?0???1?$pair@HUFileMetaData@leveldb@@@std@@QEAA@XZ@4HA 000000018004a510 f   * CIL library *:* CIL module *
 0001:00049520       ?dtor$1@?0??SanitizeOptions@leveldb@@YA?AUOptions@1@AEBV?$basic_string@DU?$char_traits@D@std@@V?$allocator@D@2@@std@@PEBVInternalKeyComparator@1@PEBVInternalFilterPolicy@1@AEBU21@@Z@4HA 000000018004a520 f   * CIL library *:* CIL module *
 0001:0004952c       ?dtor$2@?0??SanitizeOptions@leveldb@@YA?AUOptions@1@AEBV?$basic_string@DU?$char_traits@D@std@@V?$allocator@D@2@@std@@PEBVInternalKeyComparator@1@PEBVInternalFilterPolicy@1@AEBU21@@Z@4HA 000000018004a52c f   * CIL library *:* CIL module *
 0001:00049538       ?dtor$4@?0??SanitizeOptions@leveldb@@YA?AUOptions@1@AEBV?$basic_string@DU?$char_traits@D@std@@V?$allocator@D@2@@std@@PEBVInternalKeyComparator@1@PEBVInternalFilterPolicy@1@AEBU21@@Z@4HA 000000018004a538 f   * CIL library *:* CIL module *
 0001:00049544       ?dtor$5@?0??SanitizeOptions@leveldb@@YA?AUOptions@1@AEBV?$basic_string@DU?$char_traits@D@std@@V?$allocator@D@2@@std@@PEBVInternalKeyComparator@1@PEBVInternalFilterPolicy@1@AEBU21@@Z@4HA 000000018004a544 f   * CIL library *:* CIL module *
 0001:00049550       ?dtor$6@?0??SanitizeOptions@leveldb@@YA?AUOptions@1@AEBV?$basic_string@DU?$char_traits@D@std@@V?$allocator@D@2@@std@@PEBVInternalKeyComparator@1@PEBVInternalFilterPolicy@1@AEBU21@@Z@4HA 000000018004a550 f   * CIL library *:* CIL module *
 0001:00049560       ?dtor$0@?0???0DBImpl@leveldb@@QEAA@AEBUOptions@1@AEBV?$basic_string@DU?$char_traits@D@std@@V?$allocator@D@2@@std@@@Z@4HA 000000018004a560 f   * CIL library *:* CIL module *
 0001:0004956c       ?dtor$14@?0???0DBImpl@leveldb@@QEAA@AEBUOptions@1@AEBV?$basic_string@DU?$char_traits@D@std@@V?$allocator@D@2@@std@@@Z@4HA 000000018004a56c f   * CIL library *:* CIL module *
 0001:00049578       ?dtor$1@?0???0DBImpl@leveldb@@QEAA@AEBUOptions@1@AEBV?$basic_string@DU?$char_traits@D@std@@V?$allocator@D@2@@std@@@Z@4HA 000000018004a578 f   * CIL library *:* CIL module *
 0001:00049588       ?dtor$15@?0???0DBImpl@leveldb@@QEAA@AEBUOptions@1@AEBV?$basic_string@DU?$char_traits@D@std@@V?$allocator@D@2@@std@@@Z@4HA 000000018004a588 f   * CIL library *:* CIL module *
 0001:00049594       ?dtor$2@?0???0DBImpl@leveldb@@QEAA@AEBUOptions@1@AEBV?$basic_string@DU?$char_traits@D@std@@V?$allocator@D@2@@std@@@Z@4HA 000000018004a594 f   * CIL library *:* CIL module *
 0001:000495a4       ?dtor$3@?0???0DBImpl@leveldb@@QEAA@AEBUOptions@1@AEBV?$basic_string@DU?$char_traits@D@std@@V?$allocator@D@2@@std@@@Z@4HA 000000018004a5a4 f   * CIL library *:* CIL module *
 0001:000495b7       ?dtor$4@?0???0DBImpl@leveldb@@QEAA@AEBUOptions@1@AEBV?$basic_string@DU?$char_traits@D@std@@V?$allocator@D@2@@std@@@Z@4HA 000000018004a5b7 f   * CIL library *:* CIL module *
 0001:000495ca       ?dtor$5@?0???0DBImpl@leveldb@@QEAA@AEBUOptions@1@AEBV?$basic_string@DU?$char_traits@D@std@@V?$allocator@D@2@@std@@@Z@4HA 000000018004a5ca f   * CIL library *:* CIL module *
 0001:000495dd       ?dtor$6@?0???0DBImpl@leveldb@@QEAA@AEBUOptions@1@AEBV?$basic_string@DU?$char_traits@D@std@@V?$allocator@D@2@@std@@@Z@4HA 000000018004a5dd f   * CIL library *:* CIL module *
 0001:000495e9       ?dtor$17@?0???0DBImpl@leveldb@@QEAA@AEBUOptions@1@AEBV?$basic_string@DU?$char_traits@D@std@@V?$allocator@D@2@@std@@@Z@4HA 000000018004a5e9 f   * CIL library *:* CIL module *
 0001:00049608       ?dtor$16@?0???0DBImpl@leveldb@@QEAA@AEBUOptions@1@AEBV?$basic_string@DU?$char_traits@D@std@@V?$allocator@D@2@@std@@@Z@4HA 000000018004a608 f   * CIL library *:* CIL module *
 0001:00049614       ?dtor$7@?0???0DBImpl@leveldb@@QEAA@AEBUOptions@1@AEBV?$basic_string@DU?$char_traits@D@std@@V?$allocator@D@2@@std@@@Z@4HA 000000018004a614 f   * CIL library *:* CIL module *
 0001:00049627       ?dtor$8@?0???0DBImpl@leveldb@@QEAA@AEBUOptions@1@AEBV?$basic_string@DU?$char_traits@D@std@@V?$allocator@D@2@@std@@@Z@4HA 000000018004a627 f   * CIL library *:* CIL module *
 0001:00049633       ?dtor$19@?0???0DBImpl@leveldb@@QEAA@AEBUOptions@1@AEBV?$basic_string@DU?$char_traits@D@std@@V?$allocator@D@2@@std@@@Z@4HA 000000018004a633 f   * CIL library *:* CIL module *
 0001:0004963f       ?dtor$18@?0???0DBImpl@leveldb@@QEAA@AEBUOptions@1@AEBV?$basic_string@DU?$char_traits@D@std@@V?$allocator@D@2@@std@@@Z@4HA 000000018004a63f f   * CIL library *:* CIL module *
 0001:0004964b       ?dtor$9@?0???0DBImpl@leveldb@@QEAA@AEBUOptions@1@AEBV?$basic_string@DU?$char_traits@D@std@@V?$allocator@D@2@@std@@@Z@4HA 000000018004a64b f   * CIL library *:* CIL module *
 0001:0004965e       ?dtor$10@?0???0DBImpl@leveldb@@QEAA@AEBUOptions@1@AEBV?$basic_string@DU?$char_traits@D@std@@V?$allocator@D@2@@std@@@Z@4HA 000000018004a65e f   * CIL library *:* CIL module *
 0001:00049671       ?dtor$11@?0???0DBImpl@leveldb@@QEAA@AEBUOptions@1@AEBV?$basic_string@DU?$char_traits@D@std@@V?$allocator@D@2@@std@@@Z@4HA 000000018004a671 f   * CIL library *:* CIL module *
 0001:00049684       ?dtor$12@?0???0DBImpl@leveldb@@QEAA@AEBUOptions@1@AEBV?$basic_string@DU?$char_traits@D@std@@V?$allocator@D@2@@std@@@Z@4HA 000000018004a684 f   * CIL library *:* CIL module *
 0001:00049690       ?dtor$13@?0???0DBImpl@leveldb@@QEAA@AEBUOptions@1@AEBV?$basic_string@DU?$char_traits@D@std@@V?$allocator@D@2@@std@@@Z@4HA 000000018004a690 f   * CIL library *:* CIL module *
 0001:000496a0       ?dtor$0@?0???1SnapshotList@leveldb@@QEAA@XZ@4HA 000000018004a6a0 f   * CIL library *:* CIL module *
 0001:000496ac       ?dtor$1@?0???1SnapshotList@leveldb@@QEAA@XZ@4HA 000000018004a6ac f   * CIL library *:* CIL module *
 0001:000496c0       ?dtor$0@?0???1DBImpl@leveldb@@UEAA@XZ@4HA 000000018004a6c0 f   * CIL library *:* CIL module *
 0001:000496cc       ?dtor$1@?0???1DBImpl@leveldb@@UEAA@XZ@4HA 000000018004a6cc f   * CIL library *:* CIL module *
 0001:000496dc       ?dtor$2@?0???1DBImpl@leveldb@@UEAA@XZ@4HA 000000018004a6dc f   * CIL library *:* CIL module *
 0001:000496ec       ?dtor$3@?0???1DBImpl@leveldb@@UEAA@XZ@4HA 000000018004a6ec f   * CIL library *:* CIL module *
 0001:000496ff       ?dtor$4@?0???1DBImpl@leveldb@@UEAA@XZ@4HA 000000018004a6ff f   * CIL library *:* CIL module *
 0001:00049712       ?dtor$5@?0???1DBImpl@leveldb@@UEAA@XZ@4HA 000000018004a712 f   * CIL library *:* CIL module *
 0001:00049725       ?dtor$6@?0???1DBImpl@leveldb@@UEAA@XZ@4HA 000000018004a725 f   * CIL library *:* CIL module *
 0001:00049738       ?dtor$7@?0???1DBImpl@leveldb@@UEAA@XZ@4HA 000000018004a738 f   * CIL library *:* CIL module *
 0001:0004974b       ?dtor$8@?0???1DBImpl@leveldb@@UEAA@XZ@4HA 000000018004a74b f   * CIL library *:* CIL module *
 0001:0004975e       ?dtor$9@?0???1DBImpl@leveldb@@UEAA@XZ@4HA 000000018004a75e f   * CIL library *:* CIL module *
 0001:00049771       ?dtor$11@?0???1DBImpl@leveldb@@UEAA@XZ@4HA 000000018004a771 f   * CIL library *:* CIL module *
 0001:0004977d       ?dtor$12@?0???1DBImpl@leveldb@@UEAA@XZ@4HA 000000018004a77d f   * CIL library *:* CIL module *
 0001:0004978d       ?dtor$13@?0???1DBImpl@leveldb@@UEAA@XZ@4HA 000000018004a78d f   * CIL library *:* CIL module *
 0001:00049799       ?dtor$14@?0???1DBImpl@leveldb@@UEAA@XZ@4HA 000000018004a799 f   * CIL library *:* CIL module *
 0001:000497a5       ?dtor$15@?0???1DBImpl@leveldb@@UEAA@XZ@4HA 000000018004a7a5 f   * CIL library *:* CIL module *
 0001:000497b1       ?dtor$16@?0???1DBImpl@leveldb@@UEAA@XZ@4HA 000000018004a7b1 f   * CIL library *:* CIL module *
 0001:000497bd       ?dtor$17@?0???1DBImpl@leveldb@@UEAA@XZ@4HA 000000018004a7bd f   * CIL library *:* CIL module *
 0001:000497c9       ?dtor$18@?0???1DBImpl@leveldb@@UEAA@XZ@4HA 000000018004a7c9 f   * CIL library *:* CIL module *
 0001:000497d5       ?dtor$19@?0???1DBImpl@leveldb@@UEAA@XZ@4HA 000000018004a7d5 f   * CIL library *:* CIL module *
 0001:000497e1       ?dtor$20@?0???1DBImpl@leveldb@@UEAA@XZ@4HA 000000018004a7e1 f   * CIL library *:* CIL module *
 0001:000497ed       ?dtor$21@?0???1DBImpl@leveldb@@UEAA@XZ@4HA 000000018004a7ed f   * CIL library *:* CIL module *
 0001:00049800       ?dtor$0@?0??NewDB@DBImpl@leveldb@@AEAA?AVStatus@2@XZ@4HA 000000018004a800 f   * CIL library *:* CIL module *
 0001:0004980c       ?dtor$9@?0??NewDB@DBImpl@leveldb@@AEAA?AVStatus@2@XZ@4HA 000000018004a80c f   * CIL library *:* CIL module *
 0001:00049818       ?dtor$1@?0??NewDB@DBImpl@leveldb@@AEAA?AVStatus@2@XZ@4HA 000000018004a818 f   * CIL library *:* CIL module *
 0001:00049824       ?dtor$2@?0??NewDB@DBImpl@leveldb@@AEAA?AVStatus@2@XZ@4HA 000000018004a824 f   * CIL library *:* CIL module *
 0001:00049830       ?dtor$3@?0??NewDB@DBImpl@leveldb@@AEAA?AVStatus@2@XZ@4HA 000000018004a830 f   * CIL library *:* CIL module *
 0001:00049856       ?dtor$4@?0??NewDB@DBImpl@leveldb@@AEAA?AVStatus@2@XZ@4HA 000000018004a856 f   * CIL library *:* CIL module *
 0001:00049862       ?dtor$5@?0??NewDB@DBImpl@leveldb@@AEAA?AVStatus@2@XZ@4HA 000000018004a862 f   * CIL library *:* CIL module *
 0001:0004986e       ?dtor$6@?0??NewDB@DBImpl@leveldb@@AEAA?AVStatus@2@XZ@4HA 000000018004a86e f   * CIL library *:* CIL module *
 0001:0004987a       ?dtor$7@?0??NewDB@DBImpl@leveldb@@AEAA?AVStatus@2@XZ@4HA 000000018004a87a f   * CIL library *:* CIL module *
 0001:00049890       ?dtor$0@?0??DeleteObsoleteFiles@DBImpl@leveldb@@AEAAXXZ@4HA 000000018004a890 f   * CIL library *:* CIL module *
 0001:0004989c       ?dtor$1@?0??DeleteObsoleteFiles@DBImpl@leveldb@@AEAAXXZ@4HA 000000018004a89c f   * CIL library *:* CIL module *
 0001:000498a8       ?dtor$3@?0??DeleteObsoleteFiles@DBImpl@leveldb@@AEAAXXZ@4HA 000000018004a8a8 f   * CIL library *:* CIL module *
 0001:000498b4       ?dtor$4@?0??DeleteObsoleteFiles@DBImpl@leveldb@@AEAAXXZ@4HA 000000018004a8b4 f   * CIL library *:* CIL module *
 0001:000498c0       ?dtor$6@?0??DeleteObsoleteFiles@DBImpl@leveldb@@AEAAXXZ@4HA 000000018004a8c0 f   * CIL library *:* CIL module *
 0001:000498cc       ?dtor$7@?0??DeleteObsoleteFiles@DBImpl@leveldb@@AEAAXXZ@4HA 000000018004a8cc f   * CIL library *:* CIL module *
 0001:000498d8       ?dtor$8@?0??DeleteObsoleteFiles@DBImpl@leveldb@@AEAAXXZ@4HA 000000018004a8d8 f   * CIL library *:* CIL module *
 0001:000498e4       ?dtor$9@?0??DeleteObsoleteFiles@DBImpl@leveldb@@AEAAXXZ@4HA 000000018004a8e4 f   * CIL library *:* CIL module *
 0001:000498f0       ?dtor$1@?0??Recover@DBImpl@leveldb@@AEAA?AVStatus@2@PEAVVersionEdit@2@@Z@4HA 000000018004a8f0 f   * CIL library *:* CIL module *
 0001:000498fc       ?dtor$2@?0??Recover@DBImpl@leveldb@@AEAA?AVStatus@2@PEAVVersionEdit@2@@Z@4HA 000000018004a8fc f   * CIL library *:* CIL module *
 0001:00049908       ?dtor$3@?0??Recover@DBImpl@leveldb@@AEAA?AVStatus@2@PEAVVersionEdit@2@@Z@4HA 000000018004a908 f   * CIL library *:* CIL module *
 0001:00049931       ?dtor$4@?0??Recover@DBImpl@leveldb@@AEAA?AVStatus@2@PEAVVersionEdit@2@@Z@4HA 000000018004a931 f   * CIL library *:* CIL module *
 0001:0004993d       ?dtor$5@?0??Recover@DBImpl@leveldb@@AEAA?AVStatus@2@PEAVVersionEdit@2@@Z@4HA 000000018004a93d f   * CIL library *:* CIL module *
 0001:00049949       ?dtor$6@?0??Recover@DBImpl@leveldb@@AEAA?AVStatus@2@PEAVVersionEdit@2@@Z@4HA 000000018004a949 f   * CIL library *:* CIL module *
 0001:00049955       ?dtor$7@?0??Recover@DBImpl@leveldb@@AEAA?AVStatus@2@PEAVVersionEdit@2@@Z@4HA 000000018004a955 f   * CIL library *:* CIL module *
 0001:00049961       ?dtor$8@?0??Recover@DBImpl@leveldb@@AEAA?AVStatus@2@PEAVVersionEdit@2@@Z@4HA 000000018004a961 f   * CIL library *:* CIL module *
 0001:0004996d       ?dtor$9@?0??Recover@DBImpl@leveldb@@AEAA?AVStatus@2@PEAVVersionEdit@2@@Z@4HA 000000018004a96d f   * CIL library *:* CIL module *
 0001:00049979       ?dtor$10@?0??Recover@DBImpl@leveldb@@AEAA?AVStatus@2@PEAVVersionEdit@2@@Z@4HA 000000018004a979 f   * CIL library *:* CIL module *
 0001:00049985       ?dtor$13@?0??Recover@DBImpl@leveldb@@AEAA?AVStatus@2@PEAVVersionEdit@2@@Z@4HA 000000018004a985 f   * CIL library *:* CIL module *
 0001:000499a4       ?dtor$11@?0??Recover@DBImpl@leveldb@@AEAA?AVStatus@2@PEAVVersionEdit@2@@Z@4HA 000000018004a9a4 f   * CIL library *:* CIL module *
